---
triple:          'arm64-apple-darwin'
binary-path:     '/Users/alextu/Arc53 Dropbox/Alex Tushynski/Mac/Documents/GitHub/fast-ebook/target/debug/deps/lib_fast_ebook.dylib'
relocations:
  - { offset: 0x1E, size: 0x8, addend: 0x0, symName: '__ZN4core5array106_$LT$impl$u20$core..iter..traits..collect..IntoIterator$u20$for$u20$$RF$mut$u20$$u5b$T$u3b$$u20$N$u5d$$GT$9into_iter17h7c692d395917fb50E', symObjAddr: 0x0, symBinAddr: 0x890, symSize: 0x58 }
  - { offset: 0x2B2, size: 0x8, addend: 0x0, symName: '__ZN4core5array106_$LT$impl$u20$core..iter..traits..collect..IntoIterator$u20$for$u20$$RF$mut$u20$$u5b$T$u3b$$u20$N$u5d$$GT$9into_iter17h7c692d395917fb50E', symObjAddr: 0x0, symBinAddr: 0x890, symSize: 0x58 }
  - { offset: 0x3E2, size: 0x8, addend: 0x0, symName: '__ZN4core5array85_$LT$impl$u20$core..ops..index..Index$LT$I$GT$$u20$for$u20$$u5b$T$u3b$$u20$N$u5d$$GT$5index17hcd2ba663f9ece29dE', symObjAddr: 0x58, symBinAddr: 0x8E8, symSize: 0x38 }
  - { offset: 0x455, size: 0x8, addend: 0x0, symName: '__ZN4core5array88_$LT$impl$u20$core..ops..index..IndexMut$LT$I$GT$$u20$for$u20$$u5b$T$u3b$$u20$N$u5d$$GT$9index_mut17hbf281f452c0d9669E', symObjAddr: 0x90, symBinAddr: 0x920, symSize: 0x48 }
  - { offset: 0x4CB, size: 0x8, addend: 0x0, symName: '__ZN4core5array88_$LT$impl$u20$core..ops..index..IndexMut$LT$I$GT$$u20$for$u20$$u5b$T$u3b$$u20$N$u5d$$GT$9index_mut17he3b7b19ccc1b1c7fE', symObjAddr: 0xD8, symBinAddr: 0x968, symSize: 0x50 }
  - { offset: 0x540, size: 0x8, addend: 0x0, symName: '__ZN4core5array88_$LT$impl$u20$core..ops..index..IndexMut$LT$I$GT$$u20$for$u20$$u5b$T$u3b$$u20$N$u5d$$GT$9index_mut17he625ccc82787bd8dE', symObjAddr: 0x128, symBinAddr: 0x9B8, symSize: 0x50 }
  - { offset: 0x7F0, size: 0x8, addend: 0x0, symName: '__ZN4core5slice29_$LT$impl$u20$$u5b$T$u5d$$GT$4iter17hd2aab98bd329511cE', symObjAddr: 0x0, symBinAddr: 0xA08, symSize: 0x28 }
  - { offset: 0x80C, size: 0x8, addend: 0x0, symName: '__ZN4core5slice29_$LT$impl$u20$$u5b$T$u5d$$GT$4iter17hd2aab98bd329511cE', symObjAddr: 0x0, symBinAddr: 0xA08, symSize: 0x28 }
  - { offset: 0x843, size: 0x8, addend: 0x0, symName: '__ZN4core5slice29_$LT$impl$u20$$u5b$T$u5d$$GT$5first17h8308f4cf1886845cE', symObjAddr: 0x28, symBinAddr: 0xA30, symSize: 0x44 }
  - { offset: 0xC67, size: 0x8, addend: 0x0, symName: '__ZN11_fast_ebook8metadata14parse_metadata28_$u7b$$u7b$closure$u7d$$u7d$17h0879595723bb6680E', symObjAddr: 0x6C, symBinAddr: 0xA74, symSize: 0x44 }
  - { offset: 0xC9A, size: 0x8, addend: 0x0, symName: '__ZN11_fast_ebook8metadata14parse_metadata28_$u7b$$u7b$closure$u7d$$u7d$28_$u7b$$u7b$closure$u7d$$u7d$17ha199818aa05e1b05E', symObjAddr: 0xB0, symBinAddr: 0xAB8, symSize: 0x30 }
  - { offset: 0xCD0, size: 0x8, addend: 0x0, symName: '__ZN11_fast_ebook8metadata14parse_metadata28_$u7b$$u7b$closure$u7d$$u7d$28_$u7b$$u7b$closure$u7d$$u7d$17h8a2b9051f9277dbbE', symObjAddr: 0xE0, symBinAddr: 0xAE8, symSize: 0x1C }
  - { offset: 0x15A6, size: 0x8, addend: 0x0, symName: '__ZN4pyo312pyclass_init27PyClassInitializer$LT$T$GT$19create_class_object17h21b15940c98a6c9eE', symObjAddr: 0x0, symBinAddr: 0xB04, symSize: 0x9C }
  - { offset: 0x3629, size: 0x8, addend: 0x0, symName: '__ZN96_$LT$pyo3..pyclass_init..PyClassInitializer$LT$T$GT$$u20$as$u20$core..convert..From$LT$T$GT$$GT$4from17h0e1736ca07e5b692E', symObjAddr: 0xCA4, symBinAddr: 0x17A8, symSize: 0x1C }
  - { offset: 0x365F, size: 0x8, addend: 0x0, symName: '__ZN96_$LT$pyo3..pyclass_init..PyClassInitializer$LT$T$GT$$u20$as$u20$core..convert..From$LT$T$GT$$GT$4from17h187f6f0b3a256ca5E', symObjAddr: 0xCC0, symBinAddr: 0x17C4, symSize: 0x1C }
  - { offset: 0x3695, size: 0x8, addend: 0x0, symName: '__ZN96_$LT$pyo3..pyclass_init..PyClassInitializer$LT$T$GT$$u20$as$u20$core..convert..From$LT$T$GT$$GT$4from17ha4dafb92812854bfE', symObjAddr: 0xCDC, symBinAddr: 0x17E0, symSize: 0x2C }
  - { offset: 0x463A, size: 0x8, addend: 0x0, symName: '__ZN4pyo312pyclass_init27PyClassInitializer$LT$T$GT$19create_class_object17h21b15940c98a6c9eE', symObjAddr: 0x0, symBinAddr: 0xB04, symSize: 0x9C }
  - { offset: 0x467E, size: 0x8, addend: 0x0, symName: '__ZN4pyo312pyclass_init27PyClassInitializer$LT$T$GT$19create_class_object17h6a7494cb363d3379E', symObjAddr: 0x9C, symBinAddr: 0xBA0, symSize: 0x98 }
  - { offset: 0x499D, size: 0x8, addend: 0x0, symName: '__ZN4pyo312pyclass_init27PyClassInitializer$LT$T$GT$19create_class_object17h7a9ff887fed3dc73E', symObjAddr: 0x134, symBinAddr: 0xC38, symSize: 0xA0 }
  - { offset: 0x4A5C, size: 0x8, addend: 0x0, symName: '__ZN4pyo312pyclass_init27PyClassInitializer$LT$T$GT$27create_class_object_of_type17he1f911cd41017955E', symObjAddr: 0x1D4, symBinAddr: 0xCD8, symSize: 0x270 }
  - { offset: 0x4C3D, size: 0x8, addend: 0x0, symName: '__ZN4pyo312pyclass_init27PyClassInitializer$LT$T$GT$27create_class_object_of_type17he59adb5af6b3e8cfE', symObjAddr: 0x444, symBinAddr: 0xF48, symSize: 0x2F8 }
  - { offset: 0x4E4D, size: 0x8, addend: 0x0, symName: '__ZN4pyo312pyclass_init27PyClassInitializer$LT$T$GT$27create_class_object_of_type17heb34b3264afe7e9eE', symObjAddr: 0x73C, symBinAddr: 0x1240, symSize: 0x2F4 }
  - { offset: 0x5017, size: 0x8, addend: 0x0, symName: '__ZN4pyo312pyclass_init27PyClassInitializer$LT$T$GT$3new17h45799c0f6c5da304E', symObjAddr: 0xA30, symBinAddr: 0x1534, symSize: 0xE8 }
  - { offset: 0x5051, size: 0x8, addend: 0x0, symName: '__ZN4pyo312pyclass_init27PyClassInitializer$LT$T$GT$3new17h5de886035e7c45e5E', symObjAddr: 0xB18, symBinAddr: 0x161C, symSize: 0xE8 }
  - { offset: 0x508B, size: 0x8, addend: 0x0, symName: '__ZN4pyo312pyclass_init27PyClassInitializer$LT$T$GT$3new17ha108f0cc5c16a01fE', symObjAddr: 0xC00, symBinAddr: 0x1704, symSize: 0xA4 }
  - { offset: 0x50E2, size: 0x8, addend: 0x0, symName: '__ZN106_$LT$pyo3..impl_..extract_argument..NoVarargs$u20$as$u20$pyo3..impl_..extract_argument..VarargsHandler$GT$20handle_varargs_tuple17ha4e8f065103cc4eaE', symObjAddr: 0x0, symBinAddr: 0x180C, symSize: 0xA0 }
  - { offset: 0x699D, size: 0x8, addend: 0x0, symName: '__ZN106_$LT$pyo3..impl_..extract_argument..NoVarargs$u20$as$u20$pyo3..impl_..extract_argument..VarargsHandler$GT$20handle_varargs_tuple17ha4e8f065103cc4eaE', symObjAddr: 0x0, symBinAddr: 0x180C, symSize: 0xA0 }
  - { offset: 0x6A16, size: 0x8, addend: 0x0, symName: '__ZN106_$LT$pyo3..impl_..extract_argument..NoVarargs$u20$as$u20$pyo3..impl_..extract_argument..VarargsHandler$GT$23handle_varargs_fastcall17h20761d477b108292E', symObjAddr: 0xA0, symBinAddr: 0x18AC, symSize: 0xB4 }
  - { offset: 0x6A8A, size: 0x8, addend: 0x0, symName: '__ZN114_$LT$pyo3..impl_..extract_argument..NoVarkeywords$u20$as$u20$pyo3..impl_..extract_argument..VarkeywordsHandler$GT$17handle_varkeyword17hed8e351ce264f0aeE', symObjAddr: 0x154, symBinAddr: 0x1960, symSize: 0x6C }
  - { offset: 0x6BC9, size: 0x8, addend: 0x0, symName: __ZN4pyo35impl_16extract_argument24unwrap_required_argument17h664505355068a530E, symObjAddr: 0x57C, symBinAddr: 0x1D88, symSize: 0x64 }
  - { offset: 0x6F3C, size: 0x8, addend: 0x0, symName: __ZN4pyo35impl_16extract_argument19FunctionDescription36find_keyword_parameter_in_positional17h8e694f127968d97cE, symObjAddr: 0x1C0, symBinAddr: 0x19CC, symSize: 0x5C }
  - { offset: 0x6F6E, size: 0x8, addend: 0x0, symName: __ZN4pyo35impl_16extract_argument19FunctionDescription38find_keyword_parameter_in_keyword_only17h633d5e120b9958a8E, symObjAddr: 0x21C, symBinAddr: 0x1A28, symSize: 0x5C }
  - { offset: 0x764A, size: 0x8, addend: 0x0, symName: __ZN4pyo35impl_16extract_argument19FunctionDescription44ensure_no_missing_required_keyword_arguments17h9d5d3bb56e8322b9E, symObjAddr: 0x278, symBinAddr: 0x1A84, symSize: 0x160 }
  - { offset: 0x7716, size: 0x8, addend: 0x0, symName: __ZN4pyo35impl_16extract_argument19FunctionDescription47ensure_no_missing_required_positional_arguments17h093f7877f01e8dfaE, symObjAddr: 0x3D8, symBinAddr: 0x1BE4, symSize: 0x1A4 }
  - { offset: 0x78B1, size: 0x8, addend: 0x0, symName: __ZN4core4iter6traits8iterator8Iterator3all17h3c0fc92342fb5268E, symObjAddr: 0x0, symBinAddr: 0x1DEC, symSize: 0x44 }
  - { offset: 0x7C85, size: 0x8, addend: 0x0, symName: __ZN4core4iter6traits8iterator8Iterator3all17h3c0fc92342fb5268E, symObjAddr: 0x0, symBinAddr: 0x1DEC, symSize: 0x44 }
  - { offset: 0x7CD4, size: 0x8, addend: 0x0, symName: __ZN4core4iter6traits8iterator8Iterator3all17hc34ac47aaee7fde2E, symObjAddr: 0x44, symBinAddr: 0x1E30, symSize: 0x44 }
  - { offset: 0x7D23, size: 0x8, addend: 0x0, symName: __ZN4core4iter6traits8iterator8Iterator8try_fold17h91d96c7d19ef98a1E, symObjAddr: 0x88, symBinAddr: 0x1E74, symSize: 0x12C }
  - { offset: 0x7DD5, size: 0x8, addend: 0x0, symName: __ZN4core4iter6traits8iterator8Iterator8try_fold17ha92bf3169e0da249E, symObjAddr: 0x1B4, symBinAddr: 0x1FA0, symSize: 0x12C }
  - { offset: 0x7EC5, size: 0x8, addend: 0x0, symName: '__ZN63_$LT$I$u20$as$u20$core..iter..traits..collect..IntoIterator$GT$9into_iter17heddaafea91677b06E', symObjAddr: 0x2E0, symBinAddr: 0x20CC, symSize: 0x1C }
  - { offset: 0x8573, size: 0x8, addend: 0x0, symName: '__ZN99_$LT$indexmap..map..iter..Values$LT$K$C$V$GT$$u20$as$u20$core..iter..traits..iterator..Iterator$GT$4next17hb804347fba5549cdE', symObjAddr: 0x324, symBinAddr: 0x2110, symSize: 0x28 }
  - { offset: 0x88F1, size: 0x8, addend: 0x0, symName: '__ZN8indexmap3map4iter19Values$LT$K$C$V$GT$3new17hbef1dacd0ec64524E', symObjAddr: 0x2FC, symBinAddr: 0x20E8, symSize: 0x28 }
  - { offset: 0x896B, size: 0x8, addend: 0x0, symName: __ZN3std3sys3pal4unix17decode_error_kind17hae18bcec1ef99fd0E, symObjAddr: 0x0, symBinAddr: 0x2138, symSize: 0x24C }
  - { offset: 0x8AA0, size: 0x8, addend: 0x0, symName: __ZN3std3sys3pal4unix17decode_error_kind17hae18bcec1ef99fd0E, symObjAddr: 0x0, symBinAddr: 0x2138, symSize: 0x24C }
  - { offset: 0x8B37, size: 0x8, addend: 0x0, symName: '__ZN3std4sync9once_lock17OnceLock$LT$T$GT$10initialize17h339bc62a3b36754eE', symObjAddr: 0x0, symBinAddr: 0x217C04, symSize: 0x6C }
  - { offset: 0x96CD, size: 0x8, addend: 0x0, symName: '__ZN3std4sync9once_lock17OnceLock$LT$T$GT$11get_or_init28_$u7b$$u7b$closure$u7d$$u7d$17h11120c3fc2c919e2E', symObjAddr: 0x600, symBinAddr: 0x2768, symSize: 0x2C }
  - { offset: 0x970E, size: 0x8, addend: 0x0, symName: '__ZN3std4sync9once_lock17OnceLock$LT$T$GT$11get_or_init28_$u7b$$u7b$closure$u7d$$u7d$17h402f339e267ed2b6E', symObjAddr: 0x62C, symBinAddr: 0x2794, symSize: 0x2C }
  - { offset: 0x974F, size: 0x8, addend: 0x0, symName: '__ZN3std4sync9once_lock17OnceLock$LT$T$GT$11get_or_init28_$u7b$$u7b$closure$u7d$$u7d$17hb6c7c30644fcfd5dE', symObjAddr: 0x658, symBinAddr: 0x27C0, symSize: 0x2C }
  - { offset: 0x9790, size: 0x8, addend: 0x0, symName: '__ZN3std4sync9once_lock17OnceLock$LT$T$GT$11get_or_init28_$u7b$$u7b$closure$u7d$$u7d$17hcd892afc9f0c9e97E', symObjAddr: 0x684, symBinAddr: 0x27EC, symSize: 0x2C }
  - { offset: 0x97D1, size: 0x8, addend: 0x0, symName: '__ZN3std4sync9once_lock17OnceLock$LT$T$GT$11get_or_init28_$u7b$$u7b$closure$u7d$$u7d$17hd7176d06eac1de56E', symObjAddr: 0x6B0, symBinAddr: 0x2818, symSize: 0x2C }
  - { offset: 0x982B, size: 0x8, addend: 0x0, symName: '__ZN3std4sync9once_lock17OnceLock$LT$T$GT$10try_insert28_$u7b$$u7b$closure$u7d$$u7d$17h3a8f7c9134c314b8E', symObjAddr: 0x4B4, symBinAddr: 0x261C, symSize: 0x6C }
  - { offset: 0x98BC, size: 0x8, addend: 0x0, symName: '__ZN3std4sync9once_lock17OnceLock$LT$T$GT$10initialize28_$u7b$$u7b$closure$u7d$$u7d$17h014b63e1fd2b7b1dE', symObjAddr: 0x21C, symBinAddr: 0x2384, symSize: 0x60 }
  - { offset: 0x99B4, size: 0x8, addend: 0x0, symName: '__ZN3std4sync9once_lock17OnceLock$LT$T$GT$10initialize28_$u7b$$u7b$closure$u7d$$u7d$17h112c4edb08005912E', symObjAddr: 0x27C, symBinAddr: 0x23E4, symSize: 0x60 }
  - { offset: 0x9AAC, size: 0x8, addend: 0x0, symName: '__ZN3std4sync9once_lock17OnceLock$LT$T$GT$10initialize28_$u7b$$u7b$closure$u7d$$u7d$17h1dedd0605d299c90E', symObjAddr: 0x2DC, symBinAddr: 0x2444, symSize: 0x60 }
  - { offset: 0x9BA4, size: 0x8, addend: 0x0, symName: '__ZN3std4sync9once_lock17OnceLock$LT$T$GT$10initialize28_$u7b$$u7b$closure$u7d$$u7d$17h1f8507d14467817dE', symObjAddr: 0x33C, symBinAddr: 0x24A4, symSize: 0x60 }
  - { offset: 0x9C9C, size: 0x8, addend: 0x0, symName: '__ZN3std4sync9once_lock17OnceLock$LT$T$GT$10initialize28_$u7b$$u7b$closure$u7d$$u7d$17hbb056b5e24177718E', symObjAddr: 0x39C, symBinAddr: 0x2504, symSize: 0x60 }
  - { offset: 0x9F06, size: 0x8, addend: 0x0, symName: '__ZN3std4sync9once_lock17OnceLock$LT$T$GT$10initialize17h339bc62a3b36754eE', symObjAddr: 0x0, symBinAddr: 0x217C04, symSize: 0x6C }
  - { offset: 0x9F8F, size: 0x8, addend: 0x0, symName: '__ZN3std4sync9once_lock17OnceLock$LT$T$GT$10initialize17h4816b0cb195ef2eeE', symObjAddr: 0x6C, symBinAddr: 0x217C70, symSize: 0x6C }
  - { offset: 0xA025, size: 0x8, addend: 0x0, symName: '__ZN3std4sync9once_lock17OnceLock$LT$T$GT$10initialize17h4bca5bc0fbd2390dE', symObjAddr: 0xD8, symBinAddr: 0x217CDC, symSize: 0x6C }
  - { offset: 0xA0AE, size: 0x8, addend: 0x0, symName: '__ZN3std4sync9once_lock17OnceLock$LT$T$GT$10initialize17h8cf5ec63e6241737E', symObjAddr: 0x144, symBinAddr: 0x217D48, symSize: 0x6C }
  - { offset: 0xA137, size: 0x8, addend: 0x0, symName: '__ZN3std4sync9once_lock17OnceLock$LT$T$GT$10initialize17h9c4826d839722a85E', symObjAddr: 0x1B0, symBinAddr: 0x217DB4, symSize: 0x6C }
  - { offset: 0xA432, size: 0x8, addend: 0x0, symName: '__ZN3std4sync9once_lock17OnceLock$LT$T$GT$10try_insert17hb007d8ca0139f1c7E', symObjAddr: 0x3FC, symBinAddr: 0x2564, symSize: 0xB8 }
  - { offset: 0xA566, size: 0x8, addend: 0x0, symName: '__ZN3std4sync9once_lock17OnceLock$LT$T$GT$11get_or_init17h309a24b3f84a15a7E', symObjAddr: 0x520, symBinAddr: 0x2688, symSize: 0x38 }
  - { offset: 0xA5AA, size: 0x8, addend: 0x0, symName: '__ZN3std4sync9once_lock17OnceLock$LT$T$GT$11get_or_init17h60b06c8a6ec2be50E', symObjAddr: 0x558, symBinAddr: 0x26C0, symSize: 0x38 }
  - { offset: 0xA5EE, size: 0x8, addend: 0x0, symName: '__ZN3std4sync9once_lock17OnceLock$LT$T$GT$11get_or_init17h9a71ae164acb2aa6E', symObjAddr: 0x590, symBinAddr: 0x26F8, symSize: 0x38 }
  - { offset: 0xA632, size: 0x8, addend: 0x0, symName: '__ZN3std4sync9once_lock17OnceLock$LT$T$GT$11get_or_init17hf52becddc990d162E', symObjAddr: 0x5C8, symBinAddr: 0x2730, symSize: 0x38 }
  - { offset: 0xA746, size: 0x8, addend: 0x0, symName: '__ZN3std4sync9once_lock17OnceLock$LT$T$GT$15get_or_try_init17h111f6e9a83bd9556E', symObjAddr: 0x6DC, symBinAddr: 0x2844, symSize: 0xDC }
  - { offset: 0xA96E, size: 0x8, addend: 0x0, symName: '__ZN3std4sync9once_lock17OnceLock$LT$T$GT$15get_or_try_init17h20140dfb95256274E', symObjAddr: 0x7B8, symBinAddr: 0x2920, symSize: 0xDC }
  - { offset: 0xAB96, size: 0x8, addend: 0x0, symName: '__ZN3std4sync9once_lock17OnceLock$LT$T$GT$15get_or_try_init17h505f6ff2d272d9a1E', symObjAddr: 0x894, symBinAddr: 0x29FC, symSize: 0xDC }
  - { offset: 0xADBE, size: 0x8, addend: 0x0, symName: '__ZN3std4sync9once_lock17OnceLock$LT$T$GT$15get_or_try_init17h68c2e76da740429dE', symObjAddr: 0x970, symBinAddr: 0x2AD8, symSize: 0xDC }
  - { offset: 0xAFE6, size: 0x8, addend: 0x0, symName: '__ZN3std4sync9once_lock17OnceLock$LT$T$GT$15get_or_try_init17hcefff9609494644eE', symObjAddr: 0xA4C, symBinAddr: 0x2BB4, symSize: 0xDC }
  - { offset: 0xB20E, size: 0x8, addend: 0x0, symName: '__ZN3std4sync9once_lock17OnceLock$LT$T$GT$3get17hd1d162fa451463efE', symObjAddr: 0xB28, symBinAddr: 0x2C90, symSize: 0x84 }
  - { offset: 0xB360, size: 0x8, addend: 0x0, symName: '__ZN3std4sync9once_lock17OnceLock$LT$T$GT$3new17h5452cd444d057c5fE', symObjAddr: 0xBAC, symBinAddr: 0x2D14, symSize: 0x34 }
  - { offset: 0xB3CF, size: 0x8, addend: 0x0, symName: '__ZN3std4sync9once_lock17OnceLock$LT$T$GT$3set17he1b87f24f25fd4d3E', symObjAddr: 0xBE0, symBinAddr: 0x2D48, symSize: 0x68 }
  - { offset: 0xB450, size: 0x8, addend: 0x0, symName: '__ZN4pyo35impl_7pyclass16lazy_type_object23LazyTypeObject$LT$T$GT$11get_or_init17h433b79434b73c579E', symObjAddr: 0x0, symBinAddr: 0x2DB0, symSize: 0x40 }
  - { offset: 0xD149, size: 0x8, addend: 0x0, symName: '__ZN4pyo35impl_7pyclass16lazy_type_object23LazyTypeObject$LT$T$GT$11get_or_init28_$u7b$$u7b$closure$u7d$$u7d$17h1a9c4710b69b3c94E', symObjAddr: 0xC0, symBinAddr: 0x2E70, symSize: 0x98 }
  - { offset: 0xD1B6, size: 0x8, addend: 0x0, symName: '__ZN4pyo35impl_7pyclass16lazy_type_object23LazyTypeObject$LT$T$GT$11get_or_init28_$u7b$$u7b$closure$u7d$$u7d$17h986611d12696d743E', symObjAddr: 0x158, symBinAddr: 0x2F08, symSize: 0x98 }
  - { offset: 0xD223, size: 0x8, addend: 0x0, symName: '__ZN4pyo35impl_7pyclass16lazy_type_object23LazyTypeObject$LT$T$GT$11get_or_init28_$u7b$$u7b$closure$u7d$$u7d$17h9bc7af771eea1a78E', symObjAddr: 0x1F0, symBinAddr: 0x2FA0, symSize: 0x98 }
  - { offset: 0xE28E, size: 0x8, addend: 0x0, symName: '__ZN4pyo35impl_7pyclass16lazy_type_object23LazyTypeObject$LT$T$GT$11get_or_init17h433b79434b73c579E', symObjAddr: 0x0, symBinAddr: 0x2DB0, symSize: 0x40 }
  - { offset: 0xE2EC, size: 0x8, addend: 0x0, symName: '__ZN4pyo35impl_7pyclass16lazy_type_object23LazyTypeObject$LT$T$GT$11get_or_init17h4e0b5348aee826a9E', symObjAddr: 0x40, symBinAddr: 0x2DF0, symSize: 0x40 }
  - { offset: 0xE617, size: 0x8, addend: 0x0, symName: '__ZN4pyo35impl_7pyclass16lazy_type_object23LazyTypeObject$LT$T$GT$11get_or_init17h6e44e92689e6af15E', symObjAddr: 0x80, symBinAddr: 0x2E30, symSize: 0x40 }
  - { offset: 0xE65B, size: 0x8, addend: 0x0, symName: '__ZN4pyo35impl_7pyclass16lazy_type_object23LazyTypeObject$LT$T$GT$15get_or_try_init17h086667dcf9d5d578E', symObjAddr: 0x288, symBinAddr: 0x3038, symSize: 0x58 }
  - { offset: 0xE69F, size: 0x8, addend: 0x0, symName: '__ZN4pyo35impl_7pyclass16lazy_type_object23LazyTypeObject$LT$T$GT$15get_or_try_init17h92016d779191652bE', symObjAddr: 0x2E0, symBinAddr: 0x3090, symSize: 0x58 }
  - { offset: 0xE6E3, size: 0x8, addend: 0x0, symName: '__ZN4pyo35impl_7pyclass16lazy_type_object23LazyTypeObject$LT$T$GT$15get_or_try_init17hb56033ba6dde7c0eE', symObjAddr: 0x338, symBinAddr: 0x30E8, symSize: 0x58 }
  - { offset: 0xE7F2, size: 0x8, addend: 0x0, symName: '__ZN76_$LT$hashbrown..raw..RawTable$LT$T$C$A$GT$$u20$as$u20$core..clone..Clone$GT$5clone17hed7071004653c006E', symObjAddr: 0x0, symBinAddr: 0x3140, symSize: 0x124 }
  - { offset: 0xE82E, size: 0x8, addend: 0x0, symName: '__ZN9hashbrown3raw21RawTable$LT$T$C$A$GT$14reserve_rehash28_$u7b$$u7b$closure$u7d$$u7d$17h218c98c3a9254705E', symObjAddr: 0x58D8, symBinAddr: 0x5924, symSize: 0x30 }
  - { offset: 0xE87E, size: 0x8, addend: 0x0, symName: '__ZN9hashbrown3raw21RawTable$LT$T$C$A$GT$14reserve_rehash28_$u7b$$u7b$closure$u7d$$u7d$17h528346d5d9268006E', symObjAddr: 0x5908, symBinAddr: 0x5954, symSize: 0xC8 }
  - { offset: 0xEA3B, size: 0x8, addend: 0x0, symName: '__ZN9hashbrown3raw21RawTable$LT$T$C$A$GT$14reserve_rehash28_$u7b$$u7b$closure$u7d$$u7d$17h5a291b83eb5ade03E', symObjAddr: 0x59D0, symBinAddr: 0x5A1C, symSize: 0xC8 }
  - { offset: 0xEBF8, size: 0x8, addend: 0x0, symName: '__ZN9hashbrown3raw21RawTable$LT$T$C$A$GT$14reserve_rehash28_$u7b$$u7b$closure$u7d$$u7d$17h6b40bd3052b0eb14E', symObjAddr: 0x5A98, symBinAddr: 0x5AE4, symSize: 0xC8 }
  - { offset: 0xEDB5, size: 0x8, addend: 0x0, symName: '__ZN9hashbrown3raw21RawTable$LT$T$C$A$GT$14reserve_rehash28_$u7b$$u7b$closure$u7d$$u7d$17h776e13f3cf0cfcd8E', symObjAddr: 0x5B60, symBinAddr: 0x5BAC, symSize: 0xC8 }
  - { offset: 0xEF72, size: 0x8, addend: 0x0, symName: '__ZN9hashbrown3raw21RawTable$LT$T$C$A$GT$14reserve_rehash28_$u7b$$u7b$closure$u7d$$u7d$17h7a619992ac923f47E', symObjAddr: 0x5C28, symBinAddr: 0x5C74, symSize: 0x30 }
  - { offset: 0xEFC2, size: 0x8, addend: 0x0, symName: '__ZN9hashbrown3raw21RawTable$LT$T$C$A$GT$14reserve_rehash28_$u7b$$u7b$closure$u7d$$u7d$17h815ec1144fd5ae5fE', symObjAddr: 0x5C58, symBinAddr: 0x5CA4, symSize: 0x30 }
  - { offset: 0xF012, size: 0x8, addend: 0x0, symName: '__ZN9hashbrown3raw21RawTable$LT$T$C$A$GT$14reserve_rehash28_$u7b$$u7b$closure$u7d$$u7d$17h88ae581f99b868e2E', symObjAddr: 0x5C88, symBinAddr: 0x5CD4, symSize: 0x30 }
  - { offset: 0xF062, size: 0x8, addend: 0x0, symName: '__ZN9hashbrown3raw21RawTable$LT$T$C$A$GT$14reserve_rehash28_$u7b$$u7b$closure$u7d$$u7d$17hb744b03983b75d51E', symObjAddr: 0x5CB8, symBinAddr: 0x5D04, symSize: 0x30 }
  - { offset: 0xF0B2, size: 0x8, addend: 0x0, symName: '__ZN9hashbrown3raw21RawTable$LT$T$C$A$GT$14reserve_rehash28_$u7b$$u7b$closure$u7d$$u7d$17hc7b1ca39a7e88c62E', symObjAddr: 0x5CE8, symBinAddr: 0x5D34, symSize: 0xC8 }
  - { offset: 0xF26F, size: 0x8, addend: 0x0, symName: '__ZN9hashbrown3raw21RawTable$LT$T$C$A$GT$14reserve_rehash28_$u7b$$u7b$closure$u7d$$u7d$17he721e953449fbd0fE', symObjAddr: 0x5DB0, symBinAddr: 0x5DFC, symSize: 0xC8 }
  - { offset: 0xF455, size: 0x8, addend: 0x0, symName: '__ZN9hashbrown3raw21RawTable$LT$T$C$A$GT$24find_or_find_insert_slot28_$u7b$$u7b$closure$u7d$$u7d$17h17c307dd748eb703E', symObjAddr: 0x6C78, symBinAddr: 0x6CC4, symSize: 0xCC }
  - { offset: 0xF622, size: 0x8, addend: 0x0, symName: '__ZN9hashbrown3raw21RawTable$LT$T$C$A$GT$24find_or_find_insert_slot28_$u7b$$u7b$closure$u7d$$u7d$17h6b935592c4dd2849E', symObjAddr: 0x6D44, symBinAddr: 0x6D90, symSize: 0xCC }
  - { offset: 0xF7EF, size: 0x8, addend: 0x0, symName: '__ZN9hashbrown3raw21RawTable$LT$T$C$A$GT$24find_or_find_insert_slot28_$u7b$$u7b$closure$u7d$$u7d$17h7fac9b29913a89a6E', symObjAddr: 0x6E10, symBinAddr: 0x6E5C, symSize: 0xCC }
  - { offset: 0xF9BC, size: 0x8, addend: 0x0, symName: '__ZN9hashbrown3raw21RawTable$LT$T$C$A$GT$24find_or_find_insert_slot28_$u7b$$u7b$closure$u7d$$u7d$17hb18ff8dd20fda59bE', symObjAddr: 0x6EDC, symBinAddr: 0x6F28, symSize: 0xCC }
  - { offset: 0xFB8F, size: 0x8, addend: 0x0, symName: '__ZN9hashbrown3raw21RawTable$LT$T$C$A$GT$4find28_$u7b$$u7b$closure$u7d$$u7d$17h35a5c68eeccb1b00E', symObjAddr: 0x907C, symBinAddr: 0x90C8, symSize: 0x50 }
  - { offset: 0xFBFE, size: 0x8, addend: 0x0, symName: '__ZN9hashbrown3raw21RawTable$LT$T$C$A$GT$4find28_$u7b$$u7b$closure$u7d$$u7d$17h5d07e0031b8ef660E', symObjAddr: 0x90CC, symBinAddr: 0x9118, symSize: 0x50 }
  - { offset: 0xFC6D, size: 0x8, addend: 0x0, symName: '__ZN9hashbrown3raw21RawTable$LT$T$C$A$GT$4find28_$u7b$$u7b$closure$u7d$$u7d$17h5deb8d6de8841147E', symObjAddr: 0x911C, symBinAddr: 0x9168, symSize: 0xCC }
  - { offset: 0xFE31, size: 0x8, addend: 0x0, symName: '__ZN9hashbrown3raw21RawTable$LT$T$C$A$GT$4find28_$u7b$$u7b$closure$u7d$$u7d$17h64be3f15b47a795cE', symObjAddr: 0x91E8, symBinAddr: 0x9234, symSize: 0xCC }
  - { offset: 0xFFF5, size: 0x8, addend: 0x0, symName: '__ZN9hashbrown3raw21RawTable$LT$T$C$A$GT$4find28_$u7b$$u7b$closure$u7d$$u7d$17h9d8c9d2128862bffE', symObjAddr: 0x92B4, symBinAddr: 0x9300, symSize: 0xCC }
  - { offset: 0x101B9, size: 0x8, addend: 0x0, symName: '__ZN9hashbrown3raw21RawTable$LT$T$C$A$GT$4find28_$u7b$$u7b$closure$u7d$$u7d$17hb7e7f3817e6ccf4eE', symObjAddr: 0x9380, symBinAddr: 0x93CC, symSize: 0xCC }
  - { offset: 0x1037D, size: 0x8, addend: 0x0, symName: '__ZN9hashbrown3raw21RawTable$LT$T$C$A$GT$4find28_$u7b$$u7b$closure$u7d$$u7d$17hcdd317265ec2be0fE', symObjAddr: 0x944C, symBinAddr: 0x9498, symSize: 0xCC }
  - { offset: 0x10541, size: 0x8, addend: 0x0, symName: '__ZN9hashbrown3raw21RawTable$LT$T$C$A$GT$4find28_$u7b$$u7b$closure$u7d$$u7d$17hd0cddadb2bb852d4E', symObjAddr: 0x9518, symBinAddr: 0x9564, symSize: 0xCC }
  - { offset: 0x10705, size: 0x8, addend: 0x0, symName: '__ZN9hashbrown3raw21RawTable$LT$T$C$A$GT$4find28_$u7b$$u7b$closure$u7d$$u7d$17hf5db0d51d2586d75E', symObjAddr: 0x95E4, symBinAddr: 0x9630, symSize: 0xCC }
  - { offset: 0x108C9, size: 0x8, addend: 0x0, symName: '__ZN9hashbrown3raw21RawTable$LT$T$C$A$GT$4find28_$u7b$$u7b$closure$u7d$$u7d$17hf94e780650d2c3a0E', symObjAddr: 0x96B0, symBinAddr: 0x96FC, symSize: 0x50 }
  - { offset: 0x11E28, size: 0x8, addend: 0x0, symName: '__ZN76_$LT$hashbrown..raw..RawTable$LT$T$C$A$GT$$u20$as$u20$core..clone..Clone$GT$5clone17hed7071004653c006E', symObjAddr: 0x0, symBinAddr: 0x3140, symSize: 0x124 }
  - { offset: 0x11EFD, size: 0x8, addend: 0x0, symName: '__ZN87_$LT$hashbrown..raw..RawTable$LT$T$C$A$GT$$u20$as$u20$hashbrown..raw..RawTableClone$GT$15clone_from_spec17h20f7384f0d2c232eE', symObjAddr: 0x124, symBinAddr: 0x3264, symSize: 0x2C }
  - { offset: 0x122F4, size: 0x8, addend: 0x0, symName: '__ZN99_$LT$hashbrown..raw..RawIntoIter$LT$T$C$A$GT$$u20$as$u20$core..iter..traits..iterator..Iterator$GT$4next17hd96a2f473815748bE', symObjAddr: 0x150, symBinAddr: 0x3290, symSize: 0x114 }
  - { offset: 0x12483, size: 0x8, addend: 0x0, symName: '__ZN99_$LT$hashbrown..raw..RawTable$LT$T$C$A$GT$$u20$as$u20$core..iter..traits..collect..IntoIterator$GT$9into_iter17h11dcb075ead2a683E', symObjAddr: 0x264, symBinAddr: 0x33A4, symSize: 0x11C }
  - { offset: 0x12604, size: 0x8, addend: 0x0, symName: __ZN9hashbrown3raw11offset_from17hce09257786719724E, symObjAddr: 0x380, symBinAddr: 0x34C0, symSize: 0x2C }
  - { offset: 0x12F69, size: 0x8, addend: 0x0, symName: '__ZN9hashbrown3raw21RawTable$LT$T$C$A$GT$15clone_from_impl28_$u7b$$u7b$closure$u7d$$u7d$17hb21450ca775e121cE', symObjAddr: 0x6218, symBinAddr: 0x6264, symSize: 0x198 }
  - { offset: 0x18A0C, size: 0x8, addend: 0x0, symName: __ZN9hashbrown3raw13RawTableInner13drop_elements17h044bc6dcd89a7046E, symObjAddr: 0x3AC, symBinAddr: 0x34EC, symSize: 0x178 }
  - { offset: 0x18D30, size: 0x8, addend: 0x0, symName: __ZN9hashbrown3raw13RawTableInner13drop_elements17h3233946914779daeE, symObjAddr: 0x524, symBinAddr: 0x3664, symSize: 0x178 }
  - { offset: 0x19017, size: 0x8, addend: 0x0, symName: __ZN9hashbrown3raw13RawTableInner13drop_elements17h49f75391296b5bb8E, symObjAddr: 0x69C, symBinAddr: 0x37DC, symSize: 0x28 }
  - { offset: 0x1926E, size: 0x8, addend: 0x0, symName: __ZN9hashbrown3raw13RawTableInner13drop_elements17hbeb0b106c3dbf5abE, symObjAddr: 0x6C4, symBinAddr: 0x3804, symSize: 0x178 }
  - { offset: 0x195C6, size: 0x8, addend: 0x0, symName: __ZN9hashbrown3raw13RawTableInner13drop_elements17hd8582f59e26e2e7cE, symObjAddr: 0x83C, symBinAddr: 0x397C, symSize: 0x178 }
  - { offset: 0x1991E, size: 0x8, addend: 0x0, symName: __ZN9hashbrown3raw13RawTableInner13drop_elements17hf7292a57e6481ce8E, symObjAddr: 0x9B4, symBinAddr: 0x3AF4, symSize: 0x178 }
  - { offset: 0x19DE3, size: 0x8, addend: 0x0, symName: __ZN9hashbrown3raw13RawTableInner16drop_inner_table17h2e83035f4ebcd7e7E, symObjAddr: 0xB2C, symBinAddr: 0x3C6C, symSize: 0xBC }
  - { offset: 0x1A086, size: 0x8, addend: 0x0, symName: __ZN9hashbrown3raw13RawTableInner16drop_inner_table17h8d953121996fd2bcE, symObjAddr: 0xBE8, symBinAddr: 0x3D28, symSize: 0xBC }
  - { offset: 0x1A329, size: 0x8, addend: 0x0, symName: __ZN9hashbrown3raw13RawTableInner16drop_inner_table17h93c6df15db546e54E, symObjAddr: 0xCA4, symBinAddr: 0x3DE4, symSize: 0xBC }
  - { offset: 0x1A5CC, size: 0x8, addend: 0x0, symName: __ZN9hashbrown3raw13RawTableInner16drop_inner_table17ha225b0f65f7006b2E, symObjAddr: 0xD60, symBinAddr: 0x3EA0, symSize: 0xBC }
  - { offset: 0x1A86F, size: 0x8, addend: 0x0, symName: __ZN9hashbrown3raw13RawTableInner16drop_inner_table17he5d1e0a86c533a71E, symObjAddr: 0xE1C, symBinAddr: 0x3F5C, symSize: 0xBC }
  - { offset: 0x1AB12, size: 0x8, addend: 0x0, symName: __ZN9hashbrown3raw13RawTableInner16drop_inner_table17hf32ab268770b3c31E, symObjAddr: 0xED8, symBinAddr: 0x4018, symSize: 0xBC }
  - { offset: 0x1ACC5, size: 0x8, addend: 0x0, symName: '__ZN9hashbrown3raw15Bucket$LT$T$GT$13to_base_index17h6719a65ba32c127dE', symObjAddr: 0xF94, symBinAddr: 0x40D4, symSize: 0x54 }
  - { offset: 0x1AD0D, size: 0x8, addend: 0x0, symName: '__ZN9hashbrown3raw15Bucket$LT$T$GT$4read17heef4f736a4b500aaE', symObjAddr: 0xFE8, symBinAddr: 0x4128, symSize: 0x30 }
  - { offset: 0x1ADCD, size: 0x8, addend: 0x0, symName: '__ZN9hashbrown3raw16RawIter$LT$T$GT$13drop_elements17h079a8528d7717cc4E', symObjAddr: 0x1018, symBinAddr: 0x4158, symSize: 0xFC }
  - { offset: 0x1AF63, size: 0x8, addend: 0x0, symName: '__ZN9hashbrown3raw21RawIterRange$LT$T$GT$3new17h0952a15dc7e3165cE', symObjAddr: 0x1114, symBinAddr: 0x4254, symSize: 0xC8 }
  - { offset: 0x1B204, size: 0x8, addend: 0x0, symName: '__ZN9hashbrown3raw21RawIterRange$LT$T$GT$3new17h0a19d37808d96863E', symObjAddr: 0x11DC, symBinAddr: 0x431C, symSize: 0xC8 }
  - { offset: 0x1B4A5, size: 0x8, addend: 0x0, symName: '__ZN9hashbrown3raw21RawIterRange$LT$T$GT$3new17h397cdced13ea4c12E', symObjAddr: 0x12A4, symBinAddr: 0x43E4, symSize: 0xC8 }
  - { offset: 0x1B746, size: 0x8, addend: 0x0, symName: '__ZN9hashbrown3raw21RawIterRange$LT$T$GT$3new17h4fcd6cb065f370f8E', symObjAddr: 0x136C, symBinAddr: 0x44AC, symSize: 0xC8 }
  - { offset: 0x1B9E7, size: 0x8, addend: 0x0, symName: '__ZN9hashbrown3raw21RawIterRange$LT$T$GT$3new17h8c4326b96515379fE', symObjAddr: 0x1434, symBinAddr: 0x4574, symSize: 0xC8 }
  - { offset: 0x1BD94, size: 0x8, addend: 0x0, symName: '__ZN9hashbrown3raw21RawIterRange$LT$T$GT$9next_impl17h0498efdb6823d099E', symObjAddr: 0x14FC, symBinAddr: 0x463C, symSize: 0x1F0 }
  - { offset: 0x1C216, size: 0x8, addend: 0x0, symName: '__ZN9hashbrown3raw21RawIterRange$LT$T$GT$9next_impl17h2540815e5192a34dE', symObjAddr: 0x16EC, symBinAddr: 0x482C, symSize: 0x1F0 }
  - { offset: 0x1C698, size: 0x8, addend: 0x0, symName: '__ZN9hashbrown3raw21RawIterRange$LT$T$GT$9next_impl17h2cfcab36d1460efeE', symObjAddr: 0x18DC, symBinAddr: 0x4A1C, symSize: 0x1F0 }
  - { offset: 0x1CB1A, size: 0x8, addend: 0x0, symName: '__ZN9hashbrown3raw21RawIterRange$LT$T$GT$9next_impl17h613631ad9122e57aE', symObjAddr: 0x1ACC, symBinAddr: 0x4C0C, symSize: 0x1F0 }
  - { offset: 0x1CF9C, size: 0x8, addend: 0x0, symName: '__ZN9hashbrown3raw21RawIterRange$LT$T$GT$9next_impl17hfc60f72e5f01d325E', symObjAddr: 0x1CBC, symBinAddr: 0x4DFC, symSize: 0x1F0 }
  - { offset: 0x1D2D2, size: 0x8, addend: 0x0, symName: '__ZN9hashbrown3raw21RawTable$LT$T$C$A$GT$12bucket_index17h6b730461219ccb08E', symObjAddr: 0x1EAC, symBinAddr: 0x4FEC, symSize: 0x38 }
  - { offset: 0x1D34C, size: 0x8, addend: 0x0, symName: '__ZN9hashbrown3raw21RawTable$LT$T$C$A$GT$13remove_tagged17h68c17435f93cf867E', symObjAddr: 0x1EE4, symBinAddr: 0x5024, symSize: 0x90 }
  - { offset: 0x1D5BB, size: 0x8, addend: 0x0, symName: '__ZN9hashbrown3raw21RawTable$LT$T$C$A$GT$14insert_in_slot17h15a0c53920a467adE', symObjAddr: 0x1F74, symBinAddr: 0x50B4, symSize: 0x148 }
  - { offset: 0x1DB06, size: 0x8, addend: 0x0, symName: '__ZN9hashbrown3raw21RawTable$LT$T$C$A$GT$14insert_in_slot17h7b6767b53522a0deE', symObjAddr: 0x20BC, symBinAddr: 0x51FC, symSize: 0x138 }
  - { offset: 0x1E06F, size: 0x8, addend: 0x0, symName: '__ZN9hashbrown3raw21RawTable$LT$T$C$A$GT$14insert_in_slot17hafa3ab188abae219E', symObjAddr: 0x21F4, symBinAddr: 0x5334, symSize: 0x140 }
  - { offset: 0x1E5CD, size: 0x8, addend: 0x0, symName: '__ZN9hashbrown3raw21RawTable$LT$T$C$A$GT$14insert_in_slot17hf9e6612e21bfd024E', symObjAddr: 0x2334, symBinAddr: 0x5474, symSize: 0x148 }
  - { offset: 0x1EA90, size: 0x8, addend: 0x0, symName: '__ZN9hashbrown3raw21RawTable$LT$T$C$A$GT$14insert_no_grow17h63a17662be0e8447E', symObjAddr: 0x247C, symBinAddr: 0x55BC, symSize: 0x16C }
  - { offset: 0x1EE42, size: 0x8, addend: 0x0, symName: '__ZN9hashbrown3raw21RawTable$LT$T$C$A$GT$14insert_no_grow17he6f4efc6f6508f14E', symObjAddr: 0x25E8, symBinAddr: 0x5728, symSize: 0x16C }
  - { offset: 0x1F0C1, size: 0x8, addend: 0x0, symName: '__ZN9hashbrown3raw21RawTable$LT$T$C$A$GT$14into_iter_from17hf23855b92968bb54E', symObjAddr: 0x2754, symBinAddr: 0x5894, symSize: 0x90 }
  - { offset: 0x1F5BA, size: 0x8, addend: 0x0, symName: '__ZN9hashbrown3raw21RawTable$LT$T$C$A$GT$14reserve_rehash17h66cac151c8fb7186E', symObjAddr: 0x27E4, symBinAddr: 0x217E20, symSize: 0x828 }
  - { offset: 0x1FEA3, size: 0x8, addend: 0x0, symName: '__ZN9hashbrown3raw21RawTable$LT$T$C$A$GT$14reserve_rehash17hac9f5578f98f0003E', symObjAddr: 0x300C, symBinAddr: 0x218648, symSize: 0x828 }
  - { offset: 0x2078C, size: 0x8, addend: 0x0, symName: '__ZN9hashbrown3raw21RawTable$LT$T$C$A$GT$14reserve_rehash17hae7b54e365d377efE', symObjAddr: 0x3834, symBinAddr: 0x218E70, symSize: 0x838 }
  - { offset: 0x21075, size: 0x8, addend: 0x0, symName: '__ZN9hashbrown3raw21RawTable$LT$T$C$A$GT$14reserve_rehash17hb4a8e68f65d3b31aE', symObjAddr: 0x406C, symBinAddr: 0x2196A8, symSize: 0x828 }
  - { offset: 0x2195E, size: 0x8, addend: 0x0, symName: '__ZN9hashbrown3raw21RawTable$LT$T$C$A$GT$14reserve_rehash17hb7c93580b60ffe1dE', symObjAddr: 0x4894, symBinAddr: 0x219ED0, symSize: 0x828 }
  - { offset: 0x22247, size: 0x8, addend: 0x0, symName: '__ZN9hashbrown3raw21RawTable$LT$T$C$A$GT$14reserve_rehash17hf6dd7460e8d09709E', symObjAddr: 0x50BC, symBinAddr: 0x21A6F8, symSize: 0x81C }
  - { offset: 0x23546, size: 0x8, addend: 0x0, symName: '__ZN9hashbrown3raw21RawTable$LT$T$C$A$GT$15clone_from_impl17ha68f3a11ebad5032E', symObjAddr: 0x5E78, symBinAddr: 0x5EC4, symSize: 0x3A0 }
  - { offset: 0x23D52, size: 0x8, addend: 0x0, symName: '__ZN9hashbrown3raw21RawTable$LT$T$C$A$GT$15into_allocation17h6cc00ff1ef2ea0b3E', symObjAddr: 0x63B0, symBinAddr: 0x63FC, symSize: 0x13C }
  - { offset: 0x23E9D, size: 0x8, addend: 0x0, symName: '__ZN9hashbrown3raw21RawTable$LT$T$C$A$GT$16with_capacity_in17h4d7394b105de458bE', symObjAddr: 0x64EC, symBinAddr: 0x6538, symSize: 0x98 }
  - { offset: 0x23F4B, size: 0x8, addend: 0x0, symName: '__ZN9hashbrown3raw21RawTable$LT$T$C$A$GT$16with_capacity_in17ha9b82206c1bafa88E', symObjAddr: 0x6584, symBinAddr: 0x65D0, symSize: 0x98 }
  - { offset: 0x23FB5, size: 0x8, addend: 0x0, symName: '__ZN9hashbrown3raw21RawTable$LT$T$C$A$GT$17new_uninitialized17hac5763410b14c28dE', symObjAddr: 0x661C, symBinAddr: 0x6668, symSize: 0x15C }
  - { offset: 0x24190, size: 0x8, addend: 0x0, symName: '__ZN9hashbrown3raw21RawTable$LT$T$C$A$GT$24find_or_find_insert_slot17h1554052373187e54E', symObjAddr: 0x6778, symBinAddr: 0x67C4, symSize: 0x140 }
  - { offset: 0x24412, size: 0x8, addend: 0x0, symName: '__ZN9hashbrown3raw21RawTable$LT$T$C$A$GT$24find_or_find_insert_slot17h18db75183ed776afE', symObjAddr: 0x68B8, symBinAddr: 0x6904, symSize: 0x140 }
  - { offset: 0x24694, size: 0x8, addend: 0x0, symName: '__ZN9hashbrown3raw21RawTable$LT$T$C$A$GT$24find_or_find_insert_slot17h59bfe4237cb7dafcE', symObjAddr: 0x69F8, symBinAddr: 0x6A44, symSize: 0x140 }
  - { offset: 0x24916, size: 0x8, addend: 0x0, symName: '__ZN9hashbrown3raw21RawTable$LT$T$C$A$GT$24find_or_find_insert_slot17he7fe7f730415593eE', symObjAddr: 0x6B38, symBinAddr: 0x6B84, symSize: 0x140 }
  - { offset: 0x24FAB, size: 0x8, addend: 0x0, symName: '__ZN9hashbrown3raw21RawTable$LT$T$C$A$GT$3get17h1d3bcf93a0302a06E', symObjAddr: 0x6FA8, symBinAddr: 0x6FF4, symSize: 0x64 }
  - { offset: 0x25026, size: 0x8, addend: 0x0, symName: '__ZN9hashbrown3raw21RawTable$LT$T$C$A$GT$3get17h9bc8a2fab9b3fe1eE', symObjAddr: 0x700C, symBinAddr: 0x7058, symSize: 0x64 }
  - { offset: 0x2538E, size: 0x8, addend: 0x0, symName: '__ZN9hashbrown3raw21RawTable$LT$T$C$A$GT$4find17h041825069fd2d8b5E', symObjAddr: 0x7070, symBinAddr: 0x70BC, symSize: 0x330 }
  - { offset: 0x25884, size: 0x8, addend: 0x0, symName: '__ZN9hashbrown3raw21RawTable$LT$T$C$A$GT$4find17h11a99df3a5eb589fE', symObjAddr: 0x73A0, symBinAddr: 0x73EC, symSize: 0x338 }
  - { offset: 0x25A15, size: 0x8, addend: 0x0, symName: '__ZN9hashbrown3raw21RawTable$LT$T$C$A$GT$4find17h130ea22c4fde4fb8E', symObjAddr: 0x76D8, symBinAddr: 0x7724, symSize: 0x340 }
  - { offset: 0x25C93, size: 0x8, addend: 0x0, symName: '__ZN9hashbrown3raw21RawTable$LT$T$C$A$GT$4find17h314277facce5aaf3E', symObjAddr: 0x7A18, symBinAddr: 0x7A64, symSize: 0x330 }
  - { offset: 0x261E4, size: 0x8, addend: 0x0, symName: '__ZN9hashbrown3raw21RawTable$LT$T$C$A$GT$4find17h75a1d68af8099178E', symObjAddr: 0x7D48, symBinAddr: 0x7D94, symSize: 0x334 }
  - { offset: 0x26648, size: 0x8, addend: 0x0, symName: '__ZN9hashbrown3raw21RawTable$LT$T$C$A$GT$4find17h85e722c92aca137eE', symObjAddr: 0x807C, symBinAddr: 0x80C8, symSize: 0x338 }
  - { offset: 0x268C6, size: 0x8, addend: 0x0, symName: '__ZN9hashbrown3raw21RawTable$LT$T$C$A$GT$4find17h8c6497313ff7931aE', symObjAddr: 0x83B4, symBinAddr: 0x8400, symSize: 0x330 }
  - { offset: 0x26E17, size: 0x8, addend: 0x0, symName: '__ZN9hashbrown3raw21RawTable$LT$T$C$A$GT$4find17h8f4721442019d8ceE', symObjAddr: 0x86E4, symBinAddr: 0x8730, symSize: 0x330 }
  - { offset: 0x27368, size: 0x8, addend: 0x0, symName: '__ZN9hashbrown3raw21RawTable$LT$T$C$A$GT$4find17hbd13aa42c1eb16ddE', symObjAddr: 0x8A14, symBinAddr: 0x8A60, symSize: 0x334 }
  - { offset: 0x278B9, size: 0x8, addend: 0x0, symName: '__ZN9hashbrown3raw21RawTable$LT$T$C$A$GT$4find17hf7d518cb5f2812f6E', symObjAddr: 0x8D48, symBinAddr: 0x8D94, symSize: 0x334 }
  - { offset: 0x28634, size: 0x8, addend: 0x0, symName: '__ZN9hashbrown3raw21RawTable$LT$T$C$A$GT$7reserve17h40d35f1e084fe4a8E', symObjAddr: 0x9700, symBinAddr: 0x974C, symSize: 0xCC }
  - { offset: 0x28749, size: 0x8, addend: 0x0, symName: '__ZN9hashbrown3raw21RawTable$LT$T$C$A$GT$7reserve17h4529f4d4e7faa47aE', symObjAddr: 0x97CC, symBinAddr: 0x9818, symSize: 0xCC }
  - { offset: 0x2885E, size: 0x8, addend: 0x0, symName: '__ZN9hashbrown3raw21RawTable$LT$T$C$A$GT$7reserve17h71ed05925aa2d2eeE', symObjAddr: 0x9898, symBinAddr: 0x98E4, symSize: 0xCC }
  - { offset: 0x28973, size: 0x8, addend: 0x0, symName: '__ZN9hashbrown3raw21RawTable$LT$T$C$A$GT$7reserve17ha78e0585e7d688ddE', symObjAddr: 0x9964, symBinAddr: 0x99B0, symSize: 0xCC }
  - { offset: 0x28A88, size: 0x8, addend: 0x0, symName: '__ZN9hashbrown3raw21RawTable$LT$T$C$A$GT$7reserve17hc1c75851134ec5c3E', symObjAddr: 0x9A30, symBinAddr: 0x9A7C, symSize: 0xCC }
  - { offset: 0x28B9D, size: 0x8, addend: 0x0, symName: '__ZN9hashbrown3raw21RawTable$LT$T$C$A$GT$7reserve17he55d373cf71466b5E', symObjAddr: 0x9AFC, symBinAddr: 0x9B48, symSize: 0xCC }
  - { offset: 0x28D08, size: 0x8, addend: 0x0, symName: __ZN3zip4spec14FixedSizeBlock5parse17h0ec184e58d46788cE, symObjAddr: 0x0, symBinAddr: 0x9C14, symSize: 0x334 }
  - { offset: 0x29474, size: 0x8, addend: 0x0, symName: '__ZN50_$LT$T$u20$as$u20$core..convert..Into$LT$U$GT$$GT$4into17h78510e4e2f24a88dE', symObjAddr: 0x815C, symBinAddr: 0x11D70, symSize: 0x14 }
  - { offset: 0x294B5, size: 0x8, addend: 0x0, symName: '__ZN50_$LT$T$u20$as$u20$core..convert..Into$LT$U$GT$$GT$4into17h93f6854ef24b7e6aE', symObjAddr: 0x8170, symBinAddr: 0x11D84, symSize: 0x14 }
  - { offset: 0x2A38A, size: 0x8, addend: 0x0, symName: __ZN4core3cmp9PartialEq2ne17h24e288e7441768d3E, symObjAddr: 0x812C, symBinAddr: 0x11D40, symSize: 0x30 }
  - { offset: 0x2A718, size: 0x8, addend: 0x0, symName: __ZN3zip4spec14FixedSizeBlock5parse17h0ec184e58d46788cE, symObjAddr: 0x0, symBinAddr: 0x9C14, symSize: 0x334 }
  - { offset: 0x2A837, size: 0x8, addend: 0x0, symName: __ZN3zip4spec14FixedSizeBlock5parse17h21d1946926bd059bE, symObjAddr: 0x334, symBinAddr: 0x9F48, symSize: 0x334 }
  - { offset: 0x2A956, size: 0x8, addend: 0x0, symName: __ZN3zip4spec14FixedSizeBlock5parse17h3ecc10314cc9a771E, symObjAddr: 0x668, symBinAddr: 0xA27C, symSize: 0x3B4 }
  - { offset: 0x2AA75, size: 0x8, addend: 0x0, symName: __ZN3zip4spec14FixedSizeBlock5parse17h424a832494ea5273E, symObjAddr: 0xA1C, symBinAddr: 0xA630, symSize: 0x2C4 }
  - { offset: 0x2AB93, size: 0x8, addend: 0x0, symName: __ZN3zip4spec14FixedSizeBlock5parse17h5ad73af28aa74c17E, symObjAddr: 0xCE0, symBinAddr: 0xA8F4, symSize: 0x324 }
  - { offset: 0x2ACB1, size: 0x8, addend: 0x0, symName: __ZN3zip4spec14FixedSizeBlock5parse17h790a5de67ba7d265E, symObjAddr: 0x1004, symBinAddr: 0xAC18, symSize: 0x2C4 }
  - { offset: 0x2ADCF, size: 0x8, addend: 0x0, symName: __ZN3zip4spec14FixedSizeBlock5parse17ha96fc5900f2faf6dE, symObjAddr: 0x12C8, symBinAddr: 0xAEDC, symSize: 0x358 }
  - { offset: 0x2AEEE, size: 0x8, addend: 0x0, symName: __ZN3zip4spec14FixedSizeBlock5parse17hc1979dea05fec6ccE, symObjAddr: 0x1620, symBinAddr: 0xB234, symSize: 0x324 }
  - { offset: 0x2B00C, size: 0x8, addend: 0x0, symName: __ZN3zip4spec14FixedSizeBlock5parse17hcc6e5943414b3c93E, symObjAddr: 0x1944, symBinAddr: 0xB558, symSize: 0x358 }
  - { offset: 0x2B12B, size: 0x8, addend: 0x0, symName: __ZN3zip4spec14FixedSizeBlock5parse17hd711136c76fb00adE, symObjAddr: 0x1C9C, symBinAddr: 0xB8B0, symSize: 0x3B4 }
  - { offset: 0x2B24A, size: 0x8, addend: 0x0, symName: __ZN3zip4spec14FixedSizeBlock5write17h0c072de1969139b5E, symObjAddr: 0x2050, symBinAddr: 0xBC64, symSize: 0xF0 }
  - { offset: 0x2B2F2, size: 0x8, addend: 0x0, symName: __ZN3zip4spec14FixedSizeBlock5write17h18303adfbc07724cE, symObjAddr: 0x2140, symBinAddr: 0xBD54, symSize: 0xD0 }
  - { offset: 0x2B399, size: 0x8, addend: 0x0, symName: __ZN3zip4spec14FixedSizeBlock5write17h1eaaa45f63c10671E, symObjAddr: 0x2210, symBinAddr: 0xBE24, symSize: 0xE8 }
  - { offset: 0x2B440, size: 0x8, addend: 0x0, symName: __ZN3zip4spec14FixedSizeBlock5write17h1f1f7002f1aa7eadE, symObjAddr: 0x22F8, symBinAddr: 0xBF0C, symSize: 0xC8 }
  - { offset: 0x2B4E6, size: 0x8, addend: 0x0, symName: __ZN3zip4spec14FixedSizeBlock5write17h392fd2ad5b096ad9E, symObjAddr: 0x23C0, symBinAddr: 0xBFD4, symSize: 0xE8 }
  - { offset: 0x2B58D, size: 0x8, addend: 0x0, symName: __ZN3zip4spec14FixedSizeBlock5write17h5abd4dbd19e1f1feE, symObjAddr: 0x24A8, symBinAddr: 0xC0BC, symSize: 0xC8 }
  - { offset: 0x2B633, size: 0x8, addend: 0x0, symName: __ZN3zip4spec14FixedSizeBlock5write17h6273739d154a0217E, symObjAddr: 0x2570, symBinAddr: 0xC184, symSize: 0xD0 }
  - { offset: 0x2B6DA, size: 0x8, addend: 0x0, symName: __ZN3zip4spec14FixedSizeBlock5write17h6d4dc989667446d2E, symObjAddr: 0x2640, symBinAddr: 0xC254, symSize: 0xD0 }
  - { offset: 0x2B781, size: 0x8, addend: 0x0, symName: __ZN3zip4spec14FixedSizeBlock5write17h7203f9dcee04324bE, symObjAddr: 0x2710, symBinAddr: 0xC324, symSize: 0xD0 }
  - { offset: 0x2B828, size: 0x8, addend: 0x0, symName: __ZN3zip4spec14FixedSizeBlock5write17h7808d6d2d1011a7bE, symObjAddr: 0x27E0, symBinAddr: 0xC3F4, symSize: 0xF0 }
  - { offset: 0x2B8D0, size: 0x8, addend: 0x0, symName: __ZN3zip4spec14FixedSizeBlock5write17h962fc2e64679e37dE, symObjAddr: 0x28D0, symBinAddr: 0xC4E4, symSize: 0xC8 }
  - { offset: 0x2B976, size: 0x8, addend: 0x0, symName: __ZN3zip4spec14FixedSizeBlock5write17h9c3ee97f35b3d244E, symObjAddr: 0x2998, symBinAddr: 0xC5AC, symSize: 0xD0 }
  - { offset: 0x2BA1D, size: 0x8, addend: 0x0, symName: __ZN3zip4spec14FixedSizeBlock5write17hd66450e401753e90E, symObjAddr: 0x2A68, symBinAddr: 0xC67C, symSize: 0xD0 }
  - { offset: 0x2BAC4, size: 0x8, addend: 0x0, symName: __ZN3zip4spec14FixedSizeBlock5write17hfec4515d458a479dE, symObjAddr: 0x2B38, symBinAddr: 0xC74C, symSize: 0xC8 }
  - { offset: 0x2BE4C, size: 0x8, addend: 0x0, symName: __ZN3zip4spec22find_central_directory15try_read_eocd6417h6bc010a0268c9945E, symObjAddr: 0x2C00, symBinAddr: 0xC814, symSize: 0x214 }
  - { offset: 0x2BEF6, size: 0x8, addend: 0x0, symName: __ZN3zip4spec22find_central_directory15try_read_eocd6417h8e1bba0aa9519611E, symObjAddr: 0x2E14, symBinAddr: 0xCA28, symSize: 0x214 }
  - { offset: 0x2BFA0, size: 0x8, addend: 0x0, symName: __ZN3zip4spec22find_central_directory23try_read_eocd64_locator17h5e68bc981a81b64aE, symObjAddr: 0x57A8, symBinAddr: 0xF3BC, symSize: 0x1E8 }
  - { offset: 0x2C058, size: 0x8, addend: 0x0, symName: __ZN3zip4spec22find_central_directory23try_read_eocd64_locator17h64795dc88e2d28f1E, symObjAddr: 0x5990, symBinAddr: 0xF5A4, symSize: 0x1E8 }
  - { offset: 0x2C126, size: 0x8, addend: 0x0, symName: __ZN3zip4spec22find_central_directory17h93f271943332a64dE, symObjAddr: 0x3028, symBinAddr: 0xCC3C, symSize: 0x13C0 }
  - { offset: 0x2C4DC, size: 0x8, addend: 0x0, symName: __ZN3zip4spec22find_central_directory17hd824dca9e153281cE, symObjAddr: 0x43E8, symBinAddr: 0xDFFC, symSize: 0x13C0 }
  - { offset: 0x2CDD8, size: 0x8, addend: 0x0, symName: __ZN3zip4spec3Pod12as_bytes_mut17h0a9f56f354156b14E, symObjAddr: 0x7A80, symBinAddr: 0x11694, symSize: 0x44 }
  - { offset: 0x2CE0D, size: 0x8, addend: 0x0, symName: __ZN3zip4spec3Pod12as_bytes_mut17h3971b36631ea01c8E, symObjAddr: 0x7AC4, symBinAddr: 0x116D8, symSize: 0x44 }
  - { offset: 0x2CE42, size: 0x8, addend: 0x0, symName: __ZN3zip4spec3Pod12as_bytes_mut17h530cc10c447f76b7E, symObjAddr: 0x7B08, symBinAddr: 0x1171C, symSize: 0x44 }
  - { offset: 0x2CE77, size: 0x8, addend: 0x0, symName: __ZN3zip4spec3Pod12as_bytes_mut17h5c3dc84d3bb9f53bE, symObjAddr: 0x7B4C, symBinAddr: 0x11760, symSize: 0x44 }
  - { offset: 0x2CEAC, size: 0x8, addend: 0x0, symName: __ZN3zip4spec3Pod12as_bytes_mut17hef0379c397ff3b4eE, symObjAddr: 0x7B90, symBinAddr: 0x117A4, symSize: 0x44 }
  - { offset: 0x2CEE1, size: 0x8, addend: 0x0, symName: __ZN3zip4spec3Pod6zeroed17h614f044359fbde11E, symObjAddr: 0x7BD4, symBinAddr: 0x117E8, symSize: 0xB4 }
  - { offset: 0x2CFF0, size: 0x8, addend: 0x0, symName: __ZN3zip4spec3Pod6zeroed17h6a90eeddaebf1d94E, symObjAddr: 0x7C88, symBinAddr: 0x1189C, symSize: 0xA0 }
  - { offset: 0x2D0FF, size: 0x8, addend: 0x0, symName: __ZN3zip4spec3Pod6zeroed17hd438c7996fbe7e61E, symObjAddr: 0x7D28, symBinAddr: 0x1193C, symSize: 0xB8 }
  - { offset: 0x2D20F, size: 0x8, addend: 0x0, symName: __ZN3zip4spec3Pod6zeroed17hf3b0e5c9cb8fb44eE, symObjAddr: 0x7DE0, symBinAddr: 0x119F4, symSize: 0xC0 }
  - { offset: 0x2D31F, size: 0x8, addend: 0x0, symName: __ZN3zip4spec3Pod6zeroed17hf6515abcba9df651E, symObjAddr: 0x7EA0, symBinAddr: 0x11AB4, symSize: 0xB0 }
  - { offset: 0x2D42E, size: 0x8, addend: 0x0, symName: __ZN3zip4spec3Pod8as_bytes17h1517164ad961ef40E, symObjAddr: 0x7F50, symBinAddr: 0x11B64, symSize: 0x44 }
  - { offset: 0x2D463, size: 0x8, addend: 0x0, symName: __ZN3zip4spec3Pod8as_bytes17h2147a6b759512305E, symObjAddr: 0x7F94, symBinAddr: 0x11BA8, symSize: 0x44 }
  - { offset: 0x2D498, size: 0x8, addend: 0x0, symName: __ZN3zip4spec3Pod8as_bytes17h26ffadbdf16debaaE, symObjAddr: 0x7FD8, symBinAddr: 0x11BEC, symSize: 0x44 }
  - { offset: 0x2D4CD, size: 0x8, addend: 0x0, symName: __ZN3zip4spec3Pod8as_bytes17h5f2a5a6831cbcf13E, symObjAddr: 0x801C, symBinAddr: 0x11C30, symSize: 0x44 }
  - { offset: 0x2D502, size: 0x8, addend: 0x0, symName: __ZN3zip4spec3Pod8as_bytes17h9761b446da1f6070E, symObjAddr: 0x8060, symBinAddr: 0x11C74, symSize: 0x44 }
  - { offset: 0x2D537, size: 0x8, addend: 0x0, symName: __ZN3zip4spec3Pod8as_bytes17ha1c68d835f64e933E, symObjAddr: 0x80A4, symBinAddr: 0x11CB8, symSize: 0x44 }
  - { offset: 0x2D56C, size: 0x8, addend: 0x0, symName: __ZN3zip4spec3Pod8as_bytes17hf5e23c8b00af0466E, symObjAddr: 0x80E8, symBinAddr: 0x11CFC, symSize: 0x44 }
  - { offset: 0x2D5A7, size: 0x8, addend: 0x0, symName: '__ZN98_$LT$zip..spec..DataAndPosition$LT$T$GT$$u20$as$u20$core..convert..From$LT$$LP$T$C$u64$RP$$GT$$GT$4from17hc3c71ee0e119b380E', symObjAddr: 0x8184, symBinAddr: 0x11D98, symSize: 0x38 }
  - { offset: 0x2D5DE, size: 0x8, addend: 0x0, symName: '__ZN98_$LT$zip..spec..DataAndPosition$LT$T$GT$$u20$as$u20$core..convert..From$LT$$LP$T$C$u64$RP$$GT$$GT$4from17hee49f3160a9f2c37E', symObjAddr: 0x81BC, symBinAddr: 0x11DD0, symSize: 0x64 }
  - { offset: 0x2D8EA, size: 0x8, addend: 0x0, symName: '__ZN3zip4spec23BlockWithMagic$LT$T$GT$5to_le17h394f0d29414fa1b3E', symObjAddr: 0x5B78, symBinAddr: 0xF78C, symSize: 0xB4 }
  - { offset: 0x2D932, size: 0x8, addend: 0x0, symName: '__ZN3zip4spec23BlockWithMagic$LT$T$GT$5to_le17h5345043851765344E', symObjAddr: 0x5C2C, symBinAddr: 0xF840, symSize: 0x70 }
  - { offset: 0x2D97A, size: 0x8, addend: 0x0, symName: '__ZN3zip4spec23BlockWithMagic$LT$T$GT$5to_le17h71b21adff382e091E', symObjAddr: 0x5C9C, symBinAddr: 0xF8B0, symSize: 0x100 }
  - { offset: 0x2D9C4, size: 0x8, addend: 0x0, symName: '__ZN3zip4spec23BlockWithMagic$LT$T$GT$5to_le17ha2e628f142af01ebE', symObjAddr: 0x5D9C, symBinAddr: 0xF9B0, symSize: 0x148 }
  - { offset: 0x2DA0E, size: 0x8, addend: 0x0, symName: '__ZN3zip4spec23BlockWithMagic$LT$T$GT$5to_le17hb156b61fab3ceeaeE', symObjAddr: 0x5EE4, symBinAddr: 0xFAF8, symSize: 0xDC }
  - { offset: 0x2DA56, size: 0x8, addend: 0x0, symName: '__ZN3zip4spec23BlockWithMagic$LT$T$GT$5to_le17hd2eab188aeaa1e29E', symObjAddr: 0x5FC0, symBinAddr: 0xFBD4, symSize: 0x78 }
  - { offset: 0x2DA9E, size: 0x8, addend: 0x0, symName: '__ZN3zip4spec23BlockWithMagic$LT$T$GT$5to_le17hdde9b31be96deff6E', symObjAddr: 0x6038, symBinAddr: 0xFC4C, symSize: 0x88 }
  - { offset: 0x2DBBC, size: 0x8, addend: 0x0, symName: __ZN3zip4spec24Zip32CentralDirectoryEnd5parse17h24551091ea6cba5bE, symObjAddr: 0x60C0, symBinAddr: 0xFCD4, symSize: 0x304 }
  - { offset: 0x2DCD6, size: 0x8, addend: 0x0, symName: __ZN3zip4spec24Zip32CentralDirectoryEnd5parse17h8178ee076f516f2aE, symObjAddr: 0x63C4, symBinAddr: 0xFFD8, symSize: 0x304 }
  - { offset: 0x2DDC5, size: 0x8, addend: 0x0, symName: __ZN3zip4spec24Zip32CentralDirectoryEnd5write17h64db70a215b3f9cdE, symObjAddr: 0x66C8, symBinAddr: 0x102DC, symSize: 0x1C8 }
  - { offset: 0x2DE63, size: 0x8, addend: 0x0, symName: __ZN3zip4spec24Zip32CentralDirectoryEnd5write17hd2befd6e5c778438E, symObjAddr: 0x6890, symBinAddr: 0x104A4, symSize: 0x1C8 }
  - { offset: 0x2DEF4, size: 0x8, addend: 0x0, symName: __ZN3zip4spec24Zip64CentralDirectoryEnd5parse17h25957ce631918e5dE, symObjAddr: 0x6A58, symBinAddr: 0x1066C, symSize: 0x460 }
  - { offset: 0x2E061, size: 0x8, addend: 0x0, symName: __ZN3zip4spec24Zip64CentralDirectoryEnd5parse17h77d504220146cad9E, symObjAddr: 0x6EB8, symBinAddr: 0x10ACC, symSize: 0x460 }
  - { offset: 0x2E1CE, size: 0x8, addend: 0x0, symName: __ZN3zip4spec24Zip64CentralDirectoryEnd5write17h12db8206e0943132E, symObjAddr: 0x7318, symBinAddr: 0x10F2C, symSize: 0x2A4 }
  - { offset: 0x2E27F, size: 0x8, addend: 0x0, symName: __ZN3zip4spec24Zip64CentralDirectoryEnd5write17h8fa6cd684aea871aE, symObjAddr: 0x75BC, symBinAddr: 0x111D0, symSize: 0x2A4 }
  - { offset: 0x2E330, size: 0x8, addend: 0x0, symName: __ZN3zip4spec31Zip64CentralDirectoryEndLocator5parse17hb5aede5325be4d77E, symObjAddr: 0x7860, symBinAddr: 0x11474, symSize: 0xD0 }
  - { offset: 0x2E3B9, size: 0x8, addend: 0x0, symName: __ZN3zip4spec31Zip64CentralDirectoryEndLocator5parse17hcfe0aa18930b9d45E, symObjAddr: 0x7930, symBinAddr: 0x11544, symSize: 0xD0 }
  - { offset: 0x2E442, size: 0x8, addend: 0x0, symName: __ZN3zip4spec31Zip64CentralDirectoryEndLocator5write17h291dec8e015dd435E, symObjAddr: 0x7A00, symBinAddr: 0x11614, symSize: 0x40 }
  - { offset: 0x2E47E, size: 0x8, addend: 0x0, symName: __ZN3zip4spec31Zip64CentralDirectoryEndLocator5write17h5dfbcd59cd047a75E, symObjAddr: 0x7A40, symBinAddr: 0x11654, symSize: 0x40 }
  - { offset: 0x2EE87, size: 0x8, addend: 0x0, symName: '__ZN9hashbrown5table22HashTable$LT$T$C$A$GT$10find_entry17hcbbdb0f2eb46cf28E', symObjAddr: 0x0, symBinAddr: 0x11E34, symSize: 0x7C }
  - { offset: 0x2FAB8, size: 0x8, addend: 0x0, symName: '__ZN9hashbrown5table22HashTable$LT$T$C$A$GT$10find_entry17hcbbdb0f2eb46cf28E', symObjAddr: 0x0, symBinAddr: 0x11E34, symSize: 0x7C }
  - { offset: 0x2FE0B, size: 0x8, addend: 0x0, symName: '__ZN9hashbrown5table22HashTable$LT$T$C$A$GT$4find17h40f46234b06f8c24E', symObjAddr: 0x7C, symBinAddr: 0x11EB0, symSize: 0x28 }
  - { offset: 0x2FE83, size: 0x8, addend: 0x0, symName: '__ZN9hashbrown5table22HashTable$LT$T$C$A$GT$4find17hb7108a4b8c37a10cE', symObjAddr: 0xA4, symBinAddr: 0x11ED8, symSize: 0x28 }
  - { offset: 0x2FEFB, size: 0x8, addend: 0x0, symName: '__ZN9hashbrown5table26OccupiedEntry$LT$T$C$A$GT$6remove17ha53b6c25a48fed28E', symObjAddr: 0xCC, symBinAddr: 0x11F00, symSize: 0x74 }
  - { offset: 0x2FF8C, size: 0x8, addend: 0x0, symName: '__ZN4pyo310conversion12IntoPyObject28owned_sequence_into_pyobject28_$u7b$$u7b$closure$u7d$$u7d$17h4c94986e09bf405cE', symObjAddr: 0x0, symBinAddr: 0x11F74, symSize: 0x28 }
  - { offset: 0x3184E, size: 0x8, addend: 0x0, symName: '__ZN4pyo310conversion12IntoPyObject28owned_sequence_into_pyobject28_$u7b$$u7b$closure$u7d$$u7d$17h4c94986e09bf405cE', symObjAddr: 0x0, symBinAddr: 0x11F74, symSize: 0x28 }
  - { offset: 0x318A6, size: 0x8, addend: 0x0, symName: '__ZN4pyo310conversion12IntoPyObject28owned_sequence_into_pyobject28_$u7b$$u7b$closure$u7d$$u7d$17h5f1cb981aee66725E', symObjAddr: 0x28, symBinAddr: 0x11F9C, symSize: 0x28 }
  - { offset: 0x318FE, size: 0x8, addend: 0x0, symName: '__ZN4pyo310conversion12IntoPyObject28owned_sequence_into_pyobject28_$u7b$$u7b$closure$u7d$$u7d$17h6b6bd6c67af45564E', symObjAddr: 0x50, symBinAddr: 0x11FC4, symSize: 0x30 }
  - { offset: 0x31955, size: 0x8, addend: 0x0, symName: '__ZN4pyo310conversion12IntoPyObject28owned_sequence_into_pyobject28_$u7b$$u7b$closure$u7d$$u7d$17h7edc9a034a0af5dbE', symObjAddr: 0x80, symBinAddr: 0x11FF4, symSize: 0x28 }
  - { offset: 0x319AD, size: 0x8, addend: 0x0, symName: '__ZN4pyo310conversion12IntoPyObject28owned_sequence_into_pyobject28_$u7b$$u7b$closure$u7d$$u7d$17h9c3675b296e14276E', symObjAddr: 0xA8, symBinAddr: 0x1201C, symSize: 0x28 }
  - { offset: 0x31A05, size: 0x8, addend: 0x0, symName: '__ZN4pyo310conversion12IntoPyObject28owned_sequence_into_pyobject28_$u7b$$u7b$closure$u7d$$u7d$17hc6ddc78e3453bf78E', symObjAddr: 0xD0, symBinAddr: 0x12044, symSize: 0x28 }
  - { offset: 0x31AD6, size: 0x8, addend: 0x0, symName: __ZN4pyo310conversion15IntoPyObjectExt17into_bound_py_any17h0b34d9a1a85cc152E, symObjAddr: 0xF8, symBinAddr: 0x1206C, symSize: 0x4C }
  - { offset: 0x31B46, size: 0x8, addend: 0x0, symName: __ZN4pyo310conversion15IntoPyObjectExt17into_bound_py_any17h2e44e52ff526eb7dE, symObjAddr: 0x144, symBinAddr: 0x120B8, symSize: 0x4C }
  - { offset: 0x31BBC, size: 0x8, addend: 0x0, symName: '__ZN57_$LT$T$u20$as$u20$pyo3..conversion..FromPyObjectBound$GT$20from_py_object_bound17hde5c6d4ae8f8ea29E', symObjAddr: 0x190, symBinAddr: 0x12104, symSize: 0x34 }
  - { offset: 0x32FB8, size: 0x8, addend: 0x0, symName: '__ZN44_$LT$$RF$T$u20$as$u20$core..fmt..Display$GT$3fmt17h0c06984d1b9ecefeE', symObjAddr: 0x0, symBinAddr: 0x12138, symSize: 0x30 }
  - { offset: 0x33239, size: 0x8, addend: 0x0, symName: '__ZN44_$LT$$RF$T$u20$as$u20$core..fmt..Display$GT$3fmt17h0c06984d1b9ecefeE', symObjAddr: 0x0, symBinAddr: 0x12138, symSize: 0x30 }
  - { offset: 0x3330E, size: 0x8, addend: 0x0, symName: '__ZN50_$LT$T$u20$as$u20$core..convert..Into$LT$U$GT$$GT$4into17hc9ec3a743971e044E', symObjAddr: 0x30, symBinAddr: 0x12168, symSize: 0x18 }
  - { offset: 0x3336C, size: 0x8, addend: 0x0, symName: '__ZN50_$LT$T$u20$as$u20$core..convert..Into$LT$U$GT$$GT$4into17he38b5c6747b459b0E', symObjAddr: 0x48, symBinAddr: 0x12180, symSize: 0x14 }
  - { offset: 0x3387D, size: 0x8, addend: 0x0, symName: '__ZN4core3ops8function5impls79_$LT$impl$u20$core..ops..function..FnMut$LT$A$GT$$u20$for$u20$$RF$mut$u20$F$GT$8call_mut17h44ab74e530db54e7E', symObjAddr: 0x0, symBinAddr: 0x12194, symSize: 0x30 }
  - { offset: 0x33925, size: 0x8, addend: 0x0, symName: '__ZN11_fast_ebook8pybridge10PyTocEntry14into_toc_entry28_$u7b$$u7b$closure$u7d$$u7d$17h7662bab6ee8a744dE', symObjAddr: 0xBD4, symBinAddr: 0x12D68, symSize: 0x28 }
  - { offset: 0x3396D, size: 0x8, addend: 0x0, symName: '__ZN11_fast_ebook8pybridge15strip_html_tags28_$u7b$$u7b$closure$u7d$$u7d$17hf767bb713d55fe78E', symObjAddr: 0xBFC, symBinAddr: 0x12D90, symSize: 0x94 }
  - { offset: 0x339B8, size: 0x8, addend: 0x0, symName: '__ZN87_$LT$_fast_ebook..pybridge..PyEpubBook$u20$as$u20$pyo3..impl_..pyclass..PyClassImpl$GT$3doc28_$u7b$$u7b$closure$u7d$$u7d$17hd73aa1692b598e14E', symObjAddr: 0xC90, symBinAddr: 0x12E24, symSize: 0x54 }
  - { offset: 0x33A10, size: 0x8, addend: 0x0, symName: '__ZN11_fast_ebook8pybridge10PyEpubBook9get_items28_$u7b$$u7b$closure$u7d$$u7d$17h10f5b44b2ee6912fE', symObjAddr: 0xCE4, symBinAddr: 0x12E78, symSize: 0x30 }
  - { offset: 0x33A53, size: 0x8, addend: 0x0, symName: '__ZN11_fast_ebook8pybridge10PyEpubBook17get_items_of_type28_$u7b$$u7b$closure$u7d$$u7d$17h2195fd0ea8dca246E', symObjAddr: 0xD14, symBinAddr: 0x12EA8, symSize: 0x4C }
  - { offset: 0x33A90, size: 0x8, addend: 0x0, symName: '__ZN11_fast_ebook8pybridge10PyEpubBook17get_items_of_type28_$u7b$$u7b$closure$u7d$$u7d$17h4be7b7d7304bd6a4E', symObjAddr: 0xD60, symBinAddr: 0x12EF4, symSize: 0x30 }
  - { offset: 0x33AE6, size: 0x8, addend: 0x0, symName: '__ZN11_fast_ebook8pybridge10PyEpubBook16get_item_with_id28_$u7b$$u7b$closure$u7d$$u7d$17h128b85defff42455E', symObjAddr: 0xD90, symBinAddr: 0x12F24, symSize: 0x14 }
  - { offset: 0x33B29, size: 0x8, addend: 0x0, symName: '__ZN11_fast_ebook8pybridge10PyEpubBook18get_item_with_href28_$u7b$$u7b$closure$u7d$$u7d$17h71b11c0e501578a2E', symObjAddr: 0xDA4, symBinAddr: 0x12F38, symSize: 0x14 }
  - { offset: 0x33B6C, size: 0x8, addend: 0x0, symName: '__ZN11_fast_ebook8pybridge10PyEpubBook12get_metadata28_$u7b$$u7b$closure$u7d$$u7d$17h928f90b186778262E', symObjAddr: 0xDB8, symBinAddr: 0x12F4C, symSize: 0x3C }
  - { offset: 0x33BA8, size: 0x8, addend: 0x0, symName: '__ZN11_fast_ebook8pybridge10PyEpubBook12get_metadata28_$u7b$$u7b$closure$u7d$$u7d$17h71dd01c66b35f531E', symObjAddr: 0xDF4, symBinAddr: 0x12F88, symSize: 0x38 }
  - { offset: 0x33BE3, size: 0x8, addend: 0x0, symName: '__ZN11_fast_ebook8pybridge10PyEpubBook12get_metadata28_$u7b$$u7b$closure$u7d$$u7d$28_$u7b$$u7b$closure$u7d$$u7d$17h484dd42a1c4987dbE', symObjAddr: 0xE2C, symBinAddr: 0x12FC0, symSize: 0xA4 }
  - { offset: 0x33C2E, size: 0x8, addend: 0x0, symName: '__ZN11_fast_ebook8pybridge10PyEpubBook9get_spine28_$u7b$$u7b$closure$u7d$$u7d$17h07d327ae4d679fe4E', symObjAddr: 0xED0, symBinAddr: 0x13064, symSize: 0x68 }
  - { offset: 0x33C71, size: 0x8, addend: 0x0, symName: '__ZN11_fast_ebook8pybridge10PyEpubBook8__repr__28_$u7b$$u7b$closure$u7d$$u7d$17h2ee288a11b715525E', symObjAddr: 0xF38, symBinAddr: 0x130CC, symSize: 0x34 }
  - { offset: 0x33CA7, size: 0x8, addend: 0x0, symName: '__ZN11_fast_ebook8pybridge10PyEpubBook8__repr__28_$u7b$$u7b$closure$u7d$$u7d$17h8b6ee3bd1f001dcaE', symObjAddr: 0xF6C, symBinAddr: 0x13100, symSize: 0x28 }
  - { offset: 0x33CDD, size: 0x8, addend: 0x0, symName: '__ZN11_fast_ebook8pybridge10PyEpubBook8__repr__28_$u7b$$u7b$closure$u7d$$u7d$17he16c826e0868e50fE', symObjAddr: 0xF94, symBinAddr: 0x13128, symSize: 0x24 }
  - { offset: 0x33D2E, size: 0x8, addend: 0x0, symName: '__ZN11_fast_ebook8pybridge10PyEpubBook21_set_toc_from_entries28_$u7b$$u7b$closure$u7d$$u7d$17hbf18fdd89f3b3425E', symObjAddr: 0xFB8, symBinAddr: 0x1314C, symSize: 0x28 }
  - { offset: 0x33D72, size: 0x8, addend: 0x0, symName: '__ZN11_fast_ebook8pybridge10PyEpubBook23_set_spine_from_entries28_$u7b$$u7b$closure$u7d$$u7d$17h5ddee5bac5311fb8E', symObjAddr: 0xFE0, symBinAddr: 0x13174, symSize: 0x4C }
  - { offset: 0x33DE3, size: 0x8, addend: 0x0, symName: '__ZN11_fast_ebook8pybridge10PyEpubBook22__pymethod___enter____28_$u7b$$u7b$closure$u7d$$u7d$17h08fdf6d7e83f9838E', symObjAddr: 0x102C, symBinAddr: 0x131C0, symSize: 0x30 }
  - { offset: 0x33E26, size: 0x8, addend: 0x0, symName: '__ZN11_fast_ebook8pybridge10PyEpubBook23__pymethod_add_author__28_$u7b$$u7b$closure$u7d$$u7d$17h5d03561a46cf5d46E', symObjAddr: 0x105C, symBinAddr: 0x131F0, symSize: 0x2C }
  - { offset: 0x33E4E, size: 0x8, addend: 0x0, symName: '__ZN11_fast_ebook8pybridge10PyEpubBook23__pymethod_add_author__28_$u7b$$u7b$closure$u7d$$u7d$17h1f1dc6118a051e8bE', symObjAddr: 0x1088, symBinAddr: 0x1321C, symSize: 0x2C }
  - { offset: 0x33E76, size: 0x8, addend: 0x0, symName: '__ZN11_fast_ebook8pybridge10PyEpubBook23__pymethod_add_author__28_$u7b$$u7b$closure$u7d$$u7d$17hbaa38d31fd2c7233E', symObjAddr: 0x10B4, symBinAddr: 0x13248, symSize: 0x2C }
  - { offset: 0x33EB9, size: 0x8, addend: 0x0, symName: '__ZN11_fast_ebook8pybridge10PyEpubBook25__pymethod_add_metadata__28_$u7b$$u7b$closure$u7d$$u7d$17hcdc6556629cd8f9fE', symObjAddr: 0x10E0, symBinAddr: 0x13274, symSize: 0x28 }
  - { offset: 0x33EEE, size: 0x8, addend: 0x0, symName: '__ZN11_fast_ebook8pybridge10PyEpubBook25__pymethod_add_item_raw__28_$u7b$$u7b$closure$u7d$$u7d$17h1461d4c13b8038beE', symObjAddr: 0x1108, symBinAddr: 0x1329C, symSize: 0x2C }
  - { offset: 0x33F29, size: 0x8, addend: 0x0, symName: '__ZN87_$LT$_fast_ebook..pybridge..PyEpubItem$u20$as$u20$pyo3..impl_..pyclass..PyClassImpl$GT$3doc28_$u7b$$u7b$closure$u7d$$u7d$17hb3b966f2905dbac6E', symObjAddr: 0x1134, symBinAddr: 0x132C8, symSize: 0x58 }
  - { offset: 0x33F86, size: 0x8, addend: 0x0, symName: '__ZN87_$LT$_fast_ebook..pybridge..PyTocEntry$u20$as$u20$pyo3..impl_..pyclass..PyClassImpl$GT$10items_iter15INTRINSIC_ITEMS28_$u7b$$u7b$closure$u7d$$u7d$17hefefa4af12b612b6E', symObjAddr: 0x118C, symBinAddr: 0x13320, symSize: 0x44 }
  - { offset: 0x33FB0, size: 0x8, addend: 0x0, symName: '__ZN87_$LT$_fast_ebook..pybridge..PyTocEntry$u20$as$u20$pyo3..impl_..pyclass..PyClassImpl$GT$10items_iter15INTRINSIC_ITEMS28_$u7b$$u7b$closure$u7d$$u7d$17h1805bfe2e4ea6d43E', symObjAddr: 0x11D0, symBinAddr: 0x13364, symSize: 0x44 }
  - { offset: 0x33FDA, size: 0x8, addend: 0x0, symName: '__ZN87_$LT$_fast_ebook..pybridge..PyTocEntry$u20$as$u20$pyo3..impl_..pyclass..PyClassImpl$GT$10items_iter15INTRINSIC_ITEMS28_$u7b$$u7b$closure$u7d$$u7d$17hb42ddf39f299d0b7E', symObjAddr: 0x1214, symBinAddr: 0x133A8, symSize: 0x44 }
  - { offset: 0x34020, size: 0x8, addend: 0x0, symName: '__ZN87_$LT$_fast_ebook..pybridge..PyTocEntry$u20$as$u20$pyo3..impl_..pyclass..PyClassImpl$GT$3doc28_$u7b$$u7b$closure$u7d$$u7d$17h815f63780ee444a3E', symObjAddr: 0x1258, symBinAddr: 0x133EC, symSize: 0x54 }
  - { offset: 0x3407B, size: 0x8, addend: 0x0, symName: '__ZN11_fast_ebook8pybridge10PyTocEntry20__pymethod___new____28_$u7b$$u7b$closure$u7d$$u7d$17hcb7c851957778fa3E', symObjAddr: 0x12AC, symBinAddr: 0x13440, symSize: 0x20 }
  - { offset: 0x34A10, size: 0x8, addend: 0x0, symName: '__ZN4core3ops8function5impls79_$LT$impl$u20$core..ops..function..FnMut$LT$A$GT$$u20$for$u20$$RF$mut$u20$F$GT$8call_mut17h44ab74e530db54e7E', symObjAddr: 0x0, symBinAddr: 0x12194, symSize: 0x30 }
  - { offset: 0x34A6D, size: 0x8, addend: 0x0, symName: '__ZN50_$LT$T$u20$as$u20$core..convert..Into$LT$U$GT$$GT$4into17h8799d6a5d7c151a0E', symObjAddr: 0x640, symBinAddr: 0x127D4, symSize: 0x14 }
  - { offset: 0x34AAE, size: 0x8, addend: 0x0, symName: '__ZN50_$LT$T$u20$as$u20$core..convert..Into$LT$U$GT$$GT$4into17hccb1a52dc6882802E', symObjAddr: 0x654, symBinAddr: 0x127E8, symSize: 0x24 }
  - { offset: 0x34AEE, size: 0x8, addend: 0x0, symName: '__ZN50_$LT$T$u20$as$u20$core..convert..Into$LT$U$GT$$GT$4into17hec97514153c8b4dbE', symObjAddr: 0x678, symBinAddr: 0x1280C, symSize: 0x14 }
  - { offset: 0x36740, size: 0x8, addend: 0x0, symName: __ZN4pyo310conversion12IntoPyObject28owned_sequence_into_pyobject17h456f331b19e30447E, symObjAddr: 0x30, symBinAddr: 0x121C4, symSize: 0xA4 }
  - { offset: 0x367D5, size: 0x8, addend: 0x0, symName: __ZN4pyo310conversion12IntoPyObject28owned_sequence_into_pyobject17hbd58a77e4db0876cE, symObjAddr: 0xD4, symBinAddr: 0x12268, symSize: 0xA4 }
  - { offset: 0x3686A, size: 0x8, addend: 0x0, symName: __ZN4pyo310conversion12IntoPyObject28owned_sequence_into_pyobject17hebeca30570e2c246E, symObjAddr: 0x178, symBinAddr: 0x1230C, symSize: 0xA4 }
  - { offset: 0x36944, size: 0x8, addend: 0x0, symName: __ZN4pyo310conversion15IntoPyObjectExt17into_bound_py_any17h6030e0e99fa3452dE, symObjAddr: 0x21C, symBinAddr: 0x123B0, symSize: 0xBC }
  - { offset: 0x369D3, size: 0x8, addend: 0x0, symName: __ZN4pyo310conversion15IntoPyObjectExt17into_bound_py_any17h6f8dbfbe0ae88467E, symObjAddr: 0x2D8, symBinAddr: 0x1246C, symSize: 0xAC }
  - { offset: 0x36A63, size: 0x8, addend: 0x0, symName: __ZN4pyo310conversion15IntoPyObjectExt17into_bound_py_any17hf2b5692018789f1fE, symObjAddr: 0x384, symBinAddr: 0x12518, symSize: 0xAC }
  - { offset: 0x36AF9, size: 0x8, addend: 0x0, symName: '__ZN52_$LT$T$u20$as$u20$pyo3..conversion..FromPyObject$GT$13extract_bound17hf14bef20a5f1d56cE', symObjAddr: 0x68C, symBinAddr: 0x12820, symSize: 0x138 }
  - { offset: 0x36BA7, size: 0x8, addend: 0x0, symName: '__ZN57_$LT$T$u20$as$u20$pyo3..conversion..FromPyObjectBound$GT$20from_py_object_bound17h2554f021dd2b90cfE', symObjAddr: 0x830, symBinAddr: 0x129C4, symSize: 0x34 }
  - { offset: 0x36BF8, size: 0x8, addend: 0x0, symName: __ZN4pyo311type_object10PyTypeInfo10is_type_of17h34ec5ab757a4cc2aE, symObjAddr: 0x430, symBinAddr: 0x125C4, symSize: 0x50 }
  - { offset: 0x36C2D, size: 0x8, addend: 0x0, symName: __ZN4pyo311type_object10PyTypeInfo10is_type_of17h3d038a4c3607d45dE, symObjAddr: 0x480, symBinAddr: 0x12614, symSize: 0x50 }
  - { offset: 0x36C62, size: 0x8, addend: 0x0, symName: __ZN4pyo311type_object10PyTypeInfo10is_type_of17hc4197ad6e22edb79E, symObjAddr: 0x4D0, symBinAddr: 0x12664, symSize: 0x50 }
  - { offset: 0x36C9D, size: 0x8, addend: 0x0, symName: '__ZN52_$LT$T$u20$as$u20$pyo3..type_object..PyTypeCheck$GT$10type_check17h0e5e526fbeaa5be5E', symObjAddr: 0x7C4, symBinAddr: 0x12958, symSize: 0x24 }
  - { offset: 0x36CD2, size: 0x8, addend: 0x0, symName: '__ZN52_$LT$T$u20$as$u20$pyo3..type_object..PyTypeCheck$GT$10type_check17h738c4f2903c26e46E', symObjAddr: 0x7E8, symBinAddr: 0x1297C, symSize: 0x24 }
  - { offset: 0x36D07, size: 0x8, addend: 0x0, symName: '__ZN52_$LT$T$u20$as$u20$pyo3..type_object..PyTypeCheck$GT$10type_check17he827bfc3074622edE', symObjAddr: 0x80C, symBinAddr: 0x129A0, symSize: 0x24 }
  - { offset: 0x36D48, size: 0x8, addend: 0x0, symName: '__ZN4pyo312pyclass_init130_$LT$impl$u20$pyo3..impl_..callback..IntoPyCallbackOutput$LT$pyo3..pyclass_init..PyClassInitializer$LT$T$GT$$GT$$u20$for$u20$U$GT$7convert17h94757d15b46ddbcbE', symObjAddr: 0x520, symBinAddr: 0x126B4, symSize: 0x44 }
  - { offset: 0x36DA4, size: 0x8, addend: 0x0, symName: '__ZN4pyo312pyclass_init130_$LT$impl$u20$pyo3..impl_..callback..IntoPyCallbackOutput$LT$pyo3..pyclass_init..PyClassInitializer$LT$T$GT$$GT$$u20$for$u20$U$GT$7convert17hfd2f02fafef60842E', symObjAddr: 0x564, symBinAddr: 0x126F8, symSize: 0x4C }
  - { offset: 0x36FE5, size: 0x8, addend: 0x0, symName: __ZN4pyo35impl_7pyclass11PyClassImpl11dict_offset17h4544753297ab5636E, symObjAddr: 0x5B0, symBinAddr: 0x12744, symSize: 0x18 }
  - { offset: 0x3700C, size: 0x8, addend: 0x0, symName: __ZN4pyo35impl_7pyclass11PyClassImpl11dict_offset17h706f700124768e52E, symObjAddr: 0x5C8, symBinAddr: 0x1275C, symSize: 0x18 }
  - { offset: 0x37033, size: 0x8, addend: 0x0, symName: __ZN4pyo35impl_7pyclass11PyClassImpl11dict_offset17h709fc4fcd87ee6bbE, symObjAddr: 0x5E0, symBinAddr: 0x12774, symSize: 0x18 }
  - { offset: 0x3705A, size: 0x8, addend: 0x0, symName: __ZN4pyo35impl_7pyclass11PyClassImpl15weaklist_offset17h0184991a9b4d7456E, symObjAddr: 0x5F8, symBinAddr: 0x1278C, symSize: 0x18 }
  - { offset: 0x37081, size: 0x8, addend: 0x0, symName: __ZN4pyo35impl_7pyclass11PyClassImpl15weaklist_offset17h89e2166d84a82870E, symObjAddr: 0x610, symBinAddr: 0x127A4, symSize: 0x18 }
  - { offset: 0x370A8, size: 0x8, addend: 0x0, symName: __ZN4pyo35impl_7pyclass11PyClassImpl15weaklist_offset17he9bb12be43fa755dE, symObjAddr: 0x628, symBinAddr: 0x127BC, symSize: 0x18 }
  - { offset: 0x37EBD, size: 0x8, addend: 0x0, symName: '__ZN87_$LT$T$u20$as$u20$alloc..slice..$LT$impl$u20$$u5b$T$u5d$$GT$..to_vec_in..ConvertVec$GT$6to_vec17h17d5d8362bcd1cdeE', symObjAddr: 0x864, symBinAddr: 0x129F8, symSize: 0x370 }
  - { offset: 0x39672, size: 0x8, addend: 0x0, symName: '__ZN4core3ops8function5impls71_$LT$impl$u20$core..ops..function..FnMut$LT$A$GT$$u20$for$u20$$RF$F$GT$8call_mut17h74ab3c9240c18730E', symObjAddr: 0x0, symBinAddr: 0x13460, symSize: 0x30 }
  - { offset: 0x396E8, size: 0x8, addend: 0x0, symName: '__ZN11_fast_ebook5batch19read_epubs_parallel28_$u7b$$u7b$closure$u7d$$u7d$17h162b25626c8330acE', symObjAddr: 0x60, symBinAddr: 0x134C0, symSize: 0x50 }
  - { offset: 0x3972B, size: 0x8, addend: 0x0, symName: '__ZN11_fast_ebook5batch19read_epubs_parallel28_$u7b$$u7b$closure$u7d$$u7d$28_$u7b$$u7b$closure$u7d$$u7d$17hfad183f42a4b054dE', symObjAddr: 0xB0, symBinAddr: 0x13510, symSize: 0x48 }
  - { offset: 0x3977C, size: 0x8, addend: 0x0, symName: '__ZN11_fast_ebook5batch19read_epubs_parallel28_$u7b$$u7b$closure$u7d$$u7d$17h0941217467e9d825E', symObjAddr: 0xF8, symBinAddr: 0x13558, symSize: 0x48 }
  - { offset: 0x39EA2, size: 0x8, addend: 0x0, symName: '__ZN4core3ops8function5impls71_$LT$impl$u20$core..ops..function..FnMut$LT$A$GT$$u20$for$u20$$RF$F$GT$8call_mut17h74ab3c9240c18730E', symObjAddr: 0x0, symBinAddr: 0x13460, symSize: 0x30 }
  - { offset: 0x39EF1, size: 0x8, addend: 0x0, symName: '__ZN4core3ops8function5impls71_$LT$impl$u20$core..ops..function..FnMut$LT$A$GT$$u20$for$u20$$RF$F$GT$8call_mut17hb329ea25c42eb915E', symObjAddr: 0x30, symBinAddr: 0x13490, symSize: 0x30 }
  - { offset: 0x3AFDD, size: 0x8, addend: 0x0, symName: '__ZN5alloc5boxed7convert115_$LT$impl$u20$core..convert..From$LT$alloc..borrow..Cow$LT$str$GT$$GT$$u20$for$u20$alloc..boxed..Box$LT$str$GT$$GT$4from17h3a5a730aea0622fdE', symObjAddr: 0x0, symBinAddr: 0x135A0, symSize: 0x88 }
  - { offset: 0x3AFFE, size: 0x8, addend: 0x0, symName: '__ZN5alloc5boxed7convert115_$LT$impl$u20$core..convert..From$LT$alloc..borrow..Cow$LT$str$GT$$GT$$u20$for$u20$alloc..boxed..Box$LT$str$GT$$GT$4from17h3a5a730aea0622fdE', symObjAddr: 0x0, symBinAddr: 0x135A0, symSize: 0x88 }
  - { offset: 0x3B096, size: 0x8, addend: 0x0, symName: '__ZN5alloc5boxed7convert93_$LT$impl$u20$core..convert..From$LT$$RF$str$GT$$u20$for$u20$alloc..boxed..Box$LT$str$GT$$GT$4from17h5d1dc2f9d4b1e17cE', symObjAddr: 0x88, symBinAddr: 0x13628, symSize: 0x7C }
  - { offset: 0x3B659, size: 0x8, addend: 0x0, symName: __ZN10rayon_core9FnContext3new17h5d523a22ded7391bE, symObjAddr: 0x0, symBinAddr: 0x136A4, symSize: 0x10 }
  - { offset: 0x3B73D, size: 0x8, addend: 0x0, symName: '__ZN69_$LT$rayon_core..ThreadPoolBuildError$u20$as$u20$core..fmt..Debug$GT$3fmt17h06287664f7f5d8e1E', symObjAddr: 0x2C, symBinAddr: 0x136D0, symSize: 0x64 }
  - { offset: 0x3BBE1, size: 0x8, addend: 0x0, symName: __ZN10rayon_core9FnContext3new17h5d523a22ded7391bE, symObjAddr: 0x0, symBinAddr: 0x136A4, symSize: 0x10 }
  - { offset: 0x3BC11, size: 0x8, addend: 0x0, symName: __ZN10rayon_core9FnContext8migrated17h8f623f52c41eda3eE, symObjAddr: 0x10, symBinAddr: 0x136B4, symSize: 0x1C }
  - { offset: 0x3BCC2, size: 0x8, addend: 0x0, symName: __ZN4pyo35impl_5panic9PanicTrap3new17h7eb9eff9c74c7520E, symObjAddr: 0x0, symBinAddr: 0x13734, symSize: 0x18 }
  - { offset: 0x3D177, size: 0x8, addend: 0x0, symName: __ZN4pyo35impl_8callback7convert17h4f3efd2847820764E, symObjAddr: 0x40, symBinAddr: 0x13774, symSize: 0x1C }
  - { offset: 0x3D1CF, size: 0x8, addend: 0x0, symName: __ZN4pyo35impl_8callback7convert17h5260b9016bed98f2E, symObjAddr: 0x5C, symBinAddr: 0x13790, symSize: 0x1C }
  - { offset: 0x3D40C, size: 0x8, addend: 0x0, symName: __ZN4pyo35impl_5panic9PanicTrap3new17h7eb9eff9c74c7520E, symObjAddr: 0x0, symBinAddr: 0x13734, symSize: 0x18 }
  - { offset: 0x3D42E, size: 0x8, addend: 0x0, symName: __ZN4pyo35impl_5panic9PanicTrap6disarm17h3c0db66ac461245bE, symObjAddr: 0x18, symBinAddr: 0x1374C, symSize: 0x28 }
  - { offset: 0x3DC6E, size: 0x8, addend: 0x0, symName: '__ZN105_$LT$alloc..collections..linked_list..Iter$LT$T$GT$$u20$as$u20$core..iter..traits..iterator..Iterator$GT$4next17h64dfbeadbbcba956E', symObjAddr: 0x0, symBinAddr: 0x137AC, symSize: 0x98 }
  - { offset: 0x3EA17, size: 0x8, addend: 0x0, symName: __ZN4core4iter6traits8iterator8Iterator3map17h8f42c2913be17af2E, symObjAddr: 0xD4, symBinAddr: 0x13880, symSize: 0x20 }
  - { offset: 0x3EA84, size: 0x8, addend: 0x0, symName: __ZN4core4iter6traits8iterator8Iterator4fold17h3c5ff0a0ba401492E, symObjAddr: 0xF4, symBinAddr: 0x138A0, symSize: 0xD0 }
  - { offset: 0x3ED2F, size: 0x8, addend: 0x0, symName: '__ZN105_$LT$alloc..collections..linked_list..Iter$LT$T$GT$$u20$as$u20$core..iter..traits..iterator..Iterator$GT$4next17h64dfbeadbbcba956E', symObjAddr: 0x0, symBinAddr: 0x137AC, symSize: 0x98 }
  - { offset: 0x3EDD6, size: 0x8, addend: 0x0, symName: '__ZN113_$LT$alloc..collections..linked_list..IntoIter$LT$T$C$A$GT$$u20$as$u20$core..iter..traits..iterator..Iterator$GT$4next17h2a6674eac401107bE', symObjAddr: 0x98, symBinAddr: 0x13844, symSize: 0x24 }
  - { offset: 0x3EE1C, size: 0x8, addend: 0x0, symName: '__ZN118_$LT$alloc..collections..linked_list..LinkedList$LT$T$C$A$GT$$u20$as$u20$core..iter..traits..collect..IntoIterator$GT$9into_iter17h09fd2ee6bdd150dcE', symObjAddr: 0xBC, symBinAddr: 0x13868, symSize: 0x18 }
  - { offset: 0x40059, size: 0x8, addend: 0x0, symName: '__ZN5alloc11collections11linked_list13Node$LT$T$GT$12into_element17hdbdc2b3e2c382661E', symObjAddr: 0x1C4, symBinAddr: 0x13970, symSize: 0x60 }
  - { offset: 0x4009A, size: 0x8, addend: 0x0, symName: '__ZN5alloc11collections11linked_list19LinkedList$LT$T$GT$3new17h845a6fa3cefd16fdE', symObjAddr: 0x224, symBinAddr: 0x139D0, symSize: 0x10 }
  - { offset: 0x40116, size: 0x8, addend: 0x0, symName: '__ZN5alloc11collections11linked_list19LinkedList$LT$T$GT$6append17hb3fef714f2b64b15E', symObjAddr: 0x234, symBinAddr: 0x139E0, symSize: 0x130 }
  - { offset: 0x4028D, size: 0x8, addend: 0x0, symName: '__ZN5alloc11collections11linked_list23LinkedList$LT$T$C$A$GT$4iter17he985463304b0b952E', symObjAddr: 0x364, symBinAddr: 0x13B10, symSize: 0x30 }
  - { offset: 0x4042F, size: 0x8, addend: 0x0, symName: '__ZN5alloc11collections11linked_list23LinkedList$LT$T$C$A$GT$9pop_front17h49f7b7f3ec35783bE', symObjAddr: 0x394, symBinAddr: 0x13B40, symSize: 0x164 }
  - { offset: 0x40671, size: 0x8, addend: 0x0, symName: '__ZN5alloc11collections11linked_list23LinkedList$LT$T$C$A$GT$9push_back17h566d499d6049b0aaE', symObjAddr: 0x4F8, symBinAddr: 0x13CA4, symSize: 0xE8 }
  - { offset: 0x40844, size: 0x8, addend: 0x0, symName: __ZN3std3sys2fs4unix23debug_assert_fd_is_open17h9d959988f4a89374E, symObjAddr: 0x0, symBinAddr: 0x13D8C, symSize: 0xCC }
  - { offset: 0x40D44, size: 0x8, addend: 0x0, symName: __ZN3std3sys2fs4unix23debug_assert_fd_is_open17h9d959988f4a89374E, symObjAddr: 0x0, symBinAddr: 0x13D8C, symSize: 0xCC }
  - { offset: 0x40DF2, size: 0x8, addend: 0x0, symName: '__ZN50_$LT$T$u20$as$u20$core..convert..Into$LT$U$GT$$GT$4into17ha0931db78139145dE', symObjAddr: 0x0, symBinAddr: 0x13E58, symSize: 0x14 }
  - { offset: 0x41184, size: 0x8, addend: 0x0, symName: '__ZN50_$LT$T$u20$as$u20$core..convert..Into$LT$U$GT$$GT$4into17ha0931db78139145dE', symObjAddr: 0x0, symBinAddr: 0x13E58, symSize: 0x14 }
  - { offset: 0x41625, size: 0x8, addend: 0x0, symName: '__ZN71_$LT$alloc..borrow..Cow$LT$B$GT$$u20$as$u20$core..ops..deref..Deref$GT$5deref17h29e39c517351ab04E', symObjAddr: 0x14, symBinAddr: 0x13E6C, symSize: 0x78 }
  - { offset: 0x41750, size: 0x8, addend: 0x0, symName: '__ZN77_$LT$alloc..borrow..Cow$LT$T$GT$$u20$as$u20$core..convert..AsRef$LT$T$GT$$GT$6as_ref17h0c093b738de708dbE', symObjAddr: 0x8C, symBinAddr: 0x13EE4, symSize: 0x68 }
  - { offset: 0x41C96, size: 0x8, addend: 0x0, symName: __ZN5alloc3fmt6format17h581d814577ba1c7dE, symObjAddr: 0x0, symBinAddr: 0x13F4C, symSize: 0xD4 }
  - { offset: 0x42231, size: 0x8, addend: 0x0, symName: __ZN5alloc3fmt6format17h581d814577ba1c7dE, symObjAddr: 0x0, symBinAddr: 0x13F4C, symSize: 0xD4 }
  - { offset: 0x4238A, size: 0x8, addend: 0x0, symName: '__ZN62_$LT$zopfli..lz77..Lz77Store$u20$as$u20$core..clone..Clone$GT$5clone17he8941694a2fa8466E', symObjAddr: 0x0, symBinAddr: 0x14020, symSize: 0x1BC }
  - { offset: 0x423A6, size: 0x8, addend: 0x0, symName: '__ZN62_$LT$zopfli..lz77..Lz77Store$u20$as$u20$core..clone..Clone$GT$5clone17he8941694a2fa8466E', symObjAddr: 0x0, symBinAddr: 0x14020, symSize: 0x1BC }
  - { offset: 0x42732, size: 0x8, addend: 0x0, symName: '__ZN3std6thread5local17LocalKey$LT$T$GT$4with17h2479d13f102d0953E', symObjAddr: 0x0, symBinAddr: 0x141DC, symSize: 0x5C }
  - { offset: 0x45D17, size: 0x8, addend: 0x0, symName: '__ZN3std6thread5local17LocalKey$LT$T$GT$4with17h2479d13f102d0953E', symObjAddr: 0x0, symBinAddr: 0x141DC, symSize: 0x5C }
  - { offset: 0x45DBB, size: 0x8, addend: 0x0, symName: '__ZN3std6thread5local17LocalKey$LT$T$GT$4with17h7ae5dd26298d61a2E', symObjAddr: 0x5C, symBinAddr: 0x14238, symSize: 0x5C }
  - { offset: 0x45E34, size: 0x8, addend: 0x0, symName: '__ZN3std6thread5local17LocalKey$LT$T$GT$4with17hc230091d3b3b798aE', symObjAddr: 0xB8, symBinAddr: 0x14294, symSize: 0x5C }
  - { offset: 0x45EA0, size: 0x8, addend: 0x0, symName: '__ZN3std6thread5local17LocalKey$LT$T$GT$4with17hce86644ee58ada09E', symObjAddr: 0x114, symBinAddr: 0x142F0, symSize: 0x68 }
  - { offset: 0x45F0C, size: 0x8, addend: 0x0, symName: '__ZN3std6thread5local17LocalKey$LT$T$GT$4with17hf8b3aa1a4e9a149fE', symObjAddr: 0x17C, symBinAddr: 0x14358, symSize: 0x5C }
  - { offset: 0x45FC6, size: 0x8, addend: 0x0, symName: '__ZN3std6thread5local17LocalKey$LT$T$GT$8try_with17h0db670c0b10776ceE', symObjAddr: 0x1D8, symBinAddr: 0x143B4, symSize: 0xFC }
  - { offset: 0x4613C, size: 0x8, addend: 0x0, symName: '__ZN3std6thread5local17LocalKey$LT$T$GT$8try_with17h102e97833deab36bE', symObjAddr: 0x2D4, symBinAddr: 0x144B0, symSize: 0x11C }
  - { offset: 0x462B8, size: 0x8, addend: 0x0, symName: '__ZN3std6thread5local17LocalKey$LT$T$GT$8try_with17h4e5134f2b24c36d8E', symObjAddr: 0x3F0, symBinAddr: 0x145CC, symSize: 0x11C }
  - { offset: 0x46434, size: 0x8, addend: 0x0, symName: '__ZN3std6thread5local17LocalKey$LT$T$GT$8try_with17ha8cb5aa5cf29fbd6E', symObjAddr: 0x50C, symBinAddr: 0x146E8, symSize: 0x11C }
  - { offset: 0x465B0, size: 0x8, addend: 0x0, symName: '__ZN3std6thread5local17LocalKey$LT$T$GT$8try_with17hbc63733a5e194a8fE', symObjAddr: 0x628, symBinAddr: 0x14804, symSize: 0x11C }
  - { offset: 0x46709, size: 0x8, addend: 0x0, symName: __ZN4core9core_arch10arm_shared4neon9generated18vreinterpret_s8_u817h53b70a0b49017550E, symObjAddr: 0x0, symBinAddr: 0x14920, symSize: 0xC }
  - { offset: 0x4672F, size: 0x8, addend: 0x0, symName: __ZN4core9core_arch10arm_shared4neon9generated18vreinterpret_s8_u817h53b70a0b49017550E, symObjAddr: 0x0, symBinAddr: 0x14920, symSize: 0xC }
  - { offset: 0x4675D, size: 0x8, addend: 0x0, symName: __ZN4core9core_arch10arm_shared4neon9generated19vreinterpret_u64_u817h2ecbd46e3fb5c3afE, symObjAddr: 0xC, symBinAddr: 0x1492C, symSize: 0xC }
  - { offset: 0x4678B, size: 0x8, addend: 0x0, symName: __ZN4core9core_arch10arm_shared4neon9generated7vceq_u817hb5d17005083f3cdcE, symObjAddr: 0x18, symBinAddr: 0x14938, symSize: 0x14 }
  - { offset: 0x467C8, size: 0x8, addend: 0x0, symName: __ZN4core9core_arch10arm_shared4neon9generated7vorr_u817h636b29625a303667E, symObjAddr: 0x2C, symBinAddr: 0x1494C, symSize: 0x14 }
  - { offset: 0x46805, size: 0x8, addend: 0x0, symName: __ZN4core9core_arch10arm_shared4neon9generated9vdup_n_u817h85a07212569a4fa2E, symObjAddr: 0x40, symBinAddr: 0x14960, symSize: 0x34 }
  - { offset: 0x4696F, size: 0x8, addend: 0x0, symName: __ZN3std2io4util4sink17h4087035afb2e5d64E, symObjAddr: 0x0, symBinAddr: 0x14994, symSize: 0x4 }
  - { offset: 0x46BDD, size: 0x8, addend: 0x0, symName: __ZN3std2io4util4sink17h4087035afb2e5d64E, symObjAddr: 0x0, symBinAddr: 0x14994, symSize: 0x4 }
  - { offset: 0x46BFC, size: 0x8, addend: 0x0, symName: '__ZN54_$LT$std..io..util..Sink$u20$as$u20$std..io..Write$GT$9write_all17h8a5712776a3e629aE', symObjAddr: 0x4, symBinAddr: 0x14998, symSize: 0x1C }
  - { offset: 0x46CE6, size: 0x8, addend: 0x0, symName: '__ZN59_$LT$zip..types..System$u20$as$u20$core..cmp..PartialEq$GT$2eq17hac2c08754f733104E', symObjAddr: 0x20, symBinAddr: 0x149B4, symSize: 0x34 }
  - { offset: 0x46F40, size: 0x8, addend: 0x0, symName: __ZN4pyo37pyclass18create_type_object18create_type_object17h0d32cf469b452124E, symObjAddr: 0x0, symBinAddr: 0x149E8, symSize: 0x164 }
  - { offset: 0x48828, size: 0x8, addend: 0x0, symName: __ZN4pyo37pyclass18create_type_object18create_type_object17h0d32cf469b452124E, symObjAddr: 0x0, symBinAddr: 0x149E8, symSize: 0x164 }
  - { offset: 0x48886, size: 0x8, addend: 0x0, symName: __ZN4pyo37pyclass18create_type_object18create_type_object17hc4e0595b3875c76fE, symObjAddr: 0x164, symBinAddr: 0x14B4C, symSize: 0x160 }
  - { offset: 0x488E4, size: 0x8, addend: 0x0, symName: __ZN4pyo37pyclass18create_type_object18create_type_object17hca85f165ce559bafE, symObjAddr: 0x2C4, symBinAddr: 0x14CAC, symSize: 0x160 }
  - { offset: 0x49AB1, size: 0x8, addend: 0x0, symName: __ZN11_fast_ebook10validation8validate17hb8a63b18d6f09392E, symObjAddr: 0x0, symBinAddr: 0x14E0C, symSize: 0x75C }
  - { offset: 0x49B22, size: 0x8, addend: 0x0, symName: __ZN11_fast_ebook10validation8validate17hb8a63b18d6f09392E, symObjAddr: 0x0, symBinAddr: 0x14E0C, symSize: 0x75C }
  - { offset: 0x4ABE5, size: 0x8, addend: 0x0, symName: __ZN4pyo35types8sequence16extract_sequence17h0ea11bf955720832E, symObjAddr: 0x0, symBinAddr: 0x15568, symSize: 0x3BC }
  - { offset: 0x4C39C, size: 0x8, addend: 0x0, symName: __ZN4pyo35types8sequence16extract_sequence17h0ea11bf955720832E, symObjAddr: 0x0, symBinAddr: 0x15568, symSize: 0x3BC }
  - { offset: 0x4C499, size: 0x8, addend: 0x0, symName: __ZN4pyo35types8sequence16extract_sequence17h57924f6937d44cdbE, symObjAddr: 0x3BC, symBinAddr: 0x15924, symSize: 0x3BC }
  - { offset: 0x4C596, size: 0x8, addend: 0x0, symName: __ZN4pyo35types8sequence16extract_sequence17hc35e0d5c7a5d620bE, symObjAddr: 0x778, symBinAddr: 0x15CE0, symSize: 0x3C0 }
  - { offset: 0x4C693, size: 0x8, addend: 0x0, symName: __ZN4pyo35types8sequence16extract_sequence17hcd0fabc86ba9cc48E, symObjAddr: 0xB38, symBinAddr: 0x160A0, symSize: 0x3A4 }
  - { offset: 0x4D3A4, size: 0x8, addend: 0x0, symName: '__ZN4core3str6traits108_$LT$impl$u20$core..slice..index..SliceIndex$LT$str$GT$$u20$for$u20$core..ops..range..Range$LT$usize$GT$$GT$13get_unchecked18precondition_check17h592eea0922a5ac1cE', symObjAddr: 0x0, symBinAddr: 0x16444, symSize: 0xCC }
  - { offset: 0x4D6D0, size: 0x8, addend: 0x0, symName: '__ZN4core3str6traits108_$LT$impl$u20$core..slice..index..SliceIndex$LT$str$GT$$u20$for$u20$core..ops..range..Range$LT$usize$GT$$GT$13get_unchecked18precondition_check17h592eea0922a5ac1cE', symObjAddr: 0x0, symBinAddr: 0x16444, symSize: 0xCC }
  - { offset: 0x4D74D, size: 0x8, addend: 0x0, symName: '__ZN4core3str6traits54_$LT$impl$u20$core..cmp..PartialEq$u20$for$u20$str$GT$2eq17h1e7d0c9613717a55E', symObjAddr: 0xCC, symBinAddr: 0x16510, symSize: 0x64 }
  - { offset: 0x4DAA2, size: 0x8, addend: 0x0, symName: '__ZN4core4hash5impls52_$LT$impl$u20$core..hash..Hash$u20$for$u20$$RF$T$GT$4hash17h03ee05f863475468E', symObjAddr: 0x0, symBinAddr: 0x16574, symSize: 0x3C }
  - { offset: 0x4E2A1, size: 0x8, addend: 0x0, symName: '__ZN4core4hash5impls52_$LT$impl$u20$core..hash..Hash$u20$for$u20$$RF$T$GT$4hash17h03ee05f863475468E', symObjAddr: 0x0, symBinAddr: 0x16574, symSize: 0x3C }
  - { offset: 0x4ED50, size: 0x8, addend: 0x0, symName: '__ZN79_$LT$pyo3..types..string..PyString$u20$as$u20$pyo3..type_object..PyTypeInfo$GT$10is_type_of17h77d1ffafa9e7b164E', symObjAddr: 0x3C, symBinAddr: 0x165B0, symSize: 0x30 }
  - { offset: 0x4F3B5, size: 0x8, addend: 0x0, symName: '__ZN3std2io5impls60_$LT$impl$u20$std..io..Read$u20$for$u20$$RF$$u5b$u8$u5d$$GT$4read17h80e4c2860f8e71fbE', symObjAddr: 0x0, symBinAddr: 0x165E0, symSize: 0x200 }
  - { offset: 0x4F628, size: 0x8, addend: 0x0, symName: '__ZN3std2io5impls60_$LT$impl$u20$std..io..Read$u20$for$u20$$RF$$u5b$u8$u5d$$GT$4read17h80e4c2860f8e71fbE', symObjAddr: 0x0, symBinAddr: 0x165E0, symSize: 0x200 }
  - { offset: 0x4FF53, size: 0x8, addend: 0x0, symName: __ZN4pyo310conversion15IntoPyObjectExt17into_bound_py_any17h86a7b8735416af5dE, symObjAddr: 0x0, symBinAddr: 0x167E0, symSize: 0x50 }
  - { offset: 0x51B0F, size: 0x8, addend: 0x0, symName: '__ZN50_$LT$T$u20$as$u20$core..convert..Into$LT$U$GT$$GT$4into17h8c4830f24dcf7f92E', symObjAddr: 0x234, symBinAddr: 0x16A14, symSize: 0x1C }
  - { offset: 0x51B4F, size: 0x8, addend: 0x0, symName: '__ZN50_$LT$T$u20$as$u20$core..convert..Into$LT$U$GT$$GT$4into17h91fdcb77a36bf7d9E', symObjAddr: 0x250, symBinAddr: 0x16A30, symSize: 0x1C }
  - { offset: 0x51D8C, size: 0x8, addend: 0x0, symName: __ZN4pyo310conversion15IntoPyObjectExt17into_bound_py_any17h86a7b8735416af5dE, symObjAddr: 0x0, symBinAddr: 0x167E0, symSize: 0x50 }
  - { offset: 0x51E02, size: 0x8, addend: 0x0, symName: '__ZN57_$LT$T$u20$as$u20$pyo3..conversion..FromPyObjectBound$GT$20from_py_object_bound17h3a992df0df8b9227E', symObjAddr: 0x26C, symBinAddr: 0x16A4C, symSize: 0x34 }
  - { offset: 0x51E39, size: 0x8, addend: 0x0, symName: '__ZN57_$LT$T$u20$as$u20$pyo3..conversion..FromPyObjectBound$GT$20from_py_object_bound17h94fe5900858ddbf1E', symObjAddr: 0x2A0, symBinAddr: 0x16A80, symSize: 0x34 }
  - { offset: 0x51E70, size: 0x8, addend: 0x0, symName: '__ZN57_$LT$T$u20$as$u20$pyo3..conversion..FromPyObjectBound$GT$20from_py_object_bound17ha5a0ff2024e15289E', symObjAddr: 0x2D4, symBinAddr: 0x16AB4, symSize: 0x34 }
  - { offset: 0x51EA7, size: 0x8, addend: 0x0, symName: '__ZN57_$LT$T$u20$as$u20$pyo3..conversion..FromPyObjectBound$GT$20from_py_object_bound17hc0c7b33be65e3cd8E', symObjAddr: 0x308, symBinAddr: 0x16AE8, symSize: 0x34 }
  - { offset: 0x51EE4, size: 0x8, addend: 0x0, symName: '__ZN79_$LT$pyo3..pycell..PyRef$LT$T$GT$$u20$as$u20$pyo3..conversion..FromPyObject$GT$13extract_bound17h827175dbd1ba43ccE', symObjAddr: 0x50C, symBinAddr: 0x16CEC, symSize: 0x94 }
  - { offset: 0x51F39, size: 0x8, addend: 0x0, symName: '__ZN79_$LT$pyo3..pycell..PyRef$LT$T$GT$$u20$as$u20$pyo3..conversion..FromPyObject$GT$13extract_bound17hb03d2644b3bfe5b7E', symObjAddr: 0x5A0, symBinAddr: 0x16D80, symSize: 0x94 }
  - { offset: 0x51F8E, size: 0x8, addend: 0x0, symName: '__ZN79_$LT$pyo3..pycell..PyRef$LT$T$GT$$u20$as$u20$pyo3..conversion..FromPyObject$GT$13extract_bound17hc8bcd0c183d33f6bE', symObjAddr: 0x634, symBinAddr: 0x16E14, symSize: 0x94 }
  - { offset: 0x51FE9, size: 0x8, addend: 0x0, symName: '__ZN82_$LT$pyo3..pycell..PyRefMut$LT$T$GT$$u20$as$u20$pyo3..conversion..FromPyObject$GT$13extract_bound17hb1aa21e81f59c8a9E', symObjAddr: 0x734, symBinAddr: 0x16F14, symSize: 0x94 }
  - { offset: 0x5204F, size: 0x8, addend: 0x0, symName: '__ZN4pyo35impl_9pymethods130_$LT$impl$u20$core..convert..TryFrom$LT$pyo3..impl_..pymethods..BoundRef$LT$T$GT$$GT$$u20$for$u20$pyo3..pycell..PyRef$LT$T$GT$$GT$8try_from17hdd0ea36b32082ef1E', symObjAddr: 0x50, symBinAddr: 0x16830, symSize: 0x24 }
  - { offset: 0x52205, size: 0x8, addend: 0x0, symName: '__ZN4pyo36pycell14PyRef$LT$T$GT$10try_borrow28_$u7b$$u7b$closure$u7d$$u7d$17h2f69ba43c5cd7e1bE', symObjAddr: 0x158, symBinAddr: 0x16938, symSize: 0x24 }
  - { offset: 0x52249, size: 0x8, addend: 0x0, symName: '__ZN4pyo36pycell14PyRef$LT$T$GT$10try_borrow28_$u7b$$u7b$closure$u7d$$u7d$17h3d66e40ace064af6E', symObjAddr: 0x17C, symBinAddr: 0x1695C, symSize: 0x24 }
  - { offset: 0x5228D, size: 0x8, addend: 0x0, symName: '__ZN4pyo36pycell14PyRef$LT$T$GT$10try_borrow28_$u7b$$u7b$closure$u7d$$u7d$17h3d8bc4072e9983ebE', symObjAddr: 0x1A0, symBinAddr: 0x16980, symSize: 0x24 }
  - { offset: 0x5232F, size: 0x8, addend: 0x0, symName: '__ZN4pyo36pycell17PyRefMut$LT$T$GT$10try_borrow28_$u7b$$u7b$closure$u7d$$u7d$17h350abdee138bf8bfE', symObjAddr: 0x210, symBinAddr: 0x169F0, symSize: 0x24 }
  - { offset: 0x5237A, size: 0x8, addend: 0x0, symName: '__ZN72_$LT$pyo3..pycell..PyRef$LT$T$GT$$u20$as$u20$core..ops..deref..Deref$GT$5deref17h249479f81acb1866E', symObjAddr: 0x33C, symBinAddr: 0x16B1C, symSize: 0x74 }
  - { offset: 0x523B1, size: 0x8, addend: 0x0, symName: '__ZN72_$LT$pyo3..pycell..PyRef$LT$T$GT$$u20$as$u20$core..ops..deref..Deref$GT$5deref17h27ff95b14b4dd9efE', symObjAddr: 0x3B0, symBinAddr: 0x16B90, symSize: 0x74 }
  - { offset: 0x523E8, size: 0x8, addend: 0x0, symName: '__ZN72_$LT$pyo3..pycell..PyRef$LT$T$GT$$u20$as$u20$core..ops..deref..Deref$GT$5deref17h6833b93d70819f14E', symObjAddr: 0x424, symBinAddr: 0x16C04, symSize: 0x74 }
  - { offset: 0x52425, size: 0x8, addend: 0x0, symName: '__ZN78_$LT$pyo3..pycell..PyRefMut$LT$T$GT$$u20$as$u20$core..ops..deref..DerefMut$GT$9deref_mut17hf49852f50be5534cE', symObjAddr: 0x498, symBinAddr: 0x16C78, symSize: 0x74 }
  - { offset: 0x52462, size: 0x8, addend: 0x0, symName: '__ZN79_$LT$pyo3..pycell..PyRef$LT$T$GT$$u20$as$u20$pyo3..conversion..IntoPyObject$GT$13into_pyobject17hbf1edb1ee4a92e7dE', symObjAddr: 0x6C8, symBinAddr: 0x16EA8, symSize: 0x6C }
  - { offset: 0x5323B, size: 0x8, addend: 0x0, symName: '__ZN4pyo36pycell14PyRef$LT$T$GT$10try_borrow17h092ef9fb0a1cbe1bE', symObjAddr: 0x74, symBinAddr: 0x16854, symSize: 0x4C }
  - { offset: 0x537A3, size: 0x8, addend: 0x0, symName: '__ZN4pyo36pycell14PyRef$LT$T$GT$10try_borrow17h6a36c8802fe97677E', symObjAddr: 0xC0, symBinAddr: 0x168A0, symSize: 0x4C }
  - { offset: 0x537FA, size: 0x8, addend: 0x0, symName: '__ZN4pyo36pycell14PyRef$LT$T$GT$10try_borrow17hfe8e65099dbb615aE', symObjAddr: 0x10C, symBinAddr: 0x168EC, symSize: 0x4C }
  - { offset: 0x53844, size: 0x8, addend: 0x0, symName: '__ZN4pyo36pycell17PyRefMut$LT$T$GT$10try_borrow17h5217ac46b54fcf67E', symObjAddr: 0x1C4, symBinAddr: 0x169A4, symSize: 0x4C }
  - { offset: 0x53A2B, size: 0x8, addend: 0x0, symName: __ZN4pyo35impl_10trampoline11module_init17h3842a796dd020cedE, symObjAddr: 0x0, symBinAddr: 0x16FA8, symSize: 0x28 }
  - { offset: 0x54EAA, size: 0x8, addend: 0x0, symName: __ZN4pyo35impl_10trampoline11module_init17h3842a796dd020cedE, symObjAddr: 0x0, symBinAddr: 0x16FA8, symSize: 0x28 }
  - { offset: 0x54ED6, size: 0x8, addend: 0x0, symName: __ZN4pyo35impl_10trampoline22fastcall_with_keywords17h1d4a77f2a0191981E, symObjAddr: 0x28, symBinAddr: 0x16FD0, symSize: 0x5C }
  - { offset: 0x54F3A, size: 0x8, addend: 0x0, symName: __ZN4pyo35impl_10trampoline6noargs17h2990c52eef7c1d9bE, symObjAddr: 0x84, symBinAddr: 0x1702C, symSize: 0x64 }
  - { offset: 0x54F82, size: 0x8, addend: 0x0, symName: __ZN4pyo35impl_10trampoline7dealloc17h3dc3d96db0e576d5E, symObjAddr: 0xE8, symBinAddr: 0x17090, symSize: 0x34 }
  - { offset: 0x54FB8, size: 0x8, addend: 0x0, symName: __ZN4pyo35impl_10trampoline7newfunc17hb87e979c4b7f3d01E, symObjAddr: 0x11C, symBinAddr: 0x170C4, symSize: 0x50 }
  - { offset: 0x5500E, size: 0x8, addend: 0x0, symName: __ZN4pyo35impl_10trampoline8reprfunc17h7bc8d786ff9ed62aE, symObjAddr: 0x16C, symBinAddr: 0x17114, symSize: 0x30 }
  - { offset: 0x55987, size: 0x8, addend: 0x0, symName: '__ZN5alloc5slice29_$LT$impl$u20$$u5b$T$u5d$$GT$6repeat17h991ee38ce072f60cE', symObjAddr: 0x0, symBinAddr: 0x17144, symSize: 0x34C }
  - { offset: 0x5634F, size: 0x8, addend: 0x0, symName: '__ZN5alloc5slice29_$LT$impl$u20$$u5b$T$u5d$$GT$6repeat17h991ee38ce072f60cE', symObjAddr: 0x0, symBinAddr: 0x17144, symSize: 0x34C }
  - { offset: 0x5699C, size: 0x8, addend: 0x0, symName: '__ZN87_$LT$T$u20$as$u20$alloc..slice..$LT$impl$u20$$u5b$T$u5d$$GT$..to_vec_in..ConvertVec$GT$6to_vec17hce23790ca8830257E', symObjAddr: 0x34C, symBinAddr: 0x17490, symSize: 0xE0 }
  - { offset: 0x56FBA, size: 0x8, addend: 0x0, symName: '__ZN59_$LT$alloc..alloc..Global$u20$as$u20$core..clone..Clone$GT$5clone17h349f50af73af3aceE', symObjAddr: 0x0, symBinAddr: 0x17570, symSize: 0x10 }
  - { offset: 0x5787B, size: 0x8, addend: 0x0, symName: '__ZN59_$LT$alloc..alloc..Global$u20$as$u20$core..clone..Clone$GT$5clone17h349f50af73af3aceE', symObjAddr: 0x0, symBinAddr: 0x17570, symSize: 0x10 }
  - { offset: 0x578D1, size: 0x8, addend: 0x0, symName: '__ZN63_$LT$alloc..alloc..Global$u20$as$u20$core..alloc..Allocator$GT$10deallocate17h7a4d38a9d0d545e1E', symObjAddr: 0x2C0, symBinAddr: 0x17830, symSize: 0x80 }
  - { offset: 0x579C1, size: 0x8, addend: 0x0, symName: __ZN5alloc5alloc15exchange_malloc17h1e6c57def633a3ddE, symObjAddr: 0x10, symBinAddr: 0x17580, symSize: 0xAC }
  - { offset: 0x57AB8, size: 0x8, addend: 0x0, symName: '__ZN63_$LT$alloc..alloc..Global$u20$as$u20$core..default..Default$GT$7default17h4d9875618bde1ce1E', symObjAddr: 0x340, symBinAddr: 0x178B0, symSize: 0x4 }
  - { offset: 0x57CDB, size: 0x8, addend: 0x0, symName: __ZN5alloc5alloc6Global10alloc_impl17hbf0c9aa8b28792f6E, symObjAddr: 0xBC, symBinAddr: 0x1762C, symSize: 0x204 }
  - { offset: 0x580BF, size: 0x8, addend: 0x0, symName: '__ZN3std2io8buffered23IntoInnerError$LT$W$GT$10into_error17h50a6bba7e9a512c6E', symObjAddr: 0x0, symBinAddr: 0x178B4, symSize: 0x28 }
  - { offset: 0x58BE9, size: 0x8, addend: 0x0, symName: '__ZN3std2io8buffered23IntoInnerError$LT$W$GT$10into_error17h50a6bba7e9a512c6E', symObjAddr: 0x0, symBinAddr: 0x178B4, symSize: 0x28 }
  - { offset: 0x58C15, size: 0x8, addend: 0x0, symName: '__ZN3std2io8buffered23IntoInnerError$LT$W$GT$10into_error17hb75cb04f99d6b790E', symObjAddr: 0x28, symBinAddr: 0x178DC, symSize: 0x28 }
  - { offset: 0x58C5F, size: 0x8, addend: 0x0, symName: '__ZN103_$LT$alloc..vec..into_iter..IntoIter$LT$T$C$A$GT$$u20$as$u20$core..iter..traits..iterator..Iterator$GT$4next17h32a884b298f17769E', symObjAddr: 0x0, symBinAddr: 0x17904, symSize: 0xE4 }
  - { offset: 0x5CD38, size: 0x8, addend: 0x0, symName: __ZN4core4iter6traits10exact_size17ExactSizeIterator3len17h001e192e37fae2e4E, symObjAddr: 0x1A50, symBinAddr: 0x19354, symSize: 0xC4 }
  - { offset: 0x5CE33, size: 0x8, addend: 0x0, symName: __ZN4core4iter6traits10exact_size17ExactSizeIterator3len17h22c17a09c7975d65E, symObjAddr: 0x1B14, symBinAddr: 0x19418, symSize: 0xC4 }
  - { offset: 0x5CF2E, size: 0x8, addend: 0x0, symName: __ZN4core4iter6traits10exact_size17ExactSizeIterator3len17h5ef72cae4cc6bdcbE, symObjAddr: 0x1BD8, symBinAddr: 0x194DC, symSize: 0xC4 }
  - { offset: 0x5D029, size: 0x8, addend: 0x0, symName: __ZN4core4iter6traits10exact_size17ExactSizeIterator3len17h66c6b6287a86f252E, symObjAddr: 0x1C9C, symBinAddr: 0x195A0, symSize: 0xC4 }
  - { offset: 0x5D124, size: 0x8, addend: 0x0, symName: __ZN4core4iter6traits10exact_size17ExactSizeIterator3len17hbd606bf72f81f9a3E, symObjAddr: 0x1D60, symBinAddr: 0x19664, symSize: 0xC4 }
  - { offset: 0x5D21F, size: 0x8, addend: 0x0, symName: __ZN4core4iter6traits10exact_size17ExactSizeIterator3len17hc12eacf0362fd2c7E, symObjAddr: 0x1E24, symBinAddr: 0x19728, symSize: 0xC4 }
  - { offset: 0x5D31A, size: 0x8, addend: 0x0, symName: __ZN4core4iter6traits10exact_size17ExactSizeIterator3len17he6c6eee0f3d80b3aE, symObjAddr: 0x1EE8, symBinAddr: 0x197EC, symSize: 0xC4 }
  - { offset: 0x5D415, size: 0x8, addend: 0x0, symName: __ZN4core4iter6traits10exact_size17ExactSizeIterator3len17hfe4833bb205d420fE, symObjAddr: 0x1FAC, symBinAddr: 0x198B0, symSize: 0xC4 }
  - { offset: 0x5D56C, size: 0x8, addend: 0x0, symName: __ZN4core4iter6traits8iterator8Iterator3map17h0b59bc896a66dde0E, symObjAddr: 0x2070, symBinAddr: 0x19974, symSize: 0x28 }
  - { offset: 0x5D5D9, size: 0x8, addend: 0x0, symName: __ZN4core4iter6traits8iterator8Iterator3map17h30ecb21410dcacd2E, symObjAddr: 0x2098, symBinAddr: 0x1999C, symSize: 0x28 }
  - { offset: 0x5D646, size: 0x8, addend: 0x0, symName: __ZN4core4iter6traits8iterator8Iterator3map17h58aab1881f9d4effE, symObjAddr: 0x20C0, symBinAddr: 0x199C4, symSize: 0x1C }
  - { offset: 0x5D6B3, size: 0x8, addend: 0x0, symName: __ZN4core4iter6traits8iterator8Iterator3map17h753dc0284d0a7811E, symObjAddr: 0x20DC, symBinAddr: 0x199E0, symSize: 0x28 }
  - { offset: 0x5D720, size: 0x8, addend: 0x0, symName: __ZN4core4iter6traits8iterator8Iterator3map17h8877eefed4d71be9E, symObjAddr: 0x2104, symBinAddr: 0x19A08, symSize: 0x28 }
  - { offset: 0x5D78D, size: 0x8, addend: 0x0, symName: __ZN4core4iter6traits8iterator8Iterator3map17hb4efbc022fcb87faE, symObjAddr: 0x212C, symBinAddr: 0x19A30, symSize: 0x1C }
  - { offset: 0x5D7FA, size: 0x8, addend: 0x0, symName: __ZN4core4iter6traits8iterator8Iterator3map17hcb239358a6ea9f39E, symObjAddr: 0x2148, symBinAddr: 0x19A4C, symSize: 0x28 }
  - { offset: 0x5D867, size: 0x8, addend: 0x0, symName: __ZN4core4iter6traits8iterator8Iterator3map17hce8fc6bcbba236c2E, symObjAddr: 0x2170, symBinAddr: 0x19A74, symSize: 0x1C }
  - { offset: 0x5D8D4, size: 0x8, addend: 0x0, symName: __ZN4core4iter6traits8iterator8Iterator3map17hf9fb8445518b0b5dE, symObjAddr: 0x218C, symBinAddr: 0x19A90, symSize: 0x28 }
  - { offset: 0x5D941, size: 0x8, addend: 0x0, symName: __ZN4core4iter6traits8iterator8Iterator3rev17h188ef48be2ac8bf3E, symObjAddr: 0x21B4, symBinAddr: 0x19AB8, symSize: 0x14 }
  - { offset: 0x5D972, size: 0x8, addend: 0x0, symName: __ZN4core4iter6traits8iterator8Iterator3rev17h188ef48be2ac8bf3E, symObjAddr: 0x21B4, symBinAddr: 0x19AB8, symSize: 0x14 }
  - { offset: 0x5E1A9, size: 0x8, addend: 0x0, symName: '__ZN103_$LT$alloc..vec..into_iter..IntoIter$LT$T$C$A$GT$$u20$as$u20$core..iter..traits..iterator..Iterator$GT$4next17h32a884b298f17769E', symObjAddr: 0x0, symBinAddr: 0x17904, symSize: 0xE4 }
  - { offset: 0x5E31D, size: 0x8, addend: 0x0, symName: '__ZN103_$LT$alloc..vec..into_iter..IntoIter$LT$T$C$A$GT$$u20$as$u20$core..iter..traits..iterator..Iterator$GT$4next17h4491457b6ca85111E', symObjAddr: 0xE4, symBinAddr: 0x179E8, symSize: 0xD0 }
  - { offset: 0x5E498, size: 0x8, addend: 0x0, symName: '__ZN103_$LT$alloc..vec..into_iter..IntoIter$LT$T$C$A$GT$$u20$as$u20$core..iter..traits..iterator..Iterator$GT$4next17h5f9b133b1404b26cE', symObjAddr: 0x1B4, symBinAddr: 0x17AB8, symSize: 0xDC }
  - { offset: 0x5E60A, size: 0x8, addend: 0x0, symName: '__ZN103_$LT$alloc..vec..into_iter..IntoIter$LT$T$C$A$GT$$u20$as$u20$core..iter..traits..iterator..Iterator$GT$4next17h5fabaeba1db6928aE', symObjAddr: 0x290, symBinAddr: 0x17B94, symSize: 0xAC }
  - { offset: 0x5E781, size: 0x8, addend: 0x0, symName: '__ZN103_$LT$alloc..vec..into_iter..IntoIter$LT$T$C$A$GT$$u20$as$u20$core..iter..traits..iterator..Iterator$GT$4next17h9545c4ec25c70433E', symObjAddr: 0x33C, symBinAddr: 0x17C40, symSize: 0xDC }
  - { offset: 0x5E8F3, size: 0x8, addend: 0x0, symName: '__ZN103_$LT$alloc..vec..into_iter..IntoIter$LT$T$C$A$GT$$u20$as$u20$core..iter..traits..iterator..Iterator$GT$4next17h9ded5e9f05ced6b9E', symObjAddr: 0x418, symBinAddr: 0x17D1C, symSize: 0xD0 }
  - { offset: 0x5EA6E, size: 0x8, addend: 0x0, symName: '__ZN103_$LT$alloc..vec..into_iter..IntoIter$LT$T$C$A$GT$$u20$as$u20$core..iter..traits..iterator..Iterator$GT$4next17hc877bcf8d3e904a7E', symObjAddr: 0x4E8, symBinAddr: 0x17DEC, symSize: 0xE4 }
  - { offset: 0x5EBE2, size: 0x8, addend: 0x0, symName: '__ZN103_$LT$alloc..vec..into_iter..IntoIter$LT$T$C$A$GT$$u20$as$u20$core..iter..traits..iterator..Iterator$GT$8try_fold17h02ec9411649001f6E', symObjAddr: 0x5CC, symBinAddr: 0x17ED0, symSize: 0x1BC }
  - { offset: 0x5EDE0, size: 0x8, addend: 0x0, symName: '__ZN103_$LT$alloc..vec..into_iter..IntoIter$LT$T$C$A$GT$$u20$as$u20$core..iter..traits..iterator..Iterator$GT$8try_fold17h102d3b70eb097fd3E', symObjAddr: 0x788, symBinAddr: 0x1808C, symSize: 0x1CC }
  - { offset: 0x5EFDF, size: 0x8, addend: 0x0, symName: '__ZN103_$LT$alloc..vec..into_iter..IntoIter$LT$T$C$A$GT$$u20$as$u20$core..iter..traits..iterator..Iterator$GT$8try_fold17h2de37cd01981d868E', symObjAddr: 0x954, symBinAddr: 0x18258, symSize: 0x1E0 }
  - { offset: 0x5F1C1, size: 0x8, addend: 0x0, symName: '__ZN103_$LT$alloc..vec..into_iter..IntoIter$LT$T$C$A$GT$$u20$as$u20$core..iter..traits..iterator..Iterator$GT$8try_fold17h3d0a06eee9c09cebE', symObjAddr: 0xB34, symBinAddr: 0x18438, symSize: 0x1BC }
  - { offset: 0x5F3BF, size: 0x8, addend: 0x0, symName: '__ZN103_$LT$alloc..vec..into_iter..IntoIter$LT$T$C$A$GT$$u20$as$u20$core..iter..traits..iterator..Iterator$GT$8try_fold17h3f72c74e87468bf8E', symObjAddr: 0xCF0, symBinAddr: 0x185F4, symSize: 0x1F0 }
  - { offset: 0x5F5A1, size: 0x8, addend: 0x0, symName: '__ZN103_$LT$alloc..vec..into_iter..IntoIter$LT$T$C$A$GT$$u20$as$u20$core..iter..traits..iterator..Iterator$GT$8try_fold17h4f755486ac2c53a3E', symObjAddr: 0xEE0, symBinAddr: 0x187E4, symSize: 0x1CC }
  - { offset: 0x5F7A0, size: 0x8, addend: 0x0, symName: '__ZN103_$LT$alloc..vec..into_iter..IntoIter$LT$T$C$A$GT$$u20$as$u20$core..iter..traits..iterator..Iterator$GT$8try_fold17h69036716e9166a2fE', symObjAddr: 0x10AC, symBinAddr: 0x189B0, symSize: 0x194 }
  - { offset: 0x5F99F, size: 0x8, addend: 0x0, symName: '__ZN103_$LT$alloc..vec..into_iter..IntoIter$LT$T$C$A$GT$$u20$as$u20$core..iter..traits..iterator..Iterator$GT$8try_fold17hbffd37c8a8d70e6dE', symObjAddr: 0x1240, symBinAddr: 0x18B44, symSize: 0x1CC }
  - { offset: 0x5FB9E, size: 0x8, addend: 0x0, symName: '__ZN103_$LT$alloc..vec..into_iter..IntoIter$LT$T$C$A$GT$$u20$as$u20$core..iter..traits..iterator..Iterator$GT$8try_fold17hc9f7f64c2e2a8d49E', symObjAddr: 0x140C, symBinAddr: 0x18D10, symSize: 0x1F0 }
  - { offset: 0x5FD80, size: 0x8, addend: 0x0, symName: '__ZN103_$LT$alloc..vec..into_iter..IntoIter$LT$T$C$A$GT$$u20$as$u20$core..iter..traits..iterator..Iterator$GT$9size_hint17h037e8da939e42d2bE', symObjAddr: 0x15FC, symBinAddr: 0x18F00, symSize: 0x6C }
  - { offset: 0x5FDDB, size: 0x8, addend: 0x0, symName: '__ZN103_$LT$alloc..vec..into_iter..IntoIter$LT$T$C$A$GT$$u20$as$u20$core..iter..traits..iterator..Iterator$GT$9size_hint17h079a5292253a7aa4E', symObjAddr: 0x1668, symBinAddr: 0x18F6C, symSize: 0x6C }
  - { offset: 0x5FE36, size: 0x8, addend: 0x0, symName: '__ZN103_$LT$alloc..vec..into_iter..IntoIter$LT$T$C$A$GT$$u20$as$u20$core..iter..traits..iterator..Iterator$GT$9size_hint17h10aa6f47bc328658E', symObjAddr: 0x16D4, symBinAddr: 0x18FD8, symSize: 0x6C }
  - { offset: 0x5FE91, size: 0x8, addend: 0x0, symName: '__ZN103_$LT$alloc..vec..into_iter..IntoIter$LT$T$C$A$GT$$u20$as$u20$core..iter..traits..iterator..Iterator$GT$9size_hint17h3987cdd148316774E', symObjAddr: 0x1740, symBinAddr: 0x19044, symSize: 0x6C }
  - { offset: 0x5FEEC, size: 0x8, addend: 0x0, symName: '__ZN103_$LT$alloc..vec..into_iter..IntoIter$LT$T$C$A$GT$$u20$as$u20$core..iter..traits..iterator..Iterator$GT$9size_hint17h6b90d24c801d93b0E', symObjAddr: 0x17AC, symBinAddr: 0x190B0, symSize: 0x6C }
  - { offset: 0x5FF47, size: 0x8, addend: 0x0, symName: '__ZN103_$LT$alloc..vec..into_iter..IntoIter$LT$T$C$A$GT$$u20$as$u20$core..iter..traits..iterator..Iterator$GT$9size_hint17h7586d2fc444dffacE', symObjAddr: 0x1818, symBinAddr: 0x1911C, symSize: 0x6C }
  - { offset: 0x5FFA2, size: 0x8, addend: 0x0, symName: '__ZN103_$LT$alloc..vec..into_iter..IntoIter$LT$T$C$A$GT$$u20$as$u20$core..iter..traits..iterator..Iterator$GT$9size_hint17ha0100caf49f4b02dE', symObjAddr: 0x1884, symBinAddr: 0x19188, symSize: 0x6C }
  - { offset: 0x5FFFD, size: 0x8, addend: 0x0, symName: '__ZN103_$LT$alloc..vec..into_iter..IntoIter$LT$T$C$A$GT$$u20$as$u20$core..iter..traits..iterator..Iterator$GT$9size_hint17hc6f9856fcb438dd6E', symObjAddr: 0x18F0, symBinAddr: 0x191F4, symSize: 0x6C }
  - { offset: 0x6005E, size: 0x8, addend: 0x0, symName: '__ZN104_$LT$alloc..vec..into_iter..IntoIter$LT$T$GT$$u20$as$u20$alloc..vec..in_place_collect..AsVecIntoIter$GT$12as_into_iter17h49240632b011807aE', symObjAddr: 0x195C, symBinAddr: 0x19260, symSize: 0x14 }
  - { offset: 0x60095, size: 0x8, addend: 0x0, symName: '__ZN104_$LT$alloc..vec..into_iter..IntoIter$LT$T$GT$$u20$as$u20$alloc..vec..in_place_collect..AsVecIntoIter$GT$12as_into_iter17hfe3b3e5160334338E', symObjAddr: 0x1970, symBinAddr: 0x19274, symSize: 0x14 }
  - { offset: 0x600D2, size: 0x8, addend: 0x0, symName: '__ZN118_$LT$alloc..vec..into_iter..IntoIter$LT$T$C$A$GT$$u20$as$u20$core..iter..traits..double_ended..DoubleEndedIterator$GT$9next_back17h853c92d33388fbaeE', symObjAddr: 0x1984, symBinAddr: 0x19288, symSize: 0xCC }
  - { offset: 0x60558, size: 0x8, addend: 0x0, symName: '__ZN97_$LT$alloc..vec..into_iter..IntoIter$LT$T$C$A$GT$$u20$as$u20$core..iter..adapters..SourceIter$GT$8as_inner17h704e29802796531dE', symObjAddr: 0x2320, symBinAddr: 0x19C24, symSize: 0x14 }
  - { offset: 0x60598, size: 0x8, addend: 0x0, symName: '__ZN97_$LT$alloc..vec..into_iter..IntoIter$LT$T$C$A$GT$$u20$as$u20$core..iter..adapters..SourceIter$GT$8as_inner17h9ba62d0be8fd3a6dE', symObjAddr: 0x2334, symBinAddr: 0x19C38, symSize: 0x14 }
  - { offset: 0x621AC, size: 0x8, addend: 0x0, symName: '__ZN5alloc3vec9into_iter21IntoIter$LT$T$C$A$GT$32forget_allocation_drop_remaining17h97df17542372008dE', symObjAddr: 0x21C8, symBinAddr: 0x19ACC, symSize: 0xAC }
  - { offset: 0x623DF, size: 0x8, addend: 0x0, symName: '__ZN5alloc3vec9into_iter21IntoIter$LT$T$C$A$GT$32forget_allocation_drop_remaining17hc0d50d921a480e0eE', symObjAddr: 0x2274, symBinAddr: 0x19B78, symSize: 0xAC }
  - { offset: 0x62BCA, size: 0x8, addend: 0x0, symName: '__ZN111_$LT$T$u20$as$u20$pyo3..impl_..callback..IntoPyCallbackOutput$LT$$BP$mut$u20$pyo3_ffi..object..PyObject$GT$$GT$7convert17h18eb437f1725e626E', symObjAddr: 0x0, symBinAddr: 0x19C4C, symSize: 0x2C }
  - { offset: 0x6361A, size: 0x8, addend: 0x0, symName: '__ZN4core4hash5impls52_$LT$impl$u20$core..hash..Hash$u20$for$u20$$RF$T$GT$4hash17h087e212cd8312e61E', symObjAddr: 0x50, symBinAddr: 0x19C9C, symSize: 0x30 }
  - { offset: 0x63665, size: 0x8, addend: 0x0, symName: '__ZN4core4hash5impls52_$LT$impl$u20$core..hash..Hash$u20$for$u20$$RF$T$GT$4hash17hca491c023ebaca5bE', symObjAddr: 0x80, symBinAddr: 0x19CCC, symSize: 0x30 }
  - { offset: 0x637DB, size: 0x8, addend: 0x0, symName: '__ZN4core5slice29_$LT$impl$u20$$u5b$T$u5d$$GT$18split_at_unchecked17hb8d4249539df1c4aE', symObjAddr: 0xB0, symBinAddr: 0x19CFC, symSize: 0xFC }
  - { offset: 0x63934, size: 0x8, addend: 0x0, symName: '__ZN4core5slice29_$LT$impl$u20$$u5b$T$u5d$$GT$4iter17he5adac24d09df439E', symObjAddr: 0x1AC, symBinAddr: 0x19DF8, symSize: 0x28 }
  - { offset: 0x6399E, size: 0x8, addend: 0x0, symName: '__ZN4core5slice29_$LT$impl$u20$$u5b$T$u5d$$GT$8split_at17hd82de81a92048c25E', symObjAddr: 0x1D4, symBinAddr: 0x19E20, symSize: 0xD8 }
  - { offset: 0x64DC3, size: 0x8, addend: 0x0, symName: '__ZN51_$LT$T$u20$as$u20$core..borrow..Borrow$LT$T$GT$$GT$6borrow17hd7ed915cc8992fe9E', symObjAddr: 0xCB0, symBinAddr: 0x1A8FC, symSize: 0x14 }
  - { offset: 0x64DF8, size: 0x8, addend: 0x0, symName: '__ZN51_$LT$T$u20$as$u20$core..borrow..Borrow$LT$T$GT$$GT$6borrow17he39bcb96c36ac5a0E', symObjAddr: 0xCC4, symBinAddr: 0x1A910, symSize: 0x14 }
  - { offset: 0x65254, size: 0x8, addend: 0x0, symName: '__ZN111_$LT$T$u20$as$u20$pyo3..impl_..callback..IntoPyCallbackOutput$LT$$BP$mut$u20$pyo3_ffi..object..PyObject$GT$$GT$7convert17h18eb437f1725e626E', symObjAddr: 0x0, symBinAddr: 0x19C4C, symSize: 0x2C }
  - { offset: 0x652AF, size: 0x8, addend: 0x0, symName: '__ZN80_$LT$T$u20$as$u20$pyo3..impl_..extract_argument..PyFunctionArgument$LT$_$GT$$GT$7extract17hfac9b4d57eea9864E', symObjAddr: 0xF40, symBinAddr: 0x1AB8C, symSize: 0x28 }
  - { offset: 0x65316, size: 0x8, addend: 0x0, symName: __ZN4pyo310conversion12IntoPyObject28owned_sequence_into_pyobject17h1c527f5c89926a1aE, symObjAddr: 0x2AC, symBinAddr: 0x19EF8, symSize: 0xA4 }
  - { offset: 0x653AB, size: 0x8, addend: 0x0, symName: __ZN4pyo310conversion12IntoPyObject28owned_sequence_into_pyobject17h38e5af6b53213cc0E, symObjAddr: 0x350, symBinAddr: 0x19F9C, symSize: 0xA4 }
  - { offset: 0x65440, size: 0x8, addend: 0x0, symName: __ZN4pyo310conversion12IntoPyObject28owned_sequence_into_pyobject17hc528909ca81006aaE, symObjAddr: 0x3F4, symBinAddr: 0x1A040, symSize: 0xA4 }
  - { offset: 0x6551A, size: 0x8, addend: 0x0, symName: __ZN4pyo310conversion15IntoPyObjectExt17into_bound_py_any17h7bda45073d409689E, symObjAddr: 0x498, symBinAddr: 0x1A0E4, symSize: 0xAC }
  - { offset: 0x655AA, size: 0x8, addend: 0x0, symName: __ZN4pyo310conversion15IntoPyObjectExt17into_bound_py_any17hec5afb5d8c1fe420E, symObjAddr: 0x544, symBinAddr: 0x1A190, symSize: 0xAC }
  - { offset: 0x6563A, size: 0x8, addend: 0x0, symName: __ZN4pyo310conversion15IntoPyObjectExt22into_pyobject_or_pyerr17h016fd4c3d2227dacE, symObjAddr: 0x5F0, symBinAddr: 0x1A23C, symSize: 0x40 }
  - { offset: 0x656B1, size: 0x8, addend: 0x0, symName: '__ZN57_$LT$T$u20$as$u20$pyo3..conversion..FromPyObjectBound$GT$20from_py_object_bound17h6fa4d343ebd6c303E', symObjAddr: 0xD78, symBinAddr: 0x1A9C4, symSize: 0x34 }
  - { offset: 0x656E8, size: 0x8, addend: 0x0, symName: '__ZN57_$LT$T$u20$as$u20$pyo3..conversion..FromPyObjectBound$GT$20from_py_object_bound17h8f27fd9e41a47773E', symObjAddr: 0xDAC, symBinAddr: 0x1A9F8, symSize: 0x34 }
  - { offset: 0x6573E, size: 0x8, addend: 0x0, symName: '__ZN4pyo35types5tuple76_$LT$impl$u20$pyo3..conversion..FromPyObject$u20$for$u20$$LP$T0$C$T1$RP$$GT$13extract_bound17hf74be98699c0e272E', symObjAddr: 0x630, symBinAddr: 0x1A27C, symSize: 0x29C }
  - { offset: 0x65816, size: 0x8, addend: 0x0, symName: '__ZN4pyo35types5tuple76_$LT$impl$u20$pyo3..conversion..IntoPyObject$u20$for$u20$$LP$T0$C$T1$RP$$GT$13into_pyobject17hbcae6530ebba3cd7E', symObjAddr: 0x8CC, symBinAddr: 0x1A518, symSize: 0x208 }
  - { offset: 0x658C6, size: 0x8, addend: 0x0, symName: '__ZN4pyo35types5tuple76_$LT$impl$u20$pyo3..conversion..IntoPyObject$u20$for$u20$$LP$T0$C$T1$RP$$GT$13into_pyobject17hd0f1e816ebcc142cE', symObjAddr: 0xAD4, symBinAddr: 0x1A720, symSize: 0x1DC }
  - { offset: 0x65D0E, size: 0x8, addend: 0x0, symName: '__ZN45_$LT$T$u20$as$u20$alloc..string..ToString$GT$9to_string17h31d770844bf2fed2E', symObjAddr: 0x2C, symBinAddr: 0x19C78, symSize: 0x24 }
  - { offset: 0x65DC6, size: 0x8, addend: 0x0, symName: '__ZN58_$LT$alloc..string..String$u20$as$u20$core..hash..Hash$GT$4hash17hec1f9c3e7b6048f3E', symObjAddr: 0xE08, symBinAddr: 0x1AA54, symSize: 0x90 }
  - { offset: 0x65F74, size: 0x8, addend: 0x0, symName: '__ZN74_$LT$alloc..string..String$u20$as$u20$core..ops..index..Index$LT$I$GT$$GT$5index17h23dd394525bcb5e0E', symObjAddr: 0xEB0, symBinAddr: 0x1AAFC, symSize: 0x90 }
  - { offset: 0x660C4, size: 0x8, addend: 0x0, symName: '__ZN89_$LT$alloc..string..String$u20$as$u20$core..iter..traits..collect..Extend$LT$char$GT$$GT$6extend17h60d96cc89bfa57afE', symObjAddr: 0xF68, symBinAddr: 0x1ABB4, symSize: 0xB4 }
  - { offset: 0x66166, size: 0x8, addend: 0x0, symName: '__ZN89_$LT$alloc..string..String$u20$as$u20$core..iter..traits..collect..Extend$LT$char$GT$$GT$6extend28_$u7b$$u7b$closure$u7d$$u7d$17h7759a9a13bd171eaE', symObjAddr: 0x101C, symBinAddr: 0x1AC68, symSize: 0x34 }
  - { offset: 0x661B1, size: 0x8, addend: 0x0, symName: '__ZN95_$LT$alloc..string..String$u20$as$u20$core..iter..traits..collect..FromIterator$LT$char$GT$$GT$9from_iter17h7bf79fe17ea3c22bE', symObjAddr: 0x1050, symBinAddr: 0x1AC9C, symSize: 0x88 }
  - { offset: 0x668B9, size: 0x8, addend: 0x0, symName: '__ZN52_$LT$Q$u20$as$u20$hashbrown..Equivalent$LT$K$GT$$GT$10equivalent17h73d554e4aa9224e7E', symObjAddr: 0xCD8, symBinAddr: 0x1A924, symSize: 0x50 }
  - { offset: 0x6692A, size: 0x8, addend: 0x0, symName: '__ZN52_$LT$Q$u20$as$u20$hashbrown..Equivalent$LT$K$GT$$GT$10equivalent17h7f6e9e2b9816faebE', symObjAddr: 0xD28, symBinAddr: 0x1A974, symSize: 0x50 }
  - { offset: 0x66A82, size: 0x8, addend: 0x0, symName: '__ZN58_$LT$I$u20$as$u20$rayon..iter..IntoParallelRefIterator$GT$8par_iter17h902e0796665f3891E', symObjAddr: 0xDE0, symBinAddr: 0x1AA2C, symSize: 0x28 }
  - { offset: 0x66AC5, size: 0x8, addend: 0x0, symName: '__ZN5rayon5slice79_$LT$impl$u20$rayon..iter..IntoParallelIterator$u20$for$u20$$RF$$u5b$T$u5d$$GT$13into_par_iter17h9c7dc98769c5d490E', symObjAddr: 0xE98, symBinAddr: 0x1AAE4, symSize: 0x18 }
  - { offset: 0x6753E, size: 0x8, addend: 0x0, symName: __ZN3std2io4copy12generic_copy17h09a17335656ba635E, symObjAddr: 0x0, symBinAddr: 0x1AD24, symSize: 0xAC }
  - { offset: 0x678CB, size: 0x8, addend: 0x0, symName: __ZN3std2io4copy12generic_copy17h09a17335656ba635E, symObjAddr: 0x0, symBinAddr: 0x1AD24, symSize: 0xAC }
  - { offset: 0x67951, size: 0x8, addend: 0x0, symName: __ZN3std2io4copy17stack_buffer_copy17h52c273e63d92ab49E, symObjAddr: 0xAC, symBinAddr: 0x1ADD0, symSize: 0x474 }
  - { offset: 0x67EDD, size: 0x8, addend: 0x0, symName: __ZN3std2io4copy4copy17h7023aa6c61abda4cE, symObjAddr: 0x520, symBinAddr: 0x1B244, symSize: 0x2C }
  - { offset: 0x68929, size: 0x8, addend: 0x0, symName: '__ZN100_$LT$pyo3..types..tuple..BorrowedTupleIterator$u20$as$u20$core..iter..traits..iterator..Iterator$GT$4next17h16b573cf18c94ca4E', symObjAddr: 0x0, symBinAddr: 0x1B270, symSize: 0x9C }
  - { offset: 0x69B3D, size: 0x8, addend: 0x0, symName: '__ZN100_$LT$pyo3..types..tuple..BorrowedTupleIterator$u20$as$u20$core..iter..traits..iterator..Iterator$GT$4next17h16b573cf18c94ca4E', symObjAddr: 0x0, symBinAddr: 0x1B270, symSize: 0x9C }
  - { offset: 0x69B87, size: 0x8, addend: 0x0, symName: '__ZN77_$LT$pyo3..types..tuple..PyTuple$u20$as$u20$pyo3..type_object..PyTypeInfo$GT$10is_type_of17h6946b6f3f9f76350E', symObjAddr: 0x9C, symBinAddr: 0x1B30C, symSize: 0x30 }
  - { offset: 0x6A283, size: 0x8, addend: 0x0, symName: '__ZN102_$LT$core..iter..adapters..zip..Zip$LT$A$C$B$GT$$u20$as$u20$core..iter..traits..iterator..Iterator$GT$4next17h872e8a54ef712b75E', symObjAddr: 0x0, symBinAddr: 0x1B33C, symSize: 0x24 }
  - { offset: 0x6AA80, size: 0x8, addend: 0x0, symName: '__ZN102_$LT$core..iter..adapters..zip..Zip$LT$A$C$B$GT$$u20$as$u20$core..iter..traits..iterator..Iterator$GT$4next17h872e8a54ef712b75E', symObjAddr: 0x0, symBinAddr: 0x1B33C, symSize: 0x24 }
  - { offset: 0x6AABE, size: 0x8, addend: 0x0, symName: '__ZN102_$LT$core..iter..adapters..zip..Zip$LT$A$C$B$GT$$u20$as$u20$core..iter..traits..iterator..Iterator$GT$4next17hc7310d74a00e6747E', symObjAddr: 0x24, symBinAddr: 0x1B360, symSize: 0x24 }
  - { offset: 0x6AB02, size: 0x8, addend: 0x0, symName: '__ZN111_$LT$core..iter..adapters..zip..Zip$LT$A$C$B$GT$$u20$as$u20$core..iter..adapters..zip..ZipImpl$LT$A$C$B$GT$$GT$3new17h3677aead32aa1488E', symObjAddr: 0x48, symBinAddr: 0x1B384, symSize: 0x40 }
  - { offset: 0x6AB4E, size: 0x8, addend: 0x0, symName: '__ZN111_$LT$core..iter..adapters..zip..Zip$LT$A$C$B$GT$$u20$as$u20$core..iter..adapters..zip..ZipImpl$LT$A$C$B$GT$$GT$4next17hd74f9b391403a142E', symObjAddr: 0x204, symBinAddr: 0x1B540, symSize: 0xE0 }
  - { offset: 0x6ACAD, size: 0x8, addend: 0x0, symName: '__ZN111_$LT$core..iter..adapters..zip..Zip$LT$A$C$B$GT$$u20$as$u20$core..iter..adapters..zip..ZipImpl$LT$A$C$B$GT$$GT$3new17hf286b81249622e1dE', symObjAddr: 0x88, symBinAddr: 0x1B3C4, symSize: 0xC4 }
  - { offset: 0x6AD5E, size: 0x8, addend: 0x0, symName: '__ZN111_$LT$core..iter..adapters..zip..Zip$LT$A$C$B$GT$$u20$as$u20$core..iter..adapters..zip..ZipImpl$LT$A$C$B$GT$$GT$4next17h45ed9de1e4422c3bE', symObjAddr: 0x14C, symBinAddr: 0x1B488, symSize: 0xB8 }
  - { offset: 0x6AEEF, size: 0x8, addend: 0x0, symName: '__ZN63_$LT$I$u20$as$u20$core..iter..traits..collect..IntoIterator$GT$9into_iter17h74afea12b34111c0E', symObjAddr: 0x2E4, symBinAddr: 0x1B620, symSize: 0x30 }
  - { offset: 0x6AF27, size: 0x8, addend: 0x0, symName: '__ZN63_$LT$I$u20$as$u20$core..iter..traits..collect..IntoIterator$GT$9into_iter17h8342464c1fd97448E', symObjAddr: 0x314, symBinAddr: 0x1B650, symSize: 0x30 }
  - { offset: 0x6AF5F, size: 0x8, addend: 0x0, symName: '__ZN63_$LT$I$u20$as$u20$core..iter..traits..collect..IntoIterator$GT$9into_iter17hbe4ece884c89b976E', symObjAddr: 0x344, symBinAddr: 0x1B680, symSize: 0x30 }
  - { offset: 0x6C624, size: 0x8, addend: 0x0, symName: '__ZN69_$LT$zip..write..ZipWriterStats$u20$as$u20$core..default..Default$GT$7default17h105e499a1a4b20e9E', symObjAddr: 0x0, symBinAddr: 0x1B6B0, symSize: 0x38 }
  - { offset: 0x6C640, size: 0x8, addend: 0x0, symName: '__ZN69_$LT$zip..write..ZipWriterStats$u20$as$u20$core..default..Default$GT$7default17h105e499a1a4b20e9E', symObjAddr: 0x0, symBinAddr: 0x1B6B0, symSize: 0x38 }
  - { offset: 0x6C779, size: 0x8, addend: 0x0, symName: '__ZN4pyo35impl_4wrap82EmptyTupleConverter$LT$core..result..Result$LT$$LP$$RP$$C$pyo3..err..PyErr$GT$$GT$12map_into_ptr17h5a8811678cf44d66E', symObjAddr: 0x0, symBinAddr: 0x1B6E8, symSize: 0x2C }
  - { offset: 0x6CF3C, size: 0x8, addend: 0x0, symName: __ZN8pyo3_ffi13unicodeobject15PyUnicode_Check17h8ac3773821fb02aaE, symObjAddr: 0x2C, symBinAddr: 0x1B714, symSize: 0x30 }
  - { offset: 0x6E527, size: 0x8, addend: 0x0, symName: '__ZN4pyo35impl_4wrap82EmptyTupleConverter$LT$core..result..Result$LT$$LP$$RP$$C$pyo3..err..PyErr$GT$$GT$12map_into_ptr17h5a8811678cf44d66E', symObjAddr: 0x0, symBinAddr: 0x1B6E8, symSize: 0x2C }
  - { offset: 0x6E58F, size: 0x8, addend: 0x0, symName: '__ZN4core3str6traits108_$LT$impl$u20$core..slice..index..SliceIndex$LT$str$GT$$u20$for$u20$core..ops..range..Range$LT$usize$GT$$GT$3get17h92e7319d50ab16d1E', symObjAddr: 0x0, symBinAddr: 0x1B744, symSize: 0x208 }
  - { offset: 0x6E624, size: 0x8, addend: 0x0, symName: '__ZN4core3str6traits108_$LT$impl$u20$core..slice..index..SliceIndex$LT$str$GT$$u20$for$u20$core..ops..range..Range$LT$usize$GT$$GT$3get17h92e7319d50ab16d1E', symObjAddr: 0x0, symBinAddr: 0x1B744, symSize: 0x208 }
  - { offset: 0x6E7B8, size: 0x8, addend: 0x0, symName: '__ZN4core3str6traits117_$LT$impl$u20$core..slice..index..SliceIndex$LT$str$GT$$u20$for$u20$core..ops..range..RangeInclusive$LT$usize$GT$$GT$5index17h12ef2b970b57277bE', symObjAddr: 0x208, symBinAddr: 0x1B94C, symSize: 0x110 }
  - { offset: 0x6E878, size: 0x8, addend: 0x0, symName: '__ZN4core3str6traits119_$LT$impl$u20$core..slice..index..SliceIndex$LT$str$GT$$u20$for$u20$core..ops..range..RangeToInclusive$LT$usize$GT$$GT$5index17hb73c6b7765d6b930E', symObjAddr: 0x318, symBinAddr: 0x1BA5C, symSize: 0x48 }
  - { offset: 0x6EBA3, size: 0x8, addend: 0x0, symName: __ZN9hashbrown7control3tag3Tag4full17h33f772f235a9dce5E, symObjAddr: 0x0, symBinAddr: 0x1BAA4, symSize: 0xA4 }
  - { offset: 0x6EC0F, size: 0x8, addend: 0x0, symName: __ZN9hashbrown7control3tag3Tag4full17h33f772f235a9dce5E, symObjAddr: 0x0, symBinAddr: 0x1BAA4, symSize: 0xA4 }
  - { offset: 0x6EC55, size: 0x8, addend: 0x0, symName: __ZN9hashbrown7control3tag3Tag7is_full17hd4eaf4a0fbc6d6a6E, symObjAddr: 0xA4, symBinAddr: 0x1BB48, symSize: 0x1C }
  - { offset: 0x6EC95, size: 0x8, addend: 0x0, symName: '__ZN10rayon_core3job18JobResult$LT$T$GT$17into_return_value17h052760eaf430b66bE', symObjAddr: 0x0, symBinAddr: 0x1BB64, symSize: 0xA0 }
  - { offset: 0x6FCF0, size: 0x8, addend: 0x0, symName: '__ZN10rayon_core3job18JobResult$LT$T$GT$4call28_$u7b$$u7b$closure$u7d$$u7d$17h0861b172af4080a0E', symObjAddr: 0xCD8, symBinAddr: 0x1C83C, symSize: 0x48 }
  - { offset: 0x6FD30, size: 0x8, addend: 0x0, symName: '__ZN10rayon_core3job18JobResult$LT$T$GT$4call28_$u7b$$u7b$closure$u7d$$u7d$17h130e2c0b4a7ab42eE', symObjAddr: 0xD20, symBinAddr: 0x1C884, symSize: 0x48 }
  - { offset: 0x6FD70, size: 0x8, addend: 0x0, symName: '__ZN10rayon_core3job18JobResult$LT$T$GT$4call28_$u7b$$u7b$closure$u7d$$u7d$17h1381058db3bf6fa7E', symObjAddr: 0xD68, symBinAddr: 0x1C8CC, symSize: 0x48 }
  - { offset: 0x6FDB0, size: 0x8, addend: 0x0, symName: '__ZN10rayon_core3job18JobResult$LT$T$GT$4call28_$u7b$$u7b$closure$u7d$$u7d$17h1e321698c72ad302E', symObjAddr: 0xDB0, symBinAddr: 0x1C914, symSize: 0x48 }
  - { offset: 0x6FDF0, size: 0x8, addend: 0x0, symName: '__ZN10rayon_core3job18JobResult$LT$T$GT$4call28_$u7b$$u7b$closure$u7d$$u7d$17h22d1e9a4ac7e97faE', symObjAddr: 0xDF8, symBinAddr: 0x1C95C, symSize: 0x48 }
  - { offset: 0x6FE30, size: 0x8, addend: 0x0, symName: '__ZN10rayon_core3job18JobResult$LT$T$GT$4call28_$u7b$$u7b$closure$u7d$$u7d$17h2b535b6222d1c024E', symObjAddr: 0xE40, symBinAddr: 0x1C9A4, symSize: 0x3C }
  - { offset: 0x6FE70, size: 0x8, addend: 0x0, symName: '__ZN10rayon_core3job18JobResult$LT$T$GT$4call28_$u7b$$u7b$closure$u7d$$u7d$17h4fc32c2176e86f1fE', symObjAddr: 0xE7C, symBinAddr: 0x1C9E0, symSize: 0x48 }
  - { offset: 0x6FEB0, size: 0x8, addend: 0x0, symName: '__ZN10rayon_core3job18JobResult$LT$T$GT$4call28_$u7b$$u7b$closure$u7d$$u7d$17h7edc8feb4d1e00c4E', symObjAddr: 0xEC4, symBinAddr: 0x1CA28, symSize: 0x48 }
  - { offset: 0x6FEF0, size: 0x8, addend: 0x0, symName: '__ZN10rayon_core3job18JobResult$LT$T$GT$4call28_$u7b$$u7b$closure$u7d$$u7d$17h8ee258ec0aa5de37E', symObjAddr: 0xF0C, symBinAddr: 0x1CA70, symSize: 0x48 }
  - { offset: 0x6FF30, size: 0x8, addend: 0x0, symName: '__ZN10rayon_core3job18JobResult$LT$T$GT$4call28_$u7b$$u7b$closure$u7d$$u7d$17h9cbedd5e460adbddE', symObjAddr: 0xF54, symBinAddr: 0x1CAB8, symSize: 0x3C }
  - { offset: 0x6FF70, size: 0x8, addend: 0x0, symName: '__ZN10rayon_core3job18JobResult$LT$T$GT$4call28_$u7b$$u7b$closure$u7d$$u7d$17ha299408e627c74b3E', symObjAddr: 0xF90, symBinAddr: 0x1CAF4, symSize: 0x48 }
  - { offset: 0x6FFB0, size: 0x8, addend: 0x0, symName: '__ZN10rayon_core3job18JobResult$LT$T$GT$4call28_$u7b$$u7b$closure$u7d$$u7d$17hb26823d1bc29e566E', symObjAddr: 0xFD8, symBinAddr: 0x1CB3C, symSize: 0x48 }
  - { offset: 0x6FFF0, size: 0x8, addend: 0x0, symName: '__ZN10rayon_core3job18JobResult$LT$T$GT$4call28_$u7b$$u7b$closure$u7d$$u7d$17hb72f2bf5b665bc34E', symObjAddr: 0x1020, symBinAddr: 0x1CB84, symSize: 0x48 }
  - { offset: 0x70030, size: 0x8, addend: 0x0, symName: '__ZN10rayon_core3job18JobResult$LT$T$GT$4call28_$u7b$$u7b$closure$u7d$$u7d$17hc183c379c01bf0ffE', symObjAddr: 0x1068, symBinAddr: 0x1CBCC, symSize: 0x48 }
  - { offset: 0x70F26, size: 0x8, addend: 0x0, symName: '__ZN83_$LT$rayon_core..job..StackJob$LT$L$C$F$C$R$GT$$u20$as$u20$rayon_core..job..Job$GT$7execute17h1b1c32f2b939a35fE', symObjAddr: 0x2890, symBinAddr: 0x1E3F4, symSize: 0x2C4 }
  - { offset: 0x71001, size: 0x8, addend: 0x0, symName: '__ZN83_$LT$rayon_core..job..StackJob$LT$L$C$F$C$R$GT$$u20$as$u20$rayon_core..job..Job$GT$7execute17h1c7920c9b947ce70E', symObjAddr: 0x2B54, symBinAddr: 0x1E6B8, symSize: 0x2B8 }
  - { offset: 0x710DC, size: 0x8, addend: 0x0, symName: '__ZN83_$LT$rayon_core..job..StackJob$LT$L$C$F$C$R$GT$$u20$as$u20$rayon_core..job..Job$GT$7execute17h1f28c5c0ec497269E', symObjAddr: 0x2E0C, symBinAddr: 0x1E970, symSize: 0x2BC }
  - { offset: 0x711B7, size: 0x8, addend: 0x0, symName: '__ZN83_$LT$rayon_core..job..StackJob$LT$L$C$F$C$R$GT$$u20$as$u20$rayon_core..job..Job$GT$7execute17h2414e50225e92b58E', symObjAddr: 0x30C8, symBinAddr: 0x1EC2C, symSize: 0x2C4 }
  - { offset: 0x71292, size: 0x8, addend: 0x0, symName: '__ZN83_$LT$rayon_core..job..StackJob$LT$L$C$F$C$R$GT$$u20$as$u20$rayon_core..job..Job$GT$7execute17h347bcfd4ae08775dE', symObjAddr: 0x338C, symBinAddr: 0x1EEF0, symSize: 0x2C4 }
  - { offset: 0x7136D, size: 0x8, addend: 0x0, symName: '__ZN83_$LT$rayon_core..job..StackJob$LT$L$C$F$C$R$GT$$u20$as$u20$rayon_core..job..Job$GT$7execute17h39231712216a0f48E', symObjAddr: 0x3650, symBinAddr: 0x1F1B4, symSize: 0x2D8 }
  - { offset: 0x71449, size: 0x8, addend: 0x0, symName: '__ZN83_$LT$rayon_core..job..StackJob$LT$L$C$F$C$R$GT$$u20$as$u20$rayon_core..job..Job$GT$7execute17h399acbf716323de1E', symObjAddr: 0x3928, symBinAddr: 0x1F48C, symSize: 0x2D0 }
  - { offset: 0x71525, size: 0x8, addend: 0x0, symName: '__ZN83_$LT$rayon_core..job..StackJob$LT$L$C$F$C$R$GT$$u20$as$u20$rayon_core..job..Job$GT$7execute17h4ffa743874ff98afE', symObjAddr: 0x3BF8, symBinAddr: 0x1F75C, symSize: 0x2C4 }
  - { offset: 0x71600, size: 0x8, addend: 0x0, symName: '__ZN83_$LT$rayon_core..job..StackJob$LT$L$C$F$C$R$GT$$u20$as$u20$rayon_core..job..Job$GT$7execute17h5630490bc2ac996fE', symObjAddr: 0x3EBC, symBinAddr: 0x1FA20, symSize: 0x2CC }
  - { offset: 0x716DC, size: 0x8, addend: 0x0, symName: '__ZN83_$LT$rayon_core..job..StackJob$LT$L$C$F$C$R$GT$$u20$as$u20$rayon_core..job..Job$GT$7execute17h69ac159dbbf80bf9E', symObjAddr: 0x4188, symBinAddr: 0x1FCEC, symSize: 0x2CC }
  - { offset: 0x717B8, size: 0x8, addend: 0x0, symName: '__ZN83_$LT$rayon_core..job..StackJob$LT$L$C$F$C$R$GT$$u20$as$u20$rayon_core..job..Job$GT$7execute17h9ac6cdcc94d173d6E', symObjAddr: 0x4454, symBinAddr: 0x1FFB8, symSize: 0x2D8 }
  - { offset: 0x71894, size: 0x8, addend: 0x0, symName: '__ZN83_$LT$rayon_core..job..StackJob$LT$L$C$F$C$R$GT$$u20$as$u20$rayon_core..job..Job$GT$7execute17hc9bdbb7dc4c931afE', symObjAddr: 0x472C, symBinAddr: 0x20290, symSize: 0x2CC }
  - { offset: 0x71970, size: 0x8, addend: 0x0, symName: '__ZN83_$LT$rayon_core..job..StackJob$LT$L$C$F$C$R$GT$$u20$as$u20$rayon_core..job..Job$GT$7execute17hd0631781cb7cdb58E', symObjAddr: 0x49F8, symBinAddr: 0x2055C, symSize: 0x2CC }
  - { offset: 0x71A4C, size: 0x8, addend: 0x0, symName: '__ZN83_$LT$rayon_core..job..StackJob$LT$L$C$F$C$R$GT$$u20$as$u20$rayon_core..job..Job$GT$7execute17hea27144523115d05E', symObjAddr: 0x4CC4, symBinAddr: 0x20828, symSize: 0x2D0 }
  - { offset: 0x745FD, size: 0x8, addend: 0x0, symName: '__ZN10rayon_core3job18JobResult$LT$T$GT$17into_return_value17h052760eaf430b66bE', symObjAddr: 0x0, symBinAddr: 0x1BB64, symSize: 0xA0 }
  - { offset: 0x74A6B, size: 0x8, addend: 0x0, symName: '__ZN10rayon_core3job18JobResult$LT$T$GT$17into_return_value17h05acdc2933a0e757E', symObjAddr: 0xA0, symBinAddr: 0x1BC04, symSize: 0x90 }
  - { offset: 0x74ACE, size: 0x8, addend: 0x0, symName: '__ZN10rayon_core3job18JobResult$LT$T$GT$17into_return_value17h5bb7d6b032ef012eE', symObjAddr: 0x130, symBinAddr: 0x1BC94, symSize: 0x90 }
  - { offset: 0x74B17, size: 0x8, addend: 0x0, symName: '__ZN10rayon_core3job18JobResult$LT$T$GT$17into_return_value17hc296517a02a0b5bbE', symObjAddr: 0x1C0, symBinAddr: 0x1BD24, symSize: 0x90 }
  - { offset: 0x74B7E, size: 0x8, addend: 0x0, symName: '__ZN10rayon_core3job18JobResult$LT$T$GT$17into_return_value17hdc8d87599b0b2944E', symObjAddr: 0x250, symBinAddr: 0x1BDB4, symSize: 0x90 }
  - { offset: 0x74BFB, size: 0x8, addend: 0x0, symName: '__ZN10rayon_core3job18JobResult$LT$T$GT$4call17h1254b8ea6e0c954fE', symObjAddr: 0x2E0, symBinAddr: 0x1BE44, symSize: 0xAC }
  - { offset: 0x74C9E, size: 0x8, addend: 0x0, symName: '__ZN10rayon_core3job18JobResult$LT$T$GT$4call17h1b930d4051d01354E', symObjAddr: 0x38C, symBinAddr: 0x1BEF0, symSize: 0xA8 }
  - { offset: 0x74D0D, size: 0x8, addend: 0x0, symName: '__ZN10rayon_core3job18JobResult$LT$T$GT$4call17h28cde9ff07f07e80E', symObjAddr: 0x434, symBinAddr: 0x1BF98, symSize: 0xC0 }
  - { offset: 0x74D7D, size: 0x8, addend: 0x0, symName: '__ZN10rayon_core3job18JobResult$LT$T$GT$4call17h48eaad8a8ae549b6E', symObjAddr: 0x4F4, symBinAddr: 0x1C058, symSize: 0xC0 }
  - { offset: 0x74DFA, size: 0x8, addend: 0x0, symName: '__ZN10rayon_core3job18JobResult$LT$T$GT$4call17h705d377dd8867a5cE', symObjAddr: 0x5B4, symBinAddr: 0x1C118, symSize: 0xC0 }
  - { offset: 0x74E6A, size: 0x8, addend: 0x0, symName: '__ZN10rayon_core3job18JobResult$LT$T$GT$4call17h734958e3e744efabE', symObjAddr: 0x674, symBinAddr: 0x1C1D8, symSize: 0xC0 }
  - { offset: 0x74EDA, size: 0x8, addend: 0x0, symName: '__ZN10rayon_core3job18JobResult$LT$T$GT$4call17h91945c8f9480b157E', symObjAddr: 0x734, symBinAddr: 0x1C298, symSize: 0xAC }
  - { offset: 0x74F49, size: 0x8, addend: 0x0, symName: '__ZN10rayon_core3job18JobResult$LT$T$GT$4call17hac07c6ac044f549fE', symObjAddr: 0x7E0, symBinAddr: 0x1C344, symSize: 0xC0 }
  - { offset: 0x74FB9, size: 0x8, addend: 0x0, symName: '__ZN10rayon_core3job18JobResult$LT$T$GT$4call17hb850ae1edbc12f5aE', symObjAddr: 0x8A0, symBinAddr: 0x1C404, symSize: 0xA8 }
  - { offset: 0x75028, size: 0x8, addend: 0x0, symName: '__ZN10rayon_core3job18JobResult$LT$T$GT$4call17hd87711cd40196899E', symObjAddr: 0x948, symBinAddr: 0x1C4AC, symSize: 0xA8 }
  - { offset: 0x75097, size: 0x8, addend: 0x0, symName: '__ZN10rayon_core3job18JobResult$LT$T$GT$4call17hd8ef7d1ac6660159E', symObjAddr: 0x9F0, symBinAddr: 0x1C554, symSize: 0xA8 }
  - { offset: 0x75106, size: 0x8, addend: 0x0, symName: '__ZN10rayon_core3job18JobResult$LT$T$GT$4call17he6bc51b322260a8bE', symObjAddr: 0xA98, symBinAddr: 0x1C5FC, symSize: 0xC0 }
  - { offset: 0x75176, size: 0x8, addend: 0x0, symName: '__ZN10rayon_core3job18JobResult$LT$T$GT$4call17he78b2043f1a1fe5fE', symObjAddr: 0xB58, symBinAddr: 0x1C6BC, symSize: 0xC0 }
  - { offset: 0x751E6, size: 0x8, addend: 0x0, symName: '__ZN10rayon_core3job18JobResult$LT$T$GT$4call17hf36f86e865c1a344E', symObjAddr: 0xC18, symBinAddr: 0x1C77C, symSize: 0xC0 }
  - { offset: 0x75326, size: 0x8, addend: 0x0, symName: '__ZN10rayon_core3job25StackJob$LT$L$C$F$C$R$GT$10as_job_ref17h1b5fae1ee8a4224aE', symObjAddr: 0x10B0, symBinAddr: 0x1CC14, symSize: 0x24 }
  - { offset: 0x75515, size: 0x8, addend: 0x0, symName: '__ZN10rayon_core3job25StackJob$LT$L$C$F$C$R$GT$10as_job_ref17h1e4b5beaf2aaae04E', symObjAddr: 0x10D4, symBinAddr: 0x1CC38, symSize: 0x24 }
  - { offset: 0x7555F, size: 0x8, addend: 0x0, symName: '__ZN10rayon_core3job25StackJob$LT$L$C$F$C$R$GT$10as_job_ref17h1e8f4da2a7d6b08cE', symObjAddr: 0x10F8, symBinAddr: 0x1CC5C, symSize: 0x24 }
  - { offset: 0x755A9, size: 0x8, addend: 0x0, symName: '__ZN10rayon_core3job25StackJob$LT$L$C$F$C$R$GT$10as_job_ref17h3ff2b67b59240e3aE', symObjAddr: 0x111C, symBinAddr: 0x1CC80, symSize: 0x24 }
  - { offset: 0x755F3, size: 0x8, addend: 0x0, symName: '__ZN10rayon_core3job25StackJob$LT$L$C$F$C$R$GT$10as_job_ref17h535c2ad9ffb2bd67E', symObjAddr: 0x1140, symBinAddr: 0x1CCA4, symSize: 0x24 }
  - { offset: 0x7563D, size: 0x8, addend: 0x0, symName: '__ZN10rayon_core3job25StackJob$LT$L$C$F$C$R$GT$10as_job_ref17h7ce5fc8b5847e4e3E', symObjAddr: 0x1164, symBinAddr: 0x1CCC8, symSize: 0x24 }
  - { offset: 0x75687, size: 0x8, addend: 0x0, symName: '__ZN10rayon_core3job25StackJob$LT$L$C$F$C$R$GT$10as_job_ref17h8faf9523b896861cE', symObjAddr: 0x1188, symBinAddr: 0x1CCEC, symSize: 0x24 }
  - { offset: 0x756D1, size: 0x8, addend: 0x0, symName: '__ZN10rayon_core3job25StackJob$LT$L$C$F$C$R$GT$10as_job_ref17haa66db63a26a31acE', symObjAddr: 0x11AC, symBinAddr: 0x1CD10, symSize: 0x24 }
  - { offset: 0x7571B, size: 0x8, addend: 0x0, symName: '__ZN10rayon_core3job25StackJob$LT$L$C$F$C$R$GT$10as_job_ref17hd5e05ddd769330eeE', symObjAddr: 0x11D0, symBinAddr: 0x1CD34, symSize: 0x24 }
  - { offset: 0x75765, size: 0x8, addend: 0x0, symName: '__ZN10rayon_core3job25StackJob$LT$L$C$F$C$R$GT$10as_job_ref17hdca9710fa5bccf99E', symObjAddr: 0x11F4, symBinAddr: 0x1CD58, symSize: 0x24 }
  - { offset: 0x757AF, size: 0x8, addend: 0x0, symName: '__ZN10rayon_core3job25StackJob$LT$L$C$F$C$R$GT$10as_job_ref17hdd22c26f3a36a52cE', symObjAddr: 0x1218, symBinAddr: 0x1CD7C, symSize: 0x24 }
  - { offset: 0x757F9, size: 0x8, addend: 0x0, symName: '__ZN10rayon_core3job25StackJob$LT$L$C$F$C$R$GT$10as_job_ref17hec770d3f622ff078E', symObjAddr: 0x123C, symBinAddr: 0x1CDA0, symSize: 0x24 }
  - { offset: 0x75843, size: 0x8, addend: 0x0, symName: '__ZN10rayon_core3job25StackJob$LT$L$C$F$C$R$GT$10as_job_ref17hf6628fc81054e6d7E', symObjAddr: 0x1260, symBinAddr: 0x1CDC4, symSize: 0x24 }
  - { offset: 0x7588D, size: 0x8, addend: 0x0, symName: '__ZN10rayon_core3job25StackJob$LT$L$C$F$C$R$GT$10as_job_ref17hf83e031aa3698ec5E', symObjAddr: 0x1284, symBinAddr: 0x1CDE8, symSize: 0x24 }
  - { offset: 0x7593C, size: 0x8, addend: 0x0, symName: '__ZN10rayon_core3job25StackJob$LT$L$C$F$C$R$GT$10run_inline17h02ef8d8d57478c39E', symObjAddr: 0x12A8, symBinAddr: 0x1CE0C, symSize: 0xE0 }
  - { offset: 0x75A0B, size: 0x8, addend: 0x0, symName: '__ZN10rayon_core3job25StackJob$LT$L$C$F$C$R$GT$10run_inline17h12c4ae525c0eb266E', symObjAddr: 0x1388, symBinAddr: 0x1CEEC, symSize: 0xF4 }
  - { offset: 0x75ADA, size: 0x8, addend: 0x0, symName: '__ZN10rayon_core3job25StackJob$LT$L$C$F$C$R$GT$10run_inline17h3dfbb48e6ed898a5E', symObjAddr: 0x147C, symBinAddr: 0x1CFE0, symSize: 0xF4 }
  - { offset: 0x75BA9, size: 0x8, addend: 0x0, symName: '__ZN10rayon_core3job25StackJob$LT$L$C$F$C$R$GT$10run_inline17h412eb0aec6d2417dE', symObjAddr: 0x1570, symBinAddr: 0x1D0D4, symSize: 0xE0 }
  - { offset: 0x75C4D, size: 0x8, addend: 0x0, symName: '__ZN10rayon_core3job25StackJob$LT$L$C$F$C$R$GT$11into_result17h12950244c1781438E', symObjAddr: 0x1650, symBinAddr: 0x1D1B4, symSize: 0x70 }
  - { offset: 0x75CA8, size: 0x8, addend: 0x0, symName: '__ZN10rayon_core3job25StackJob$LT$L$C$F$C$R$GT$11into_result17h1b1f8ccb6b28dbddE', symObjAddr: 0x16C0, symBinAddr: 0x1D224, symSize: 0x70 }
  - { offset: 0x75D1F, size: 0x8, addend: 0x0, symName: '__ZN10rayon_core3job25StackJob$LT$L$C$F$C$R$GT$11into_result17h428cfffc59759dc8E', symObjAddr: 0x1730, symBinAddr: 0x1D294, symSize: 0x70 }
  - { offset: 0x75D96, size: 0x8, addend: 0x0, symName: '__ZN10rayon_core3job25StackJob$LT$L$C$F$C$R$GT$11into_result17h464f71339bef001eE', symObjAddr: 0x17A0, symBinAddr: 0x1D304, symSize: 0x70 }
  - { offset: 0x75E0D, size: 0x8, addend: 0x0, symName: '__ZN10rayon_core3job25StackJob$LT$L$C$F$C$R$GT$11into_result17h6240462a29ad0eb8E', symObjAddr: 0x1810, symBinAddr: 0x1D374, symSize: 0x7C }
  - { offset: 0x75E69, size: 0x8, addend: 0x0, symName: '__ZN10rayon_core3job25StackJob$LT$L$C$F$C$R$GT$11into_result17h62e73d456e616587E', symObjAddr: 0x188C, symBinAddr: 0x1D3F0, symSize: 0x7C }
  - { offset: 0x75EC5, size: 0x8, addend: 0x0, symName: '__ZN10rayon_core3job25StackJob$LT$L$C$F$C$R$GT$11into_result17h635c5317090789d2E', symObjAddr: 0x1908, symBinAddr: 0x1D46C, symSize: 0x7C }
  - { offset: 0x75F3D, size: 0x8, addend: 0x0, symName: '__ZN10rayon_core3job25StackJob$LT$L$C$F$C$R$GT$11into_result17h8caeee27ebe93462E', symObjAddr: 0x1984, symBinAddr: 0x1D4E8, symSize: 0x7C }
  - { offset: 0x75F99, size: 0x8, addend: 0x0, symName: '__ZN10rayon_core3job25StackJob$LT$L$C$F$C$R$GT$11into_result17h91b59aa16fd1eaadE', symObjAddr: 0x1A00, symBinAddr: 0x1D564, symSize: 0x7C }
  - { offset: 0x75FF5, size: 0x8, addend: 0x0, symName: '__ZN10rayon_core3job25StackJob$LT$L$C$F$C$R$GT$11into_result17h9724ffbc69314658E', symObjAddr: 0x1A7C, symBinAddr: 0x1D5E0, symSize: 0x7C }
  - { offset: 0x76051, size: 0x8, addend: 0x0, symName: '__ZN10rayon_core3job25StackJob$LT$L$C$F$C$R$GT$11into_result17ha25dda35bbf7ef04E', symObjAddr: 0x1AF8, symBinAddr: 0x1D65C, symSize: 0x7C }
  - { offset: 0x760AD, size: 0x8, addend: 0x0, symName: '__ZN10rayon_core3job25StackJob$LT$L$C$F$C$R$GT$11into_result17hae15248a9e1bd250E', symObjAddr: 0x1B74, symBinAddr: 0x1D6D8, symSize: 0x7C }
  - { offset: 0x76109, size: 0x8, addend: 0x0, symName: '__ZN10rayon_core3job25StackJob$LT$L$C$F$C$R$GT$11into_result17he46b521dcc60769dE', symObjAddr: 0x1BF0, symBinAddr: 0x1D754, symSize: 0x70 }
  - { offset: 0x76164, size: 0x8, addend: 0x0, symName: '__ZN10rayon_core3job25StackJob$LT$L$C$F$C$R$GT$11into_result17hfcc64bf4c6e97b89E', symObjAddr: 0x1C60, symBinAddr: 0x1D7C4, symSize: 0x70 }
  - { offset: 0x761F7, size: 0x8, addend: 0x0, symName: '__ZN10rayon_core3job25StackJob$LT$L$C$F$C$R$GT$3new17h0671a0464e9c077cE', symObjAddr: 0x1CD0, symBinAddr: 0x1D834, symSize: 0xB8 }
  - { offset: 0x762B7, size: 0x8, addend: 0x0, symName: '__ZN10rayon_core3job25StackJob$LT$L$C$F$C$R$GT$3new17h1099743f914a350fE', symObjAddr: 0x1D88, symBinAddr: 0x1D8EC, symSize: 0xBC }
  - { offset: 0x7635B, size: 0x8, addend: 0x0, symName: '__ZN10rayon_core3job25StackJob$LT$L$C$F$C$R$GT$3new17h223f80be7c80589eE', symObjAddr: 0x1E44, symBinAddr: 0x1D9A8, symSize: 0xB8 }
  - { offset: 0x763FF, size: 0x8, addend: 0x0, symName: '__ZN10rayon_core3job25StackJob$LT$L$C$F$C$R$GT$3new17h374e06bcf7a8a853E', symObjAddr: 0x1EFC, symBinAddr: 0x1DA60, symSize: 0xC4 }
  - { offset: 0x764C0, size: 0x8, addend: 0x0, symName: '__ZN10rayon_core3job25StackJob$LT$L$C$F$C$R$GT$3new17h4bcceb748c3e5908E', symObjAddr: 0x1FC0, symBinAddr: 0x1DB24, symSize: 0xC0 }
  - { offset: 0x76564, size: 0x8, addend: 0x0, symName: '__ZN10rayon_core3job25StackJob$LT$L$C$F$C$R$GT$3new17h4cef33422b400435E', symObjAddr: 0x2080, symBinAddr: 0x1DBE4, symSize: 0xBC }
  - { offset: 0x76624, size: 0x8, addend: 0x0, symName: '__ZN10rayon_core3job25StackJob$LT$L$C$F$C$R$GT$3new17h59a580cad63999e9E', symObjAddr: 0x213C, symBinAddr: 0x1DCA0, symSize: 0xC4 }
  - { offset: 0x766E5, size: 0x8, addend: 0x0, symName: '__ZN10rayon_core3job25StackJob$LT$L$C$F$C$R$GT$3new17h5c547af20d378909E', symObjAddr: 0x2200, symBinAddr: 0x1DD64, symSize: 0x84 }
  - { offset: 0x76788, size: 0x8, addend: 0x0, symName: '__ZN10rayon_core3job25StackJob$LT$L$C$F$C$R$GT$3new17h751ae975e43c2d48E', symObjAddr: 0x2284, symBinAddr: 0x1DDE8, symSize: 0xC4 }
  - { offset: 0x7682D, size: 0x8, addend: 0x0, symName: '__ZN10rayon_core3job25StackJob$LT$L$C$F$C$R$GT$3new17h85089c8b3ffca641E', symObjAddr: 0x2348, symBinAddr: 0x1DEAC, symSize: 0xC0 }
  - { offset: 0x768D1, size: 0x8, addend: 0x0, symName: '__ZN10rayon_core3job25StackJob$LT$L$C$F$C$R$GT$3new17hcf49fda87fa3e2afE', symObjAddr: 0x2408, symBinAddr: 0x1DF6C, symSize: 0xC4 }
  - { offset: 0x76976, size: 0x8, addend: 0x0, symName: '__ZN10rayon_core3job25StackJob$LT$L$C$F$C$R$GT$3new17hd787c84fec6fefc8E', symObjAddr: 0x24CC, symBinAddr: 0x1E030, symSize: 0x94 }
  - { offset: 0x76A19, size: 0x8, addend: 0x0, symName: '__ZN10rayon_core3job25StackJob$LT$L$C$F$C$R$GT$3new17heb7230ebb8ee3580E', symObjAddr: 0x2560, symBinAddr: 0x1E0C4, symSize: 0xB8 }
  - { offset: 0x76ABD, size: 0x8, addend: 0x0, symName: '__ZN10rayon_core3job25StackJob$LT$L$C$F$C$R$GT$3new17heba38582751a02deE', symObjAddr: 0x2618, symBinAddr: 0x1E17C, symSize: 0xB8 }
  - { offset: 0x76B52, size: 0x8, addend: 0x0, symName: __ZN10rayon_core3job6JobRef3new17h01b26b354bd8002aE, symObjAddr: 0x26D0, symBinAddr: 0x1E234, symSize: 0x20 }
  - { offset: 0x76B8A, size: 0x8, addend: 0x0, symName: __ZN10rayon_core3job6JobRef3new17h08d9b10940a9c514E, symObjAddr: 0x26F0, symBinAddr: 0x1E254, symSize: 0x20 }
  - { offset: 0x76BC2, size: 0x8, addend: 0x0, symName: __ZN10rayon_core3job6JobRef3new17h339817d90d521a71E, symObjAddr: 0x2710, symBinAddr: 0x1E274, symSize: 0x20 }
  - { offset: 0x76BFA, size: 0x8, addend: 0x0, symName: __ZN10rayon_core3job6JobRef3new17h438cca226772f324E, symObjAddr: 0x2730, symBinAddr: 0x1E294, symSize: 0x20 }
  - { offset: 0x76C32, size: 0x8, addend: 0x0, symName: __ZN10rayon_core3job6JobRef3new17h454986a35807e6e6E, symObjAddr: 0x2750, symBinAddr: 0x1E2B4, symSize: 0x20 }
  - { offset: 0x76C6A, size: 0x8, addend: 0x0, symName: __ZN10rayon_core3job6JobRef3new17h47c9cd8ffe162711E, symObjAddr: 0x2770, symBinAddr: 0x1E2D4, symSize: 0x20 }
  - { offset: 0x76CA2, size: 0x8, addend: 0x0, symName: __ZN10rayon_core3job6JobRef3new17h579145dc5dd675f6E, symObjAddr: 0x2790, symBinAddr: 0x1E2F4, symSize: 0x20 }
  - { offset: 0x76CDA, size: 0x8, addend: 0x0, symName: __ZN10rayon_core3job6JobRef3new17h650ab2d765726904E, symObjAddr: 0x27B0, symBinAddr: 0x1E314, symSize: 0x20 }
  - { offset: 0x76D12, size: 0x8, addend: 0x0, symName: __ZN10rayon_core3job6JobRef3new17h72f20492144bbcdaE, symObjAddr: 0x27D0, symBinAddr: 0x1E334, symSize: 0x20 }
  - { offset: 0x76D4A, size: 0x8, addend: 0x0, symName: __ZN10rayon_core3job6JobRef3new17h8b0928f23f1c920cE, symObjAddr: 0x27F0, symBinAddr: 0x1E354, symSize: 0x20 }
  - { offset: 0x76D82, size: 0x8, addend: 0x0, symName: __ZN10rayon_core3job6JobRef3new17h95f012376908dbdaE, symObjAddr: 0x2810, symBinAddr: 0x1E374, symSize: 0x20 }
  - { offset: 0x76DBA, size: 0x8, addend: 0x0, symName: __ZN10rayon_core3job6JobRef3new17h9727d72c5c8f94a9E, symObjAddr: 0x2830, symBinAddr: 0x1E394, symSize: 0x20 }
  - { offset: 0x76DF2, size: 0x8, addend: 0x0, symName: __ZN10rayon_core3job6JobRef3new17h9c260b9864996a6dE, symObjAddr: 0x2850, symBinAddr: 0x1E3B4, symSize: 0x20 }
  - { offset: 0x76E2A, size: 0x8, addend: 0x0, symName: __ZN10rayon_core3job6JobRef3new17ha47bdd3cbc61a98cE, symObjAddr: 0x2870, symBinAddr: 0x1E3D4, symSize: 0x20 }
  - { offset: 0x77423, size: 0x8, addend: 0x0, symName: __ZN8indexmap5inner10equivalent17hd2b29c6f787765a8E, symObjAddr: 0x0, symBinAddr: 0x20AF8, symSize: 0x34 }
  - { offset: 0x77CEE, size: 0x8, addend: 0x0, symName: __ZN8indexmap5inner10equivalent17hd2b29c6f787765a8E, symObjAddr: 0x0, symBinAddr: 0x20AF8, symSize: 0x34 }
  - { offset: 0x77D48, size: 0x8, addend: 0x0, symName: '__ZN8indexmap5inner10equivalent28_$u7b$$u7b$closure$u7d$$u7d$17hd5055e1957e6faeaE', symObjAddr: 0x34, symBinAddr: 0x20B2C, symSize: 0x90 }
  - { offset: 0x77E04, size: 0x8, addend: 0x0, symName: '__ZN8indexmap5inner11erase_index28_$u7b$$u7b$closure$u7d$$u7d$17h00dd05bf083511c4E', symObjAddr: 0xC4, symBinAddr: 0x20BBC, symSize: 0x30 }
  - { offset: 0x783FC, size: 0x8, addend: 0x0, symName: '__ZN8indexmap5inner17Core$LT$K$C$V$GT$10as_entries17hf9455493cdc3b838E', symObjAddr: 0xF4, symBinAddr: 0x20BEC, symSize: 0x24 }
  - { offset: 0x7844E, size: 0x8, addend: 0x0, symName: '__ZN8indexmap5inner17Core$LT$K$C$V$GT$12get_index_of17h81545069c8210b9bE', symObjAddr: 0x118, symBinAddr: 0x20C10, symSize: 0x74 }
  - { offset: 0x784D5, size: 0x8, addend: 0x0, symName: '__ZN8indexmap5inner17Core$LT$K$C$V$GT$12get_index_of17h88e1b6480111ae3fE', symObjAddr: 0x18C, symBinAddr: 0x20C84, symSize: 0x70 }
  - { offset: 0x7857A, size: 0x8, addend: 0x0, symName: '__ZN8indexmap5inner17Core$LT$K$C$V$GT$14as_entries_mut17h4a71db0dd9ae91b0E', symObjAddr: 0x1FC, symBinAddr: 0x20CF4, symSize: 0x24 }
  - { offset: 0x785AE, size: 0x8, addend: 0x0, symName: '__ZN8indexmap5inner17Core$LT$K$C$V$GT$3len17h513ae0887ac9e177E', symObjAddr: 0x220, symBinAddr: 0x20D18, symSize: 0x98 }
  - { offset: 0x78649, size: 0x8, addend: 0x0, symName: '__ZN8indexmap5inner17Core$LT$K$C$V$GT$3pop17h58318370f6620157E', symObjAddr: 0x2B8, symBinAddr: 0x20DB0, symSize: 0x170 }
  - { offset: 0x786DE, size: 0x8, addend: 0x0, symName: '__ZN128_$LT$pyo3..impl_..pyclass_init..PyNativeTypeInitializer$LT$T$GT$$u20$as$u20$pyo3..impl_..pyclass_init..PyObjectInit$LT$T$GT$$GT$15into_new_object17h2b47161ce2ac80a4E', symObjAddr: 0x0, symBinAddr: 0x20F20, symSize: 0x3C }
  - { offset: 0x78ED1, size: 0x8, addend: 0x0, symName: '__ZN50_$LT$T$u20$as$u20$core..convert..Into$LT$U$GT$$GT$4into17h5856d09f6f70e663E', symObjAddr: 0x54, symBinAddr: 0x20F74, symSize: 0x20 }
  - { offset: 0x79EEE, size: 0x8, addend: 0x0, symName: '__ZN128_$LT$pyo3..impl_..pyclass_init..PyNativeTypeInitializer$LT$T$GT$$u20$as$u20$pyo3..impl_..pyclass_init..PyObjectInit$LT$T$GT$$GT$15into_new_object17h2b47161ce2ac80a4E', symObjAddr: 0x0, symBinAddr: 0x20F20, symSize: 0x3C }
  - { offset: 0x79F72, size: 0x8, addend: 0x0, symName: '__ZN128_$LT$pyo3..impl_..pyclass_init..PyNativeTypeInitializer$LT$T$GT$$u20$as$u20$pyo3..impl_..pyclass_init..PyObjectInit$LT$T$GT$$GT$17can_be_subclassed17h876a9867da568a83E', symObjAddr: 0x3C, symBinAddr: 0x20F5C, symSize: 0x18 }
  - { offset: 0x7A791, size: 0x8, addend: 0x0, symName: __ZN3std2io5Write9write_all17h0646b5c5435a8744E, symObjAddr: 0x0, symBinAddr: 0x20F94, symSize: 0x270 }
  - { offset: 0x7AB46, size: 0x8, addend: 0x0, symName: __ZN3std2io5Write9write_all17h0646b5c5435a8744E, symObjAddr: 0x0, symBinAddr: 0x20F94, symSize: 0x270 }
  - { offset: 0x7ACDE, size: 0x8, addend: 0x0, symName: __ZN3std2io5Write9write_all17h7bfa121316808cb7E, symObjAddr: 0x270, symBinAddr: 0x21204, symSize: 0x270 }
  - { offset: 0x7D9F7, size: 0x8, addend: 0x0, symName: '__ZN3zip5write87_$LT$impl$u20$std..io..Write$u20$for$u20$zip..write..zip_writer..ZipWriter$LT$W$GT$$GT$5write17h5e104bf243f6b41eE', symObjAddr: 0xCB1C, symBinAddr: 0x2DAB0, symSize: 0x440 }
  - { offset: 0x7DBD0, size: 0x8, addend: 0x0, symName: '__ZN3zip5write87_$LT$impl$u20$std..io..Write$u20$for$u20$zip..write..zip_writer..ZipWriter$LT$W$GT$$GT$5write17h9e1b2ad3c3503a8cE', symObjAddr: 0xCF5C, symBinAddr: 0x2DEF0, symSize: 0x440 }
  - { offset: 0x7ECD8, size: 0x8, addend: 0x0, symName: '__ZN3zip5write60_$LT$impl$u20$zip..write..zip_writer..ZipWriter$LT$W$GT$$GT$10abort_file17h2e4ec3c5f545a78aE', symObjAddr: 0x4E0, symBinAddr: 0x21474, symSize: 0x4C4 }
  - { offset: 0x7EE3B, size: 0x8, addend: 0x0, symName: '__ZN3zip5write60_$LT$impl$u20$zip..write..zip_writer..ZipWriter$LT$W$GT$$GT$10abort_file17he93a06234866d9eeE', symObjAddr: 0x9A4, symBinAddr: 0x21938, symSize: 0x4C4 }
  - { offset: 0x7EF91, size: 0x8, addend: 0x0, symName: '__ZN3zip5write60_$LT$impl$u20$zip..write..zip_writer..ZipWriter$LT$W$GT$$GT$10start_file17h13ff268280541416E', symObjAddr: 0xE68, symBinAddr: 0x21DFC, symSize: 0x2E0 }
  - { offset: 0x7F07F, size: 0x8, addend: 0x0, symName: '__ZN3zip5write60_$LT$impl$u20$zip..write..zip_writer..ZipWriter$LT$W$GT$$GT$10start_file17h7e2056925403243fE', symObjAddr: 0x1148, symBinAddr: 0x220DC, symSize: 0x2C8 }
  - { offset: 0x7F16D, size: 0x8, addend: 0x0, symName: '__ZN3zip5write60_$LT$impl$u20$zip..write..zip_writer..ZipWriter$LT$W$GT$$GT$10start_file17h8d96c886b6ba8073E', symObjAddr: 0x1410, symBinAddr: 0x223A4, symSize: 0x2E0 }
  - { offset: 0x7F25B, size: 0x8, addend: 0x0, symName: '__ZN3zip5write60_$LT$impl$u20$zip..write..zip_writer..ZipWriter$LT$W$GT$$GT$10start_file17hcb9a9a58cbabacdcE', symObjAddr: 0x16F0, symBinAddr: 0x22684, symSize: 0x2C8 }
  - { offset: 0x7F349, size: 0x8, addend: 0x0, symName: '__ZN3zip5write60_$LT$impl$u20$zip..write..zip_writer..ZipWriter$LT$W$GT$$GT$11finish_file17h4cb8f712bf99478eE', symObjAddr: 0x19B8, symBinAddr: 0x2294C, symSize: 0x768 }
  - { offset: 0x7F538, size: 0x8, addend: 0x0, symName: '__ZN3zip5write60_$LT$impl$u20$zip..write..zip_writer..ZipWriter$LT$W$GT$$GT$11finish_file17h769b95744eef0d40E', symObjAddr: 0x2120, symBinAddr: 0x230B4, symSize: 0x768 }
  - { offset: 0x7F734, size: 0x8, addend: 0x0, symName: '__ZN3zip5write60_$LT$impl$u20$zip..write..zip_writer..ZipWriter$LT$W$GT$$GT$11start_entry17h1e023234140aa89eE', symObjAddr: 0x2888, symBinAddr: 0x2381C, symSize: 0x1CE4 }
  - { offset: 0x7FD02, size: 0x8, addend: 0x0, symName: '__ZN3zip5write60_$LT$impl$u20$zip..write..zip_writer..ZipWriter$LT$W$GT$$GT$11start_entry17h5973d203298436faE', symObjAddr: 0x456C, symBinAddr: 0x25500, symSize: 0x1CE4 }
  - { offset: 0x802C3, size: 0x8, addend: 0x0, symName: '__ZN3zip5write60_$LT$impl$u20$zip..write..zip_writer..ZipWriter$LT$W$GT$$GT$11start_entry17h98d819df2a9bdbe3E', symObjAddr: 0x6250, symBinAddr: 0x271E4, symSize: 0x1CC0 }
  - { offset: 0x80884, size: 0x8, addend: 0x0, symName: '__ZN3zip5write60_$LT$impl$u20$zip..write..zip_writer..ZipWriter$LT$W$GT$$GT$11start_entry17hb5d18180f9b9680cE', symObjAddr: 0x7F10, symBinAddr: 0x28EA4, symSize: 0x1CC0 }
  - { offset: 0x80E45, size: 0x8, addend: 0x0, symName: '__ZN3zip5write60_$LT$impl$u20$zip..write..zip_writer..ZipWriter$LT$W$GT$$GT$12close_writer17h4ab98d5ae4050b2aE', symObjAddr: 0x9BD0, symBinAddr: 0x2AB64, symSize: 0x1FC }
  - { offset: 0x80EC4, size: 0x8, addend: 0x0, symName: '__ZN3zip5write60_$LT$impl$u20$zip..write..zip_writer..ZipWriter$LT$W$GT$$GT$12close_writer17hc918027949643976E', symObjAddr: 0x9DCC, symBinAddr: 0x2AD60, symSize: 0x1E0 }
  - { offset: 0x80F42, size: 0x8, addend: 0x0, symName: '__ZN3zip5write60_$LT$impl$u20$zip..write..zip_writer..ZipWriter$LT$W$GT$$GT$16insert_file_data17h2872bf7ca5b5eed3E', symObjAddr: 0x9FAC, symBinAddr: 0x2AF40, symSize: 0x19C }
  - { offset: 0x80FD8, size: 0x8, addend: 0x0, symName: '__ZN3zip5write60_$LT$impl$u20$zip..write..zip_writer..ZipWriter$LT$W$GT$$GT$16insert_file_data17h5cf0b8138b0ba961E', symObjAddr: 0xA148, symBinAddr: 0x2B0DC, symSize: 0x19C }
  - { offset: 0x8106E, size: 0x8, addend: 0x0, symName: '__ZN3zip5write60_$LT$impl$u20$zip..write..zip_writer..ZipWriter$LT$W$GT$$GT$16ok_or_abort_file17h49500aa146d3df6eE', symObjAddr: 0xA2E4, symBinAddr: 0x2B278, symSize: 0xEC }
  - { offset: 0x810EF, size: 0x8, addend: 0x0, symName: '__ZN3zip5write60_$LT$impl$u20$zip..write..zip_writer..ZipWriter$LT$W$GT$$GT$16ok_or_abort_file17h9c9a7c80fa7c74beE', symObjAddr: 0xA3D0, symBinAddr: 0x2B364, symSize: 0xEC }
  - { offset: 0x81170, size: 0x8, addend: 0x0, symName: '__ZN3zip5write60_$LT$impl$u20$zip..write..zip_writer..ZipWriter$LT$W$GT$$GT$16ok_or_abort_file17hdf006e852b6609c5E', symObjAddr: 0xA4BC, symBinAddr: 0x2B450, symSize: 0x110 }
  - { offset: 0x811F2, size: 0x8, addend: 0x0, symName: '__ZN3zip5write60_$LT$impl$u20$zip..write..zip_writer..ZipWriter$LT$W$GT$$GT$16ok_or_abort_file17hfc3a970df13c6d4eE', symObjAddr: 0xA5CC, symBinAddr: 0x2B560, symSize: 0x110 }
  - { offset: 0x81274, size: 0x8, addend: 0x0, symName: '__ZN3zip5write60_$LT$impl$u20$zip..write..zip_writer..ZipWriter$LT$W$GT$$GT$24write_central_and_footer17h8ffe8e73af953e20E', symObjAddr: 0xA6DC, symBinAddr: 0x2B670, symSize: 0x630 }
  - { offset: 0x814BF, size: 0x8, addend: 0x0, symName: '__ZN3zip5write60_$LT$impl$u20$zip..write..zip_writer..ZipWriter$LT$W$GT$$GT$24write_central_and_footer17hffbd1f25a1591b51E', symObjAddr: 0xAD0C, symBinAddr: 0x2BCA0, symSize: 0x630 }
  - { offset: 0x8170A, size: 0x8, addend: 0x0, symName: '__ZN3zip5write60_$LT$impl$u20$zip..write..zip_writer..ZipWriter$LT$W$GT$$GT$31switch_to_non_encrypting_writer17hb71be75b27eb7e04E', symObjAddr: 0xB33C, symBinAddr: 0x2C2D0, symSize: 0x3CC }
  - { offset: 0x8178A, size: 0x8, addend: 0x0, symName: '__ZN3zip5write60_$LT$impl$u20$zip..write..zip_writer..ZipWriter$LT$W$GT$$GT$31switch_to_non_encrypting_writer17hc7c41fbbcbff4062E', symObjAddr: 0xB708, symBinAddr: 0x2C69C, symSize: 0x378 }
  - { offset: 0x81823, size: 0x8, addend: 0x0, symName: '__ZN3zip5write60_$LT$impl$u20$zip..write..zip_writer..ZipWriter$LT$W$GT$$GT$3new17h4ccd93d49847fdc5E', symObjAddr: 0xBA80, symBinAddr: 0x2CA14, symSize: 0x1F4 }
  - { offset: 0x81864, size: 0x8, addend: 0x0, symName: '__ZN3zip5write60_$LT$impl$u20$zip..write..zip_writer..ZipWriter$LT$W$GT$$GT$3new17he15cb1702e455896E', symObjAddr: 0xBC74, symBinAddr: 0x2CC08, symSize: 0x1E0 }
  - { offset: 0x818A6, size: 0x8, addend: 0x0, symName: '__ZN3zip5write60_$LT$impl$u20$zip..write..zip_writer..ZipWriter$LT$W$GT$$GT$6finish17h5c365285ff992a06E', symObjAddr: 0xBE54, symBinAddr: 0x2CDE8, symSize: 0xD8 }
  - { offset: 0x8190F, size: 0x8, addend: 0x0, symName: '__ZN3zip5write60_$LT$impl$u20$zip..write..zip_writer..ZipWriter$LT$W$GT$$GT$6finish17ha1127a5a3b9c78edE', symObjAddr: 0xBF2C, symBinAddr: 0x2CEC0, symSize: 0xD8 }
  - { offset: 0x81978, size: 0x8, addend: 0x0, symName: '__ZN3zip5write60_$LT$impl$u20$zip..write..zip_writer..ZipWriter$LT$W$GT$$GT$8finalize17h4a159afb5a6aa399E', symObjAddr: 0xC004, symBinAddr: 0x2CF98, symSize: 0x58C }
  - { offset: 0x81BC4, size: 0x8, addend: 0x0, symName: '__ZN3zip5write60_$LT$impl$u20$zip..write..zip_writer..ZipWriter$LT$W$GT$$GT$8finalize17hd25307cc2536b89eE', symObjAddr: 0xC590, symBinAddr: 0x2D524, symSize: 0x58C }
  - { offset: 0x81FFE, size: 0x8, addend: 0x0, symName: __ZN4core3cmp9PartialEq2ne17h5838ec226ae96ce2E, symObjAddr: 0x0, symBinAddr: 0x2E330, symSize: 0x30 }
  - { offset: 0x820AC, size: 0x8, addend: 0x0, symName: __ZN4core3cmp9PartialEq2ne17h5838ec226ae96ce2E, symObjAddr: 0x0, symBinAddr: 0x2E330, symSize: 0x30 }
  - { offset: 0x82176, size: 0x8, addend: 0x0, symName: __ZN4pyo33gil8GILGuard6python17h5ea955a68a6c8bafE, symObjAddr: 0x30, symBinAddr: 0x2E360, symSize: 0x20 }
  - { offset: 0x821CA, size: 0x8, addend: 0x0, symName: '__ZN63_$LT$I$u20$as$u20$core..iter..traits..collect..IntoIterator$GT$9into_iter17h95fc17fc755cd010E', symObjAddr: 0x0, symBinAddr: 0x2E380, symSize: 0x14 }
  - { offset: 0x821F0, size: 0x8, addend: 0x0, symName: '__ZN63_$LT$I$u20$as$u20$core..iter..traits..collect..IntoIterator$GT$9into_iter17h95fc17fc755cd010E', symObjAddr: 0x0, symBinAddr: 0x2E380, symSize: 0x14 }
  - { offset: 0x82239, size: 0x8, addend: 0x0, symName: '__ZN98_$LT$core..iter..adapters..rev..Rev$LT$I$GT$$u20$as$u20$core..iter..traits..iterator..Iterator$GT$4next17h7d61e8703d85ec8bE', symObjAddr: 0x14, symBinAddr: 0x2E394, symSize: 0x24 }
  - { offset: 0x8242E, size: 0x8, addend: 0x0, symName: '__ZN4core3ptr9const_ptr33_$LT$impl$u20$$BP$const$u20$T$GT$11offset_from17h8bb201c9527149f5E', symObjAddr: 0x0, symBinAddr: 0x2E3B8, symSize: 0x48 }
  - { offset: 0x82470, size: 0x8, addend: 0x0, symName: '__ZN4core3ptr9const_ptr33_$LT$impl$u20$$BP$const$u20$T$GT$11offset_from17h8bb201c9527149f5E', symObjAddr: 0x0, symBinAddr: 0x2E3B8, symSize: 0x48 }
  - { offset: 0x824EF, size: 0x8, addend: 0x0, symName: '__ZN4core3ptr9const_ptr66_$LT$impl$u20$core..cmp..PartialEq$u20$for$u20$$BP$const$u20$T$GT$2eq17h441bd968b8208290E', symObjAddr: 0x48, symBinAddr: 0x2E400, symSize: 0x2C }
  - { offset: 0x8259A, size: 0x8, addend: 0x0, symName: '__ZN4core3ops8function5impls68_$LT$impl$u20$core..ops..function..Fn$LT$A$GT$$u20$for$u20$$RF$F$GT$4call17h821d6f7c2b36c5e5E', symObjAddr: 0x0, symBinAddr: 0x2E42C, symSize: 0x38 }
  - { offset: 0x82638, size: 0x8, addend: 0x0, symName: '__ZN4core3ops8function5impls68_$LT$impl$u20$core..ops..function..Fn$LT$A$GT$$u20$for$u20$$RF$F$GT$4call17h821d6f7c2b36c5e5E', symObjAddr: 0x0, symBinAddr: 0x2E42C, symSize: 0x38 }
  - { offset: 0x82687, size: 0x8, addend: 0x0, symName: '__ZN4core3ops8function5impls68_$LT$impl$u20$core..ops..function..Fn$LT$A$GT$$u20$for$u20$$RF$F$GT$4call17hd94cd0fd9533a04bE', symObjAddr: 0x38, symBinAddr: 0x2E464, symSize: 0x38 }
  - { offset: 0x82E66, size: 0x8, addend: 0x0, symName: __ZN6zopfli7squeeze12lz77_optimal17h734215c2cbcee623E, symObjAddr: 0x70, symBinAddr: 0x2E49C, symSize: 0x928 }
  - { offset: 0x83124, size: 0x8, addend: 0x0, symName: '__ZN6zopfli7squeeze12lz77_optimal28_$u7b$$u7b$closure$u7d$$u7d$17h7d27c27c2c976c7aE', symObjAddr: 0x998, symBinAddr: 0x2EDC4, symSize: 0x3C }
  - { offset: 0x83190, size: 0x8, addend: 0x0, symName: __ZN6zopfli7squeeze16get_best_lengths17h551549b02e2e83daE, symObjAddr: 0x9D4, symBinAddr: 0x2EE00, symSize: 0x1144 }
  - { offset: 0x835FE, size: 0x8, addend: 0x0, symName: __ZN6zopfli7squeeze16get_best_lengths17h63d18801a33d62e4E, symObjAddr: 0x1B18, symBinAddr: 0x2FF44, symSize: 0x123C }
  - { offset: 0x83A6C, size: 0x8, addend: 0x0, symName: __ZN6zopfli7squeeze16lz77_optimal_run17h2286ce5bbb1c2811E, symObjAddr: 0x2D54, symBinAddr: 0x31180, symSize: 0x188 }
  - { offset: 0x83B5C, size: 0x8, addend: 0x0, symName: __ZN6zopfli7squeeze16lz77_optimal_run17h258ac5a5f0e51bbfE, symObjAddr: 0x2EDC, symBinAddr: 0x31308, symSize: 0x18C }
  - { offset: 0x83C4C, size: 0x8, addend: 0x0, symName: __ZN6zopfli7squeeze18lz77_optimal_fixed17hb8e0cb679004b6dcE, symObjAddr: 0x3068, symBinAddr: 0x31494, symSize: 0x158 }
  - { offset: 0x83CD2, size: 0x8, addend: 0x0, symName: __ZN6zopfli7squeeze23get_cost_model_min_cost17h272da4687a27e2e1E, symObjAddr: 0x31C0, symBinAddr: 0x315EC, symSize: 0x24C }
  - { offset: 0x83DCA, size: 0x8, addend: 0x0, symName: __ZN6zopfli7squeeze23get_cost_model_min_cost17h83a6853f24769011E, symObjAddr: 0x340C, symBinAddr: 0x31838, symSize: 0x24C }
  - { offset: 0x84628, size: 0x8, addend: 0x0, symName: '__ZN11_fast_ebook8pybridge186_$LT$impl$u20$pyo3..impl_..pyclass..PyMethods$LT$_fast_ebook..pybridge..PyEpubBook$GT$$u20$for$u20$pyo3..impl_..pyclass..PyClassImplCollector$LT$_fast_ebook..pybridge..PyEpubBook$GT$$GT$10py_methods17h115c6ee47694f1edE', symObjAddr: 0x0, symBinAddr: 0x31A84, symSize: 0x14 }
  - { offset: 0x85DBC, size: 0x8, addend: 0x0, symName: '__ZN11_fast_ebook8pybridge186_$LT$impl$u20$pyo3..impl_..pyclass..PyMethods$LT$_fast_ebook..pybridge..PyEpubBook$GT$$u20$for$u20$pyo3..impl_..pyclass..PyClassImplCollector$LT$_fast_ebook..pybridge..PyEpubBook$GT$$GT$10py_methods17h115c6ee47694f1edE', symObjAddr: 0x0, symBinAddr: 0x31A84, symSize: 0x14 }
  - { offset: 0x85E07, size: 0x8, addend: 0x0, symName: '__ZN11_fast_ebook8pybridge186_$LT$impl$u20$pyo3..impl_..pyclass..PyMethods$LT$_fast_ebook..pybridge..PyEpubBook$GT$$u20$for$u20$pyo3..impl_..pyclass..PyClassImplCollector$LT$_fast_ebook..pybridge..PyEpubBook$GT$$GT$10py_methods5ITEMS10trampoline200_$LT$impl$u20$pyo3..impl_..pyclass..PyClassNewTextSignature$LT$_fast_ebook..pybridge..PyEpubBook$GT$$u20$for$u20$pyo3..impl_..pyclass..PyClassImplCollector$LT$_fast_ebook..pybridge..PyEpubBook$GT$$GT$18new_text_signature17hea123f44ea1de29aE', symObjAddr: 0x14, symBinAddr: 0x31A98, symSize: 0x28 }
  - { offset: 0x85E48, size: 0x8, addend: 0x0, symName: '__ZN11_fast_ebook8pybridge186_$LT$impl$u20$pyo3..impl_..pyclass..PyMethods$LT$_fast_ebook..pybridge..PyEpubItem$GT$$u20$for$u20$pyo3..impl_..pyclass..PyClassImplCollector$LT$_fast_ebook..pybridge..PyEpubItem$GT$$GT$10py_methods17hc2bdc8e946bf86afE', symObjAddr: 0x3C, symBinAddr: 0x31AC0, symSize: 0x14 }
  - { offset: 0x85E85, size: 0x8, addend: 0x0, symName: '__ZN11_fast_ebook8pybridge186_$LT$impl$u20$pyo3..impl_..pyclass..PyMethods$LT$_fast_ebook..pybridge..PyTocEntry$GT$$u20$for$u20$pyo3..impl_..pyclass..PyClassImplCollector$LT$_fast_ebook..pybridge..PyTocEntry$GT$$GT$10py_methods17h0fa274e71af50942E', symObjAddr: 0x50, symBinAddr: 0x31AD4, symSize: 0x14 }
  - { offset: 0x85ED3, size: 0x8, addend: 0x0, symName: '__ZN11_fast_ebook8pybridge186_$LT$impl$u20$pyo3..impl_..pyclass..PyMethods$LT$_fast_ebook..pybridge..PyTocEntry$GT$$u20$for$u20$pyo3..impl_..pyclass..PyClassImplCollector$LT$_fast_ebook..pybridge..PyTocEntry$GT$$GT$10py_methods5ITEMS10trampoline200_$LT$impl$u20$pyo3..impl_..pyclass..PyClassNewTextSignature$LT$_fast_ebook..pybridge..PyTocEntry$GT$$u20$for$u20$pyo3..impl_..pyclass..PyClassImplCollector$LT$_fast_ebook..pybridge..PyTocEntry$GT$$GT$18new_text_signature17h839accb3c2cc24c8E', symObjAddr: 0x64, symBinAddr: 0x31AE8, symSize: 0x28 }
  - { offset: 0x87490, size: 0x8, addend: 0x0, symName: __ZN3std5panic12catch_unwind17h0250b22e10fc4ef5E, symObjAddr: 0x0, symBinAddr: 0x31B10, symSize: 0xDC }
  - { offset: 0x8AD8B, size: 0x8, addend: 0x0, symName: __ZN3std5panic12catch_unwind17h0250b22e10fc4ef5E, symObjAddr: 0x0, symBinAddr: 0x31B10, symSize: 0xDC }
  - { offset: 0x8AE34, size: 0x8, addend: 0x0, symName: __ZN3std5panic12catch_unwind17h0630718236aa97c3E, symObjAddr: 0xDC, symBinAddr: 0x31BEC, symSize: 0xE8 }
  - { offset: 0x8AEFE, size: 0x8, addend: 0x0, symName: __ZN3std5panic12catch_unwind17h14f5e16231b64436E, symObjAddr: 0x1C4, symBinAddr: 0x31CD4, symSize: 0xE8 }
  - { offset: 0x8AFC8, size: 0x8, addend: 0x0, symName: __ZN3std5panic12catch_unwind17h1b1fcbcec74f27fcE, symObjAddr: 0x2AC, symBinAddr: 0x31DBC, symSize: 0xFC }
  - { offset: 0x8B093, size: 0x8, addend: 0x0, symName: __ZN3std5panic12catch_unwind17h1f83a01956961bb3E, symObjAddr: 0x3A8, symBinAddr: 0x31EB8, symSize: 0xE0 }
  - { offset: 0x8B15C, size: 0x8, addend: 0x0, symName: __ZN3std5panic12catch_unwind17h26668682d115e44bE, symObjAddr: 0x488, symBinAddr: 0x31F98, symSize: 0xFC }
  - { offset: 0x8B227, size: 0x8, addend: 0x0, symName: __ZN3std5panic12catch_unwind17h32c01bae6fe5e7c6E, symObjAddr: 0x584, symBinAddr: 0x32094, symSize: 0xFC }
  - { offset: 0x8B2F2, size: 0x8, addend: 0x0, symName: __ZN3std5panic12catch_unwind17h3cd9ce826237a6f1E, symObjAddr: 0x680, symBinAddr: 0x32190, symSize: 0xCC }
  - { offset: 0x8B3BA, size: 0x8, addend: 0x0, symName: __ZN3std5panic12catch_unwind17h412bcf212072ec1fE, symObjAddr: 0x74C, symBinAddr: 0x3225C, symSize: 0xE0 }
  - { offset: 0x8B483, size: 0x8, addend: 0x0, symName: __ZN3std5panic12catch_unwind17h456be310216dc9a4E, symObjAddr: 0x82C, symBinAddr: 0x3233C, symSize: 0xCC }
  - { offset: 0x8B52C, size: 0x8, addend: 0x0, symName: __ZN3std5panic12catch_unwind17h6425dcd6efb79d8aE, symObjAddr: 0x8F8, symBinAddr: 0x32408, symSize: 0xFC }
  - { offset: 0x8B5F7, size: 0x8, addend: 0x0, symName: __ZN3std5panic12catch_unwind17h6e6e0b2833ede563E, symObjAddr: 0x9F4, symBinAddr: 0x32504, symSize: 0xCC }
  - { offset: 0x8B6BF, size: 0x8, addend: 0x0, symName: __ZN3std5panic12catch_unwind17h756609fd171733c1E, symObjAddr: 0xAC0, symBinAddr: 0x325D0, symSize: 0xE8 }
  - { offset: 0x8B789, size: 0x8, addend: 0x0, symName: __ZN3std5panic12catch_unwind17h8f9f110f6ad3a5e4E, symObjAddr: 0xBA8, symBinAddr: 0x326B8, symSize: 0xDC }
  - { offset: 0x8B832, size: 0x8, addend: 0x0, symName: __ZN3std5panic12catch_unwind17h9cdb25e483e4dfc5E, symObjAddr: 0xC84, symBinAddr: 0x32794, symSize: 0xDC }
  - { offset: 0x8B8DB, size: 0x8, addend: 0x0, symName: __ZN3std5panic12catch_unwind17hb891c6d536cc113dE, symObjAddr: 0xD60, symBinAddr: 0x32870, symSize: 0xF0 }
  - { offset: 0x8B9A5, size: 0x8, addend: 0x0, symName: __ZN3std5panic12catch_unwind17hb99a47e28856e3ebE, symObjAddr: 0xE50, symBinAddr: 0x32960, symSize: 0xFC }
  - { offset: 0x8BA70, size: 0x8, addend: 0x0, symName: __ZN3std5panic12catch_unwind17hbb34a975b1834b30E, symObjAddr: 0xF4C, symBinAddr: 0x32A5C, symSize: 0xE0 }
  - { offset: 0x8BB39, size: 0x8, addend: 0x0, symName: __ZN3std5panic12catch_unwind17hbd64d4233864b488E, symObjAddr: 0x102C, symBinAddr: 0x32B3C, symSize: 0xE0 }
  - { offset: 0x8BC02, size: 0x8, addend: 0x0, symName: __ZN3std5panic12catch_unwind17hcc7a4636376bdc55E, symObjAddr: 0x110C, symBinAddr: 0x32C1C, symSize: 0xE0 }
  - { offset: 0x8BCCB, size: 0x8, addend: 0x0, symName: __ZN3std5panic12catch_unwind17hd04aae9477c33975E, symObjAddr: 0x11EC, symBinAddr: 0x32CFC, symSize: 0xE8 }
  - { offset: 0x8BD95, size: 0x8, addend: 0x0, symName: __ZN3std5panic12catch_unwind17hd27a89213d7df85fE, symObjAddr: 0x12D4, symBinAddr: 0x32DE4, symSize: 0xFC }
  - { offset: 0x8BE60, size: 0x8, addend: 0x0, symName: __ZN3std5panic12catch_unwind17hd3afda4d4813fc70E, symObjAddr: 0x13D0, symBinAddr: 0x32EE0, symSize: 0xFC }
  - { offset: 0x8BF2B, size: 0x8, addend: 0x0, symName: __ZN3std5panic12catch_unwind17he7144bf5e9c46ce4E, symObjAddr: 0x14CC, symBinAddr: 0x32FDC, symSize: 0xFC }
  - { offset: 0x8E690, size: 0x8, addend: 0x0, symName: '__ZN4pyo311conversions3std6string86_$LT$impl$u20$pyo3..conversion..IntoPyObject$u20$for$u20$$RF$alloc..string..String$GT$13into_pyobject17hc42d88faae008aeaE', symObjAddr: 0x0, symBinAddr: 0x3312C, symSize: 0x30 }
  - { offset: 0x8FEDA, size: 0x8, addend: 0x0, symName: '__ZN4pyo311conversions3std6string86_$LT$impl$u20$pyo3..conversion..IntoPyObject$u20$for$u20$$RF$alloc..string..String$GT$13into_pyobject17hc42d88faae008aeaE', symObjAddr: 0x0, symBinAddr: 0x3312C, symSize: 0x30 }
  - { offset: 0x90059, size: 0x8, addend: 0x0, symName: '__ZN58_$LT$alloc..string..String$u20$as$u20$core..fmt..Write$GT$10write_char17hc3eb92b582d8dec2E', symObjAddr: 0x30, symBinAddr: 0x3315C, symSize: 0x38 }
  - { offset: 0x90096, size: 0x8, addend: 0x0, symName: '__ZN58_$LT$alloc..string..String$u20$as$u20$core..fmt..Write$GT$9write_str17h29aa1994ce937a53E', symObjAddr: 0x68, symBinAddr: 0x33194, symSize: 0x40 }
  - { offset: 0x901DB, size: 0x8, addend: 0x0, symName: '__ZN62_$LT$alloc..string..String$u20$as$u20$core..cmp..PartialEq$GT$2eq17h363f52f54142f339E', symObjAddr: 0x3FC, symBinAddr: 0x33528, symSize: 0x2C }
  - { offset: 0x9021E, size: 0x8, addend: 0x0, symName: '__ZN64_$LT$alloc..string..String$u20$as$u20$core..default..Default$GT$7default17h6c5a2ae19b8939bbE', symObjAddr: 0x428, symBinAddr: 0x33554, symSize: 0x30 }
  - { offset: 0x9026E, size: 0x8, addend: 0x0, symName: '__ZN65_$LT$alloc..string..String$u20$as$u20$core..ops..deref..Deref$GT$5deref17h5504f7f7a8614017E', symObjAddr: 0x458, symBinAddr: 0x33584, symSize: 0x24 }
  - { offset: 0x902A2, size: 0x8, addend: 0x0, symName: '__ZN69_$LT$alloc..string..String$u20$as$u20$alloc..string..SpecToString$GT$14spec_to_string17h73d3ea25acd738e7E', symObjAddr: 0x47C, symBinAddr: 0x335A8, symSize: 0x2C }
  - { offset: 0x9032E, size: 0x8, addend: 0x0, symName: '__ZN77_$LT$alloc..string..String$u20$as$u20$core..cmp..PartialEq$LT$$RF$str$GT$$GT$2eq17ha0227db789d4f18dE', symObjAddr: 0x4A8, symBinAddr: 0x335D4, symSize: 0xD0 }
  - { offset: 0x90576, size: 0x8, addend: 0x0, symName: '__ZN5alloc3str83_$LT$impl$u20$core..borrow..Borrow$LT$str$GT$$u20$for$u20$alloc..string..String$GT$6borrow17hf13b88652caa6a5cE', symObjAddr: 0xA8, symBinAddr: 0x331D4, symSize: 0x2C }
  - { offset: 0x909F7, size: 0x8, addend: 0x0, symName: __ZN5alloc6string6String13with_capacity17h7e9277325630c134E, symObjAddr: 0xD4, symBinAddr: 0x33200, symSize: 0x58 }
  - { offset: 0x90B32, size: 0x8, addend: 0x0, symName: __ZN5alloc6string6String14into_boxed_str17h878d897c9ffa2052E, symObjAddr: 0x12C, symBinAddr: 0x33258, symSize: 0x7C }
  - { offset: 0x90C44, size: 0x8, addend: 0x0, symName: __ZN5alloc6string6String3len17h871deb10aec44f49E, symObjAddr: 0x1A8, symBinAddr: 0x332D4, symSize: 0x18 }
  - { offset: 0x90C8C, size: 0x8, addend: 0x0, symName: __ZN5alloc6string6String3new17h1fc7f387be1551b1E, symObjAddr: 0x1C0, symBinAddr: 0x332EC, symSize: 0x30 }
  - { offset: 0x90DF9, size: 0x8, addend: 0x0, symName: __ZN5alloc6string6String4push17h59930fb4625a2cd5E, symObjAddr: 0x1F0, symBinAddr: 0x3331C, symSize: 0xF8 }
  - { offset: 0x910C2, size: 0x8, addend: 0x0, symName: __ZN5alloc6string6String6as_str17hf9fb6b972f4f6c22E, symObjAddr: 0x2E8, symBinAddr: 0x33414, symSize: 0x78 }
  - { offset: 0x911CB, size: 0x8, addend: 0x0, symName: __ZN5alloc6string6String8as_bytes17h59b56ad0a167ee57E, symObjAddr: 0x360, symBinAddr: 0x3348C, symSize: 0x24 }
  - { offset: 0x91221, size: 0x8, addend: 0x0, symName: __ZN5alloc6string6String8is_empty17h9bc22ed21fe44c06E, symObjAddr: 0x384, symBinAddr: 0x334B0, symSize: 0x20 }
  - { offset: 0x91357, size: 0x8, addend: 0x0, symName: __ZN5alloc6string6String8push_str17h5dd952141a971da0E, symObjAddr: 0x3A4, symBinAddr: 0x334D0, symSize: 0x58 }
  - { offset: 0x91A36, size: 0x8, addend: 0x0, symName: __ZN11_fast_ebook3ncx9parse_ncx17hc12c6c35b118b4abE, symObjAddr: 0x0, symBinAddr: 0x336A4, symSize: 0x1C4 }
  - { offset: 0x91CB2, size: 0x8, addend: 0x0, symName: __ZN11_fast_ebook3ncx9parse_ncx17hc12c6c35b118b4abE, symObjAddr: 0x0, symBinAddr: 0x336A4, symSize: 0x1C4 }
  - { offset: 0x91D5C, size: 0x8, addend: 0x0, symName: __ZN11_fast_ebook3ncx16parse_nav_points17h3f60299f33c83935E, symObjAddr: 0x1C4, symBinAddr: 0x33868, symSize: 0x370 }
  - { offset: 0x9334C, size: 0x8, addend: 0x0, symName: '__ZN4core3ptr8non_null16NonNull$LT$T$GT$20offset_from_unsigned17h2c4c55fa91681ba6E', symObjAddr: 0x0, symBinAddr: 0x33BD8, symSize: 0x7C }
  - { offset: 0x94C93, size: 0x8, addend: 0x0, symName: '__ZN4core3ptr8non_null16NonNull$LT$T$GT$20offset_from_unsigned17h2c4c55fa91681ba6E', symObjAddr: 0x0, symBinAddr: 0x33BD8, symSize: 0x7C }
  - { offset: 0x95087, size: 0x8, addend: 0x0, symName: '__ZN4core3ptr8non_null16NonNull$LT$T$GT$20offset_from_unsigned17h4b99e10190e4ef53E', symObjAddr: 0x7C, symBinAddr: 0x33C54, symSize: 0x7C }
  - { offset: 0x9518D, size: 0x8, addend: 0x0, symName: '__ZN4core3ptr8non_null16NonNull$LT$T$GT$20offset_from_unsigned17h5665a03445a93eeeE', symObjAddr: 0xF8, symBinAddr: 0x33CD0, symSize: 0x7C }
  - { offset: 0x95293, size: 0x8, addend: 0x0, symName: '__ZN4core3ptr8non_null16NonNull$LT$T$GT$20offset_from_unsigned17h7201b8d0af484a2aE', symObjAddr: 0x174, symBinAddr: 0x33D4C, symSize: 0x7C }
  - { offset: 0x953A0, size: 0x8, addend: 0x0, symName: '__ZN4core3ptr8non_null16NonNull$LT$T$GT$20offset_from_unsigned17hba29dd3204bf6d04E', symObjAddr: 0x1F0, symBinAddr: 0x33DC8, symSize: 0x7C }
  - { offset: 0x954C4, size: 0x8, addend: 0x0, symName: '__ZN4core3ptr8non_null16NonNull$LT$T$GT$20offset_from_unsigned17hc27839d48eb9a394E', symObjAddr: 0x26C, symBinAddr: 0x33E44, symSize: 0x7C }
  - { offset: 0x95645, size: 0x8, addend: 0x0, symName: '__ZN4core3ptr8non_null16NonNull$LT$T$GT$20offset_from_unsigned17hc5827fdfa1b71c19E', symObjAddr: 0x2E8, symBinAddr: 0x33EC0, symSize: 0x7C }
  - { offset: 0x9574B, size: 0x8, addend: 0x0, symName: '__ZN4core3ptr8non_null16NonNull$LT$T$GT$20offset_from_unsigned17hcf5b25b81ae096e7E', symObjAddr: 0x364, symBinAddr: 0x33F3C, symSize: 0x7C }
  - { offset: 0x95851, size: 0x8, addend: 0x0, symName: '__ZN4core3ptr8non_null16NonNull$LT$T$GT$20offset_from_unsigned17hd017826489e166d1E', symObjAddr: 0x3E0, symBinAddr: 0x33FB8, symSize: 0x7C }
  - { offset: 0x95975, size: 0x8, addend: 0x0, symName: '__ZN4core3ptr8non_null16NonNull$LT$T$GT$20offset_from_unsigned17hd8ce60e38510e770E', symObjAddr: 0x45C, symBinAddr: 0x34034, symSize: 0x7C }
  - { offset: 0x96162, size: 0x8, addend: 0x0, symName: '__ZN4core3ptr8non_null16NonNull$LT$T$GT$20offset_from_unsigned17hd915bf7686e2d88fE', symObjAddr: 0x4D8, symBinAddr: 0x340B0, symSize: 0x7C }
  - { offset: 0x96268, size: 0x8, addend: 0x0, symName: '__ZN4core3ptr8non_null16NonNull$LT$T$GT$20offset_from_unsigned17hf594b85a9496d3c4E', symObjAddr: 0x554, symBinAddr: 0x3412C, symSize: 0x7C }
  - { offset: 0x96356, size: 0x8, addend: 0x0, symName: '__ZN104_$LT$core..ops..index_range..IndexRange$u20$as$u20$core..slice..index..SliceIndex$LT$$u5b$T$u5d$$GT$$GT$17get_unchecked_mut18precondition_check17h1711695aafb4717dE', symObjAddr: 0x0, symBinAddr: 0x341A8, symSize: 0xAC }
  - { offset: 0x96682, size: 0x8, addend: 0x0, symName: '__ZN104_$LT$core..ops..index_range..IndexRange$u20$as$u20$core..slice..index..SliceIndex$LT$$u5b$T$u5d$$GT$$GT$17get_unchecked_mut18precondition_check17h1711695aafb4717dE', symObjAddr: 0x0, symBinAddr: 0x341A8, symSize: 0xAC }
  - { offset: 0x966F6, size: 0x8, addend: 0x0, symName: '__ZN106_$LT$core..ops..range..Range$LT$usize$GT$$u20$as$u20$core..slice..index..SliceIndex$LT$$u5b$T$u5d$$GT$$GT$13get_unchecked18precondition_check17h73000521e8fb1fe2E', symObjAddr: 0xAC, symBinAddr: 0x34254, symSize: 0xCC }
  - { offset: 0x96772, size: 0x8, addend: 0x0, symName: '__ZN106_$LT$core..ops..range..Range$LT$usize$GT$$u20$as$u20$core..slice..index..SliceIndex$LT$$u5b$T$u5d$$GT$$GT$17get_unchecked_mut18precondition_check17h27637e25e4abeb25E', symObjAddr: 0x178, symBinAddr: 0x34320, symSize: 0xCC }
  - { offset: 0x967F4, size: 0x8, addend: 0x0, symName: '__ZN75_$LT$usize$u20$as$u20$core..slice..index..SliceIndex$LT$$u5b$T$u5d$$GT$$GT$13get_unchecked18precondition_check17hd2408ddf51093914E', symObjAddr: 0x244, symBinAddr: 0x343EC, symSize: 0xAC }
  - { offset: 0x96A3A, size: 0x8, addend: 0x0, symName: __ZN3std4sync6poison4once4Once12is_completed17h4fe11c5548d048d3E, symObjAddr: 0x0, symBinAddr: 0x34498, symSize: 0x54 }
  - { offset: 0x96BF2, size: 0x8, addend: 0x0, symName: __ZN3std4sync6poison4once4Once12is_completed17h4fe11c5548d048d3E, symObjAddr: 0x0, symBinAddr: 0x34498, symSize: 0x54 }
  - { offset: 0x96C66, size: 0x8, addend: 0x0, symName: __ZN11_fast_ebook8pybridge10PyTocEntry10from_entry17h9ce2fba6c3ef8756E, symObjAddr: 0x0, symBinAddr: 0x344EC, symSize: 0x124 }
  - { offset: 0x96C94, size: 0x8, addend: 0x0, symName: '__ZN87_$LT$_fast_ebook..pybridge..PyEpubBook$u20$as$u20$pyo3..impl_..pyclass..PyClassImpl$GT$10items_iter15INTRINSIC_ITEMS17h46c60c916869f9e1E', symObjAddr: 0xAC48, symBinAddr: 0x242C20, symSize: 0x0 }
  - { offset: 0x96CB4, size: 0x8, addend: 0x0, symName: '__ZN87_$LT$_fast_ebook..pybridge..PyEpubBook$u20$as$u20$pyo3..impl_..pyclass..PyClassImpl$GT$3doc3DOC17h0ef38daa6b404ddeE', symObjAddr: 0x2C640, symBinAddr: 0x32D2A8, symSize: 0x0 }
  - { offset: 0x96CD4, size: 0x8, addend: 0x0, symName: '__ZN87_$LT$_fast_ebook..pybridge..PyEpubBook$u20$as$u20$pyo3..impl_..pyclass..PyClassImpl$GT$16lazy_type_object11TYPE_OBJECT17ha55c78244dab0dd2E', symObjAddr: 0xAE08, symBinAddr: 0x32C478, symSize: 0x0 }
  - { offset: 0x96CE2, size: 0x8, addend: 0x0, symName: '__ZN87_$LT$_fast_ebook..pybridge..PyEpubBook$u20$as$u20$pyo3..impl_..pyclass..PyClassImpl$GT$10items_iter17h0937280ea46d7585E', symObjAddr: 0x4AC, symBinAddr: 0x34998, symSize: 0x38 }
  - { offset: 0x96D1D, size: 0x8, addend: 0x0, symName: '__ZN87_$LT$_fast_ebook..pybridge..PyEpubBook$u20$as$u20$pyo3..impl_..pyclass..PyClassImpl$GT$3doc17h42dc4f7a727a5575E', symObjAddr: 0x4E4, symBinAddr: 0x349D0, symSize: 0x3C }
  - { offset: 0x96D54, size: 0x8, addend: 0x0, symName: '__ZN87_$LT$_fast_ebook..pybridge..PyEpubBook$u20$as$u20$pyo3..impl_..pyclass..PyClassImpl$GT$16lazy_type_object17h3b2d977091498810E', symObjAddr: 0x520, symBinAddr: 0x34A0C, symSize: 0xC }
  - { offset: 0x972BC, size: 0x8, addend: 0x0, symName: '__ZN11_fast_ebook8pybridge186_$LT$impl$u20$pyo3..impl_..pyclass..PyMethods$LT$_fast_ebook..pybridge..PyEpubBook$GT$$u20$for$u20$pyo3..impl_..pyclass..PyClassImplCollector$LT$_fast_ebook..pybridge..PyEpubBook$GT$$GT$10py_methods5ITEMS17h97813297e51c5d6eE', symObjAddr: 0x9E80, symBinAddr: 0x30A680, symSize: 0x0 }
  - { offset: 0x972CE, size: 0x8, addend: 0x0, symName: '__ZN11_fast_ebook8pybridge186_$LT$impl$u20$pyo3..impl_..pyclass..PyMethods$LT$_fast_ebook..pybridge..PyEpubBook$GT$$u20$for$u20$pyo3..impl_..pyclass..PyClassImplCollector$LT$_fast_ebook..pybridge..PyEpubBook$GT$$GT$10py_methods5ITEMS10trampoline17hd9132cd96a6ba65fE', symObjAddr: 0x1330, symBinAddr: 0x3581C, symSize: 0x44 }
  - { offset: 0x97308, size: 0x8, addend: 0x0, symName: '__ZN11_fast_ebook8pybridge186_$LT$impl$u20$pyo3..impl_..pyclass..PyMethods$LT$_fast_ebook..pybridge..PyEpubBook$GT$$u20$for$u20$pyo3..impl_..pyclass..PyClassImplCollector$LT$_fast_ebook..pybridge..PyEpubBook$GT$$GT$10py_methods5ITEMS10trampoline17h96f454f955926ae4E', symObjAddr: 0x1374, symBinAddr: 0x35860, symSize: 0x50 }
  - { offset: 0x9735E, size: 0x8, addend: 0x0, symName: '__ZN11_fast_ebook8pybridge186_$LT$impl$u20$pyo3..impl_..pyclass..PyMethods$LT$_fast_ebook..pybridge..PyEpubBook$GT$$u20$for$u20$pyo3..impl_..pyclass..PyClassImplCollector$LT$_fast_ebook..pybridge..PyEpubBook$GT$$GT$10py_methods5ITEMS10trampoline17h77643c398c978a20E', symObjAddr: 0x13C4, symBinAddr: 0x358B0, symSize: 0x50 }
  - { offset: 0x973B4, size: 0x8, addend: 0x0, symName: '__ZN11_fast_ebook8pybridge186_$LT$impl$u20$pyo3..impl_..pyclass..PyMethods$LT$_fast_ebook..pybridge..PyEpubBook$GT$$u20$for$u20$pyo3..impl_..pyclass..PyClassImplCollector$LT$_fast_ebook..pybridge..PyEpubBook$GT$$GT$10py_methods5ITEMS10trampoline17ha53394b79f7c7c92E', symObjAddr: 0x1414, symBinAddr: 0x35900, symSize: 0x50 }
  - { offset: 0x9740A, size: 0x8, addend: 0x0, symName: '__ZN11_fast_ebook8pybridge186_$LT$impl$u20$pyo3..impl_..pyclass..PyMethods$LT$_fast_ebook..pybridge..PyEpubBook$GT$$u20$for$u20$pyo3..impl_..pyclass..PyClassImplCollector$LT$_fast_ebook..pybridge..PyEpubBook$GT$$GT$10py_methods5ITEMS10trampoline17hbb0a0c4f42d24013E', symObjAddr: 0x1464, symBinAddr: 0x35950, symSize: 0x50 }
  - { offset: 0x97460, size: 0x8, addend: 0x0, symName: '__ZN11_fast_ebook8pybridge186_$LT$impl$u20$pyo3..impl_..pyclass..PyMethods$LT$_fast_ebook..pybridge..PyEpubBook$GT$$u20$for$u20$pyo3..impl_..pyclass..PyClassImplCollector$LT$_fast_ebook..pybridge..PyEpubBook$GT$$GT$10py_methods5ITEMS10trampoline17h33315e214448cb6fE', symObjAddr: 0x14B4, symBinAddr: 0x359A0, symSize: 0x44 }
  - { offset: 0x9749A, size: 0x8, addend: 0x0, symName: '__ZN11_fast_ebook8pybridge186_$LT$impl$u20$pyo3..impl_..pyclass..PyMethods$LT$_fast_ebook..pybridge..PyEpubBook$GT$$u20$for$u20$pyo3..impl_..pyclass..PyClassImplCollector$LT$_fast_ebook..pybridge..PyEpubBook$GT$$GT$10py_methods5ITEMS10trampoline17h63fdd9f980d712c7E', symObjAddr: 0x14F8, symBinAddr: 0x359E4, symSize: 0x44 }
  - { offset: 0x974D4, size: 0x8, addend: 0x0, symName: '__ZN11_fast_ebook8pybridge186_$LT$impl$u20$pyo3..impl_..pyclass..PyMethods$LT$_fast_ebook..pybridge..PyEpubBook$GT$$u20$for$u20$pyo3..impl_..pyclass..PyClassImplCollector$LT$_fast_ebook..pybridge..PyEpubBook$GT$$GT$10py_methods5ITEMS10trampoline17h03cf0335120dbe01E', symObjAddr: 0x153C, symBinAddr: 0x35A28, symSize: 0x50 }
  - { offset: 0x9752A, size: 0x8, addend: 0x0, symName: '__ZN11_fast_ebook8pybridge186_$LT$impl$u20$pyo3..impl_..pyclass..PyMethods$LT$_fast_ebook..pybridge..PyEpubBook$GT$$u20$for$u20$pyo3..impl_..pyclass..PyClassImplCollector$LT$_fast_ebook..pybridge..PyEpubBook$GT$$GT$10py_methods5ITEMS10trampoline17hc306a350625abc92E', symObjAddr: 0x158C, symBinAddr: 0x35A78, symSize: 0x44 }
  - { offset: 0x97564, size: 0x8, addend: 0x0, symName: '__ZN11_fast_ebook8pybridge186_$LT$impl$u20$pyo3..impl_..pyclass..PyMethods$LT$_fast_ebook..pybridge..PyEpubBook$GT$$u20$for$u20$pyo3..impl_..pyclass..PyClassImplCollector$LT$_fast_ebook..pybridge..PyEpubBook$GT$$GT$10py_methods5ITEMS10trampoline17h0ee68f53a66dfc8bE', symObjAddr: 0x15D0, symBinAddr: 0x35ABC, symSize: 0x50 }
  - { offset: 0x975BA, size: 0x8, addend: 0x0, symName: '__ZN11_fast_ebook8pybridge186_$LT$impl$u20$pyo3..impl_..pyclass..PyMethods$LT$_fast_ebook..pybridge..PyEpubBook$GT$$u20$for$u20$pyo3..impl_..pyclass..PyClassImplCollector$LT$_fast_ebook..pybridge..PyEpubBook$GT$$GT$10py_methods5ITEMS10trampoline17hf8f6ae1c6f032e0dE', symObjAddr: 0x1620, symBinAddr: 0x35B0C, symSize: 0x50 }
  - { offset: 0x97610, size: 0x8, addend: 0x0, symName: '__ZN11_fast_ebook8pybridge186_$LT$impl$u20$pyo3..impl_..pyclass..PyMethods$LT$_fast_ebook..pybridge..PyEpubBook$GT$$u20$for$u20$pyo3..impl_..pyclass..PyClassImplCollector$LT$_fast_ebook..pybridge..PyEpubBook$GT$$GT$10py_methods5ITEMS10trampoline17h298b5b4a4c9d7d76E', symObjAddr: 0x1670, symBinAddr: 0x35B5C, symSize: 0x50 }
  - { offset: 0x97666, size: 0x8, addend: 0x0, symName: '__ZN11_fast_ebook8pybridge186_$LT$impl$u20$pyo3..impl_..pyclass..PyMethods$LT$_fast_ebook..pybridge..PyEpubBook$GT$$u20$for$u20$pyo3..impl_..pyclass..PyClassImplCollector$LT$_fast_ebook..pybridge..PyEpubBook$GT$$GT$10py_methods5ITEMS10trampoline17he7ab744c37b4ec83E', symObjAddr: 0x16C0, symBinAddr: 0x35BAC, symSize: 0x50 }
  - { offset: 0x976BC, size: 0x8, addend: 0x0, symName: '__ZN11_fast_ebook8pybridge186_$LT$impl$u20$pyo3..impl_..pyclass..PyMethods$LT$_fast_ebook..pybridge..PyEpubBook$GT$$u20$for$u20$pyo3..impl_..pyclass..PyClassImplCollector$LT$_fast_ebook..pybridge..PyEpubBook$GT$$GT$10py_methods5ITEMS10trampoline17h2bed3f5fd7849ffcE', symObjAddr: 0x1710, symBinAddr: 0x35BFC, symSize: 0x50 }
  - { offset: 0x97712, size: 0x8, addend: 0x0, symName: '__ZN11_fast_ebook8pybridge186_$LT$impl$u20$pyo3..impl_..pyclass..PyMethods$LT$_fast_ebook..pybridge..PyEpubBook$GT$$u20$for$u20$pyo3..impl_..pyclass..PyClassImplCollector$LT$_fast_ebook..pybridge..PyEpubBook$GT$$GT$10py_methods5ITEMS10trampoline17h4f14806be522d43bE', symObjAddr: 0x1760, symBinAddr: 0x35C4C, symSize: 0x50 }
  - { offset: 0x97768, size: 0x8, addend: 0x0, symName: '__ZN11_fast_ebook8pybridge186_$LT$impl$u20$pyo3..impl_..pyclass..PyMethods$LT$_fast_ebook..pybridge..PyEpubBook$GT$$u20$for$u20$pyo3..impl_..pyclass..PyClassImplCollector$LT$_fast_ebook..pybridge..PyEpubBook$GT$$GT$10py_methods5ITEMS10trampoline17h94f299d880b3879cE', symObjAddr: 0x17B0, symBinAddr: 0x35C9C, symSize: 0x50 }
  - { offset: 0x977BE, size: 0x8, addend: 0x0, symName: '__ZN11_fast_ebook8pybridge186_$LT$impl$u20$pyo3..impl_..pyclass..PyMethods$LT$_fast_ebook..pybridge..PyEpubBook$GT$$u20$for$u20$pyo3..impl_..pyclass..PyClassImplCollector$LT$_fast_ebook..pybridge..PyEpubBook$GT$$GT$10py_methods5ITEMS10trampoline17h8ae6817954a00275E', symObjAddr: 0x1800, symBinAddr: 0x35CEC, symSize: 0x50 }
  - { offset: 0x97814, size: 0x8, addend: 0x0, symName: '__ZN11_fast_ebook8pybridge186_$LT$impl$u20$pyo3..impl_..pyclass..PyMethods$LT$_fast_ebook..pybridge..PyEpubBook$GT$$u20$for$u20$pyo3..impl_..pyclass..PyClassImplCollector$LT$_fast_ebook..pybridge..PyEpubBook$GT$$GT$10py_methods5ITEMS10trampoline17hd06e653b39252914E', symObjAddr: 0x1850, symBinAddr: 0x35D3C, symSize: 0x50 }
  - { offset: 0x9786A, size: 0x8, addend: 0x0, symName: '__ZN11_fast_ebook8pybridge186_$LT$impl$u20$pyo3..impl_..pyclass..PyMethods$LT$_fast_ebook..pybridge..PyEpubBook$GT$$u20$for$u20$pyo3..impl_..pyclass..PyClassImplCollector$LT$_fast_ebook..pybridge..PyEpubBook$GT$$GT$10py_methods5ITEMS10trampoline17hc364bd30e436f701E', symObjAddr: 0x18A0, symBinAddr: 0x35D8C, symSize: 0x4C }
  - { offset: 0x978B2, size: 0x8, addend: 0x0, symName: '__ZN11_fast_ebook8pybridge186_$LT$impl$u20$pyo3..impl_..pyclass..PyMethods$LT$_fast_ebook..pybridge..PyEpubBook$GT$$u20$for$u20$pyo3..impl_..pyclass..PyClassImplCollector$LT$_fast_ebook..pybridge..PyEpubBook$GT$$GT$10py_methods5ITEMS10trampoline17h9b2ad73bcfb9ce7dE', symObjAddr: 0x18EC, symBinAddr: 0x35DD8, symSize: 0x3C }
  - { offset: 0x978F8, size: 0x8, addend: 0x0, symName: '__ZN87_$LT$_fast_ebook..pybridge..PyEpubItem$u20$as$u20$pyo3..impl_..pyclass..PyClassImpl$GT$10items_iter15INTRINSIC_ITEMS17h38f92f7edea295c1E', symObjAddr: 0xADC8, symBinAddr: 0x242DA0, symSize: 0x0 }
  - { offset: 0x97918, size: 0x8, addend: 0x0, symName: '__ZN87_$LT$_fast_ebook..pybridge..PyEpubItem$u20$as$u20$pyo3..impl_..pyclass..PyClassImpl$GT$3doc3DOC17h08ba71b92b082045E', symObjAddr: 0x2C660, symBinAddr: 0x32D2C8, symSize: 0x0 }
  - { offset: 0x97938, size: 0x8, addend: 0x0, symName: '__ZN87_$LT$_fast_ebook..pybridge..PyEpubItem$u20$as$u20$pyo3..impl_..pyclass..PyClassImpl$GT$16lazy_type_object11TYPE_OBJECT17h75f35d6d32e2e83fE', symObjAddr: 0xAE60, symBinAddr: 0x32C4D0, symSize: 0x0 }
  - { offset: 0x97946, size: 0x8, addend: 0x0, symName: '__ZN87_$LT$_fast_ebook..pybridge..PyEpubItem$u20$as$u20$pyo3..impl_..pyclass..PyClassImpl$GT$10items_iter17h1af6700eae8a8503E', symObjAddr: 0x6348, symBinAddr: 0x3A834, symSize: 0x38 }
  - { offset: 0x97981, size: 0x8, addend: 0x0, symName: '__ZN87_$LT$_fast_ebook..pybridge..PyEpubItem$u20$as$u20$pyo3..impl_..pyclass..PyClassImpl$GT$3doc17h2767ca44a49ef707E', symObjAddr: 0x6380, symBinAddr: 0x3A86C, symSize: 0x3C }
  - { offset: 0x979B8, size: 0x8, addend: 0x0, symName: '__ZN87_$LT$_fast_ebook..pybridge..PyEpubItem$u20$as$u20$pyo3..impl_..pyclass..PyClassImpl$GT$16lazy_type_object17h0d985313bd931eefE', symObjAddr: 0x63BC, symBinAddr: 0x3A8A8, symSize: 0xC }
  - { offset: 0x97B55, size: 0x8, addend: 0x0, symName: '__ZN11_fast_ebook8pybridge186_$LT$impl$u20$pyo3..impl_..pyclass..PyMethods$LT$_fast_ebook..pybridge..PyEpubItem$GT$$u20$for$u20$pyo3..impl_..pyclass..PyClassImplCollector$LT$_fast_ebook..pybridge..PyEpubItem$GT$$GT$10py_methods5ITEMS17h5f7c16e877ccbf4dE', symObjAddr: 0xA9B0, symBinAddr: 0x30B1B0, symSize: 0x0 }
  - { offset: 0x97B67, size: 0x8, addend: 0x0, symName: '__ZN11_fast_ebook8pybridge186_$LT$impl$u20$pyo3..impl_..pyclass..PyMethods$LT$_fast_ebook..pybridge..PyEpubItem$GT$$u20$for$u20$pyo3..impl_..pyclass..PyClassImplCollector$LT$_fast_ebook..pybridge..PyEpubItem$GT$$GT$10py_methods5ITEMS10trampoline17hbb114e1ebcb29d50E', symObjAddr: 0x6690, symBinAddr: 0x3AB7C, symSize: 0x44 }
  - { offset: 0x97BA1, size: 0x8, addend: 0x0, symName: '__ZN11_fast_ebook8pybridge186_$LT$impl$u20$pyo3..impl_..pyclass..PyMethods$LT$_fast_ebook..pybridge..PyEpubItem$GT$$u20$for$u20$pyo3..impl_..pyclass..PyClassImplCollector$LT$_fast_ebook..pybridge..PyEpubItem$GT$$GT$10py_methods5ITEMS10trampoline17h8800955316878b8fE', symObjAddr: 0x66D4, symBinAddr: 0x3ABC0, symSize: 0x44 }
  - { offset: 0x97BDB, size: 0x8, addend: 0x0, symName: '__ZN11_fast_ebook8pybridge186_$LT$impl$u20$pyo3..impl_..pyclass..PyMethods$LT$_fast_ebook..pybridge..PyEpubItem$GT$$u20$for$u20$pyo3..impl_..pyclass..PyClassImplCollector$LT$_fast_ebook..pybridge..PyEpubItem$GT$$GT$10py_methods5ITEMS10trampoline17h2755df90881cf6cbE', symObjAddr: 0x6718, symBinAddr: 0x3AC04, symSize: 0x44 }
  - { offset: 0x97C15, size: 0x8, addend: 0x0, symName: '__ZN11_fast_ebook8pybridge186_$LT$impl$u20$pyo3..impl_..pyclass..PyMethods$LT$_fast_ebook..pybridge..PyEpubItem$GT$$u20$for$u20$pyo3..impl_..pyclass..PyClassImplCollector$LT$_fast_ebook..pybridge..PyEpubItem$GT$$GT$10py_methods5ITEMS10trampoline17h9dc08d37aef8c327E', symObjAddr: 0x675C, symBinAddr: 0x3AC48, symSize: 0x44 }
  - { offset: 0x97C4F, size: 0x8, addend: 0x0, symName: '__ZN11_fast_ebook8pybridge186_$LT$impl$u20$pyo3..impl_..pyclass..PyMethods$LT$_fast_ebook..pybridge..PyEpubItem$GT$$u20$for$u20$pyo3..impl_..pyclass..PyClassImplCollector$LT$_fast_ebook..pybridge..PyEpubItem$GT$$GT$10py_methods5ITEMS10trampoline17h36c5043d1680ed7fE', symObjAddr: 0x67A0, symBinAddr: 0x3AC8C, symSize: 0x44 }
  - { offset: 0x97C89, size: 0x8, addend: 0x0, symName: '__ZN11_fast_ebook8pybridge186_$LT$impl$u20$pyo3..impl_..pyclass..PyMethods$LT$_fast_ebook..pybridge..PyEpubItem$GT$$u20$for$u20$pyo3..impl_..pyclass..PyClassImplCollector$LT$_fast_ebook..pybridge..PyEpubItem$GT$$GT$10py_methods5ITEMS10trampoline17h517850440f98dd40E', symObjAddr: 0x67E4, symBinAddr: 0x3ACD0, symSize: 0x44 }
  - { offset: 0x97CC3, size: 0x8, addend: 0x0, symName: '__ZN11_fast_ebook8pybridge186_$LT$impl$u20$pyo3..impl_..pyclass..PyMethods$LT$_fast_ebook..pybridge..PyEpubItem$GT$$u20$for$u20$pyo3..impl_..pyclass..PyClassImplCollector$LT$_fast_ebook..pybridge..PyEpubItem$GT$$GT$10py_methods5ITEMS10trampoline17h0d38c29e4b2f53b0E', symObjAddr: 0x6828, symBinAddr: 0x3AD14, symSize: 0x3C }
  - { offset: 0x97D0A, size: 0x8, addend: 0x0, symName: '__ZN87_$LT$_fast_ebook..pybridge..PyTocEntry$u20$as$u20$pyo3..impl_..pyclass..PyClassImpl$GT$10items_iter15INTRINSIC_ITEMS17hdbe06c96407664ffE', symObjAddr: 0xAAA8, symBinAddr: 0x30B2A8, symSize: 0x0 }
  - { offset: 0x97D21, size: 0x8, addend: 0x0, symName: '__ZN247_$LT$$LT$_fast_ebook..pybridge..PyTocEntry$u20$as$u20$pyo3..impl_..pyclass..PyClassImpl$GT$..items_iter..INTRINSIC_ITEMS..Offset$u20$as$u20$pyo3..impl_..pyclass..OffsetCalculator$LT$_fast_ebook..pybridge..PyTocEntry$C$alloc..string..String$GT$$GT$6offset17h312cf0bf37794559E', symObjAddr: 0x77B4, symBinAddr: 0x3BCA0, symSize: 0x40 }
  - { offset: 0x97D45, size: 0x8, addend: 0x0, symName: '__ZN247_$LT$$LT$_fast_ebook..pybridge..PyTocEntry$u20$as$u20$pyo3..impl_..pyclass..PyClassImpl$GT$..items_iter..INTRINSIC_ITEMS..Offset$u20$as$u20$pyo3..impl_..pyclass..OffsetCalculator$LT$_fast_ebook..pybridge..PyTocEntry$C$alloc..string..String$GT$$GT$6offset17h260e04ddadc45038E', symObjAddr: 0x77F4, symBinAddr: 0x3BCE0, symSize: 0x40 }
  - { offset: 0x97D69, size: 0x8, addend: 0x0, symName: '__ZN282_$LT$$LT$_fast_ebook..pybridge..PyTocEntry$u20$as$u20$pyo3..impl_..pyclass..PyClassImpl$GT$..items_iter..INTRINSIC_ITEMS..Offset$u20$as$u20$pyo3..impl_..pyclass..OffsetCalculator$LT$_fast_ebook..pybridge..PyTocEntry$C$alloc..vec..Vec$LT$_fast_ebook..pybridge..PyTocEntry$GT$$GT$$GT$6offset17h60d76814623bf238E', symObjAddr: 0x7834, symBinAddr: 0x3BD20, symSize: 0x40 }
  - { offset: 0x97D9D, size: 0x8, addend: 0x0, symName: '__ZN87_$LT$_fast_ebook..pybridge..PyTocEntry$u20$as$u20$pyo3..impl_..pyclass..PyClassImpl$GT$3doc3DOC17h28316b89bdbf6d60E', symObjAddr: 0x2C680, symBinAddr: 0x32D2E8, symSize: 0x0 }
  - { offset: 0x97DBE, size: 0x8, addend: 0x0, symName: '__ZN87_$LT$_fast_ebook..pybridge..PyTocEntry$u20$as$u20$pyo3..impl_..pyclass..PyClassImpl$GT$16lazy_type_object11TYPE_OBJECT17hc284b63ae9e57abbE', symObjAddr: 0xAEB8, symBinAddr: 0x32C528, symSize: 0x0 }
  - { offset: 0x97DCC, size: 0x8, addend: 0x0, symName: '__ZN87_$LT$_fast_ebook..pybridge..PyTocEntry$u20$as$u20$pyo3..impl_..pyclass..PyClassImpl$GT$10items_iter17h139168854e6fea07E', symObjAddr: 0x777C, symBinAddr: 0x3BC68, symSize: 0x38 }
  - { offset: 0x97E09, size: 0x8, addend: 0x0, symName: '__ZN87_$LT$_fast_ebook..pybridge..PyTocEntry$u20$as$u20$pyo3..impl_..pyclass..PyClassImpl$GT$3doc17h626689f672aaed9cE', symObjAddr: 0x7874, symBinAddr: 0x3BD60, symSize: 0x3C }
  - { offset: 0x97E43, size: 0x8, addend: 0x0, symName: '__ZN87_$LT$_fast_ebook..pybridge..PyTocEntry$u20$as$u20$pyo3..impl_..pyclass..PyClassImpl$GT$16lazy_type_object17he37399f0617b9622E', symObjAddr: 0x78B0, symBinAddr: 0x3BD9C, symSize: 0xC }
  - { offset: 0x97F49, size: 0x8, addend: 0x0, symName: '__ZN11_fast_ebook8pybridge186_$LT$impl$u20$pyo3..impl_..pyclass..PyMethods$LT$_fast_ebook..pybridge..PyTocEntry$GT$$u20$for$u20$pyo3..impl_..pyclass..PyClassImplCollector$LT$_fast_ebook..pybridge..PyTocEntry$GT$$GT$10py_methods5ITEMS17h1a356882ef682e7eE', symObjAddr: 0xAB48, symBinAddr: 0x30B348, symSize: 0x0 }
  - { offset: 0x97F5B, size: 0x8, addend: 0x0, symName: '__ZN11_fast_ebook8pybridge186_$LT$impl$u20$pyo3..impl_..pyclass..PyMethods$LT$_fast_ebook..pybridge..PyTocEntry$GT$$u20$for$u20$pyo3..impl_..pyclass..PyClassImplCollector$LT$_fast_ebook..pybridge..PyTocEntry$GT$$GT$10py_methods5ITEMS10trampoline17hb4eae96fb973daafE', symObjAddr: 0x7A64, symBinAddr: 0x3BF50, symSize: 0x4C }
  - { offset: 0x97FA7, size: 0x8, addend: 0x0, symName: '__ZN11_fast_ebook8pybridge186_$LT$impl$u20$pyo3..impl_..pyclass..PyMethods$LT$_fast_ebook..pybridge..PyTocEntry$GT$$u20$for$u20$pyo3..impl_..pyclass..PyClassImplCollector$LT$_fast_ebook..pybridge..PyTocEntry$GT$$GT$10py_methods5ITEMS10trampoline17h8b0344f35e270d21E', symObjAddr: 0x7AB0, symBinAddr: 0x3BF9C, symSize: 0x3C }
  - { offset: 0x97FD8, size: 0x8, addend: 0x0, symName: __ZN11_fast_ebook8pybridge15strip_html_tags17h144ad5e22c2a3d77E, symObjAddr: 0x20C, symBinAddr: 0x346F8, symSize: 0x234 }
  - { offset: 0x9809C, size: 0x8, addend: 0x0, symName: '__ZN83_$LT$_fast_ebook..pybridge..PyEpubBook$u20$as$u20$pyo3..type_object..PyTypeInfo$GT$15type_object_raw17hc2e31455d1953b63E', symObjAddr: 0x440, symBinAddr: 0x3492C, symSize: 0x24 }
  - { offset: 0x980D9, size: 0x8, addend: 0x0, symName: '__ZN116_$LT$$RF$_fast_ebook..pybridge..PyEpubBook$u20$as$u20$pyo3..impl_..extract_argument..PyFunctionArgument$LT$_$GT$$GT$7extract17h93f12bb71af34793E', symObjAddr: 0x464, symBinAddr: 0x34950, symSize: 0x2C }
  - { offset: 0x98119, size: 0x8, addend: 0x0, symName: '__ZN84_$LT$_fast_ebook..pybridge..PyEpubBook$u20$as$u20$pyo3..conversion..IntoPyObject$GT$13into_pyobject17h69c6e155c4bb1aecE', symObjAddr: 0x490, symBinAddr: 0x3497C, symSize: 0x1C }
  - { offset: 0x98165, size: 0x8, addend: 0x0, symName: '__ZN83_$LT$_fast_ebook..pybridge..PyEpubItem$u20$as$u20$pyo3..type_object..PyTypeInfo$GT$15type_object_raw17h4660c68f611f4754E', symObjAddr: 0x6300, symBinAddr: 0x3A7EC, symSize: 0x24 }
  - { offset: 0x981A2, size: 0x8, addend: 0x0, symName: '__ZN84_$LT$_fast_ebook..pybridge..PyEpubItem$u20$as$u20$pyo3..conversion..IntoPyObject$GT$13into_pyobject17he56335fc0a2c7293E', symObjAddr: 0x6324, symBinAddr: 0x3A810, symSize: 0x24 }
  - { offset: 0x981ED, size: 0x8, addend: 0x0, symName: '__ZN83_$LT$_fast_ebook..pybridge..PyTocEntry$u20$as$u20$pyo3..type_object..PyTypeInfo$GT$15type_object_raw17h6395ed96ba92fe96E', symObjAddr: 0x773C, symBinAddr: 0x3BC28, symSize: 0x24 }
  - { offset: 0x9822D, size: 0x8, addend: 0x0, symName: '__ZN84_$LT$_fast_ebook..pybridge..PyTocEntry$u20$as$u20$pyo3..conversion..IntoPyObject$GT$13into_pyobject17hdee1172d018a9829E', symObjAddr: 0x7760, symBinAddr: 0x3BC4C, symSize: 0x1C }
  - { offset: 0x9827D, size: 0x8, addend: 0x0, symName: '__ZN72_$LT$_fast_ebook..pybridge..PyTocEntry$u20$as$u20$core..clone..Clone$GT$5clone17h283418fbb566d1e1E', symObjAddr: 0x78BC, symBinAddr: 0x3BDA8, symSize: 0xE4 }
  - { offset: 0x9CA96, size: 0x8, addend: 0x0, symName: __ZN11_fast_ebook8pybridge10PyTocEntry10from_entry17h9ce2fba6c3ef8756E, symObjAddr: 0x0, symBinAddr: 0x344EC, symSize: 0x124 }
  - { offset: 0x9CAB9, size: 0x8, addend: 0x0, symName: __ZN11_fast_ebook8pybridge10PyTocEntry14into_toc_entry17h28b9adac778c2eefE, symObjAddr: 0x124, symBinAddr: 0x34610, symSize: 0xE8 }
  - { offset: 0x9CADD, size: 0x8, addend: 0x0, symName: __ZN11_fast_ebook8pybridge10PyEpubBook3new17h3e3dc46ac143a8e5E, symObjAddr: 0x52C, symBinAddr: 0x34A18, symSize: 0x44 }
  - { offset: 0x9CAFD, size: 0x8, addend: 0x0, symName: __ZN11_fast_ebook8pybridge10PyEpubBook9get_items17hd3fcef1381065562E, symObjAddr: 0x570, symBinAddr: 0x34A5C, symSize: 0x38 }
  - { offset: 0x9CB1F, size: 0x8, addend: 0x0, symName: __ZN11_fast_ebook8pybridge10PyEpubBook17get_items_of_type17h99e17b977ca655d8E, symObjAddr: 0x5A8, symBinAddr: 0x34A94, symSize: 0x64 }
  - { offset: 0x9CB6D, size: 0x8, addend: 0x0, symName: __ZN11_fast_ebook8pybridge10PyEpubBook16get_item_with_id17h6b1bd74633599410E, symObjAddr: 0x60C, symBinAddr: 0x34AF8, symSize: 0x34 }
  - { offset: 0x9CB9D, size: 0x8, addend: 0x0, symName: __ZN11_fast_ebook8pybridge10PyEpubBook18get_item_with_href17h04080981e7440d87E, symObjAddr: 0x640, symBinAddr: 0x34B2C, symSize: 0x34 }
  - { offset: 0x9CBEB, size: 0x8, addend: 0x0, symName: __ZN11_fast_ebook8pybridge10PyEpubBook12get_metadata17hf922a09834979dd9E, symObjAddr: 0x674, symBinAddr: 0x34B60, symSize: 0x68 }
  - { offset: 0x9CC47, size: 0x8, addend: 0x0, symName: __ZN11_fast_ebook8pybridge10PyEpubBook9get_spine17h9840cb2dc92684a5E, symObjAddr: 0x6DC, symBinAddr: 0x34BC8, symSize: 0x38 }
  - { offset: 0x9CC69, size: 0x8, addend: 0x0, symName: __ZN11_fast_ebook8pybridge10PyEpubBook3toc17h22940c42b0283820E, symObjAddr: 0x714, symBinAddr: 0x34C00, symSize: 0x38 }
  - { offset: 0x9CC8B, size: 0x8, addend: 0x0, symName: __ZN11_fast_ebook8pybridge10PyEpubBook8__repr__17h9856a3e8bed3d47dE, symObjAddr: 0x74C, symBinAddr: 0x34C38, symSize: 0xB0 }
  - { offset: 0x9CD04, size: 0x8, addend: 0x0, symName: __ZN11_fast_ebook8pybridge10PyEpubBook9__enter__17h981c6cda73b3c095E, symObjAddr: 0x7FC, symBinAddr: 0x34CE8, symSize: 0x14 }
  - { offset: 0x9CD33, size: 0x8, addend: 0x0, symName: __ZN11_fast_ebook8pybridge10PyEpubBook8__exit__17h3dddd43072dad48fE, symObjAddr: 0x810, symBinAddr: 0x34CFC, symSize: 0x24 }
  - { offset: 0x9CD7F, size: 0x8, addend: 0x0, symName: __ZN11_fast_ebook8pybridge10PyEpubBook8validate17h9fa040337d785f8aE, symObjAddr: 0x834, symBinAddr: 0x34D20, symSize: 0x24 }
  - { offset: 0x9CDAE, size: 0x8, addend: 0x0, symName: __ZN11_fast_ebook8pybridge10PyEpubBook14set_identifier17h497c1e3ab6740b45E, symObjAddr: 0x858, symBinAddr: 0x34D44, symSize: 0x70 }
  - { offset: 0x9CDDE, size: 0x8, addend: 0x0, symName: __ZN11_fast_ebook8pybridge10PyEpubBook9set_title17hd09370c460b62d66E, symObjAddr: 0x8C8, symBinAddr: 0x34DB4, symSize: 0x70 }
  - { offset: 0x9CE0E, size: 0x8, addend: 0x0, symName: __ZN11_fast_ebook8pybridge10PyEpubBook12set_language17hbcfacd1698301edbE, symObjAddr: 0x938, symBinAddr: 0x34E24, symSize: 0x70 }
  - { offset: 0x9CE3E, size: 0x8, addend: 0x0, symName: __ZN11_fast_ebook8pybridge10PyEpubBook10add_author17hb3c5eb0e83f7a1b7E, symObjAddr: 0x9A8, symBinAddr: 0x34E94, symSize: 0x328 }
  - { offset: 0x9CEF3, size: 0x8, addend: 0x0, symName: __ZN11_fast_ebook8pybridge10PyEpubBook12add_metadata17h38d36406517d81c8E, symObjAddr: 0xCD0, symBinAddr: 0x351BC, symSize: 0x88 }
  - { offset: 0x9CF4E, size: 0x8, addend: 0x0, symName: __ZN11_fast_ebook8pybridge10PyEpubBook12add_item_raw17h0f542a236a7b55bdE, symObjAddr: 0xD58, symBinAddr: 0x35244, symSize: 0x280 }
  - { offset: 0x9D01A, size: 0x8, addend: 0x0, symName: __ZN11_fast_ebook8pybridge10PyEpubBook9set_cover17hd9ff9e88b3d26e1dE, symObjAddr: 0xFD8, symBinAddr: 0x354C4, symSize: 0x218 }
  - { offset: 0x9D08B, size: 0x8, addend: 0x0, symName: __ZN11_fast_ebook8pybridge10PyEpubBook21_set_toc_from_entries17hbc7788cc7991f856E, symObjAddr: 0x11F0, symBinAddr: 0x356DC, symSize: 0xA0 }
  - { offset: 0x9D0BC, size: 0x8, addend: 0x0, symName: __ZN11_fast_ebook8pybridge10PyEpubBook23_set_spine_from_entries17h989c3a4b7acb81d0E, symObjAddr: 0x1290, symBinAddr: 0x3577C, symSize: 0xA0 }
  - { offset: 0x9D0ED, size: 0x8, addend: 0x0, symName: __ZN11_fast_ebook8pybridge10PyEpubBook20__pymethod___new____17h1c8eecc134933d33E, symObjAddr: 0x1928, symBinAddr: 0x35E14, symSize: 0x1C8 }
  - { offset: 0x9D222, size: 0x8, addend: 0x0, symName: __ZN11_fast_ebook8pybridge10PyEpubBook22__pymethod_get_items__17hf1ed958be18e7c45E, symObjAddr: 0x1AF0, symBinAddr: 0x35FDC, symSize: 0x290 }
  - { offset: 0x9D307, size: 0x8, addend: 0x0, symName: __ZN11_fast_ebook8pybridge10PyEpubBook30__pymethod_get_items_of_type__17h43ea8e93b4051c4aE, symObjAddr: 0x1D80, symBinAddr: 0x3626C, symSize: 0x3BC }
  - { offset: 0x9D494, size: 0x8, addend: 0x0, symName: __ZN11_fast_ebook8pybridge10PyEpubBook29__pymethod_get_item_with_id__17h6ac25305e7b7e51dE, symObjAddr: 0x213C, symBinAddr: 0x36628, symSize: 0x3B0 }
  - { offset: 0x9D622, size: 0x8, addend: 0x0, symName: __ZN11_fast_ebook8pybridge10PyEpubBook31__pymethod_get_item_with_href__17hce7ada2ab7a3f055E, symObjAddr: 0x24EC, symBinAddr: 0x369D8, symSize: 0x3B0 }
  - { offset: 0x9D7B0, size: 0x8, addend: 0x0, symName: __ZN11_fast_ebook8pybridge10PyEpubBook25__pymethod_get_metadata__17h1340577422b68d1dE, symObjAddr: 0x289C, symBinAddr: 0x36D88, symSize: 0x4D4 }
  - { offset: 0x9D96F, size: 0x8, addend: 0x0, symName: __ZN11_fast_ebook8pybridge10PyEpubBook22__pymethod_get_spine__17h52c6364424876b65E, symObjAddr: 0x2D70, symBinAddr: 0x3725C, symSize: 0x290 }
  - { offset: 0x9DA54, size: 0x8, addend: 0x0, symName: __ZN11_fast_ebook8pybridge10PyEpubBook20__pymethod_get_toc__17ha393a8723daa80e7E, symObjAddr: 0x3000, symBinAddr: 0x374EC, symSize: 0x124 }
  - { offset: 0x9DADF, size: 0x8, addend: 0x0, symName: __ZN11_fast_ebook8pybridge10PyEpubBook21__pymethod___repr____17h2b94ce7404df8bd4E, symObjAddr: 0x3124, symBinAddr: 0x37610, symSize: 0x168 }
  - { offset: 0x9DB94, size: 0x8, addend: 0x0, symName: __ZN11_fast_ebook8pybridge10PyEpubBook22__pymethod___enter____17hb49222af093c3551E, symObjAddr: 0x328C, symBinAddr: 0x37778, symSize: 0x234 }
  - { offset: 0x9DC63, size: 0x8, addend: 0x0, symName: __ZN11_fast_ebook8pybridge10PyEpubBook21__pymethod___exit____17heb83da4f6d24b52dE, symObjAddr: 0x34C0, symBinAddr: 0x379AC, symSize: 0x4F0 }
  - { offset: 0x9DE55, size: 0x8, addend: 0x0, symName: __ZN11_fast_ebook8pybridge10PyEpubBook21__pymethod_validate__17hedaf6d51c330a984E, symObjAddr: 0x39B0, symBinAddr: 0x37E9C, symSize: 0x290 }
  - { offset: 0x9DF3A, size: 0x8, addend: 0x0, symName: __ZN11_fast_ebook8pybridge10PyEpubBook27__pymethod_set_identifier__17h40ce276997d56357E, symObjAddr: 0x3C40, symBinAddr: 0x3812C, symSize: 0x318 }
  - { offset: 0x9E0CE, size: 0x8, addend: 0x0, symName: __ZN11_fast_ebook8pybridge10PyEpubBook22__pymethod_set_title__17hfd5bc95a20a5c5f6E, symObjAddr: 0x3F58, symBinAddr: 0x38444, symSize: 0x318 }
  - { offset: 0x9E262, size: 0x8, addend: 0x0, symName: __ZN11_fast_ebook8pybridge10PyEpubBook25__pymethod_set_language__17h865ec0edf714fd61E, symObjAddr: 0x4270, symBinAddr: 0x3875C, symSize: 0x318 }
  - { offset: 0x9E3F6, size: 0x8, addend: 0x0, symName: __ZN11_fast_ebook8pybridge10PyEpubBook23__pymethod_add_author__17h56306477388f2c1aE, symObjAddr: 0x4588, symBinAddr: 0x38A74, symSize: 0x598 }
  - { offset: 0x9E615, size: 0x8, addend: 0x0, symName: __ZN11_fast_ebook8pybridge10PyEpubBook25__pymethod_add_metadata__17h43fdcb716903ce98E, symObjAddr: 0x4B20, symBinAddr: 0x3900C, symSize: 0x5B0 }
  - { offset: 0x9E834, size: 0x8, addend: 0x0, symName: __ZN11_fast_ebook8pybridge10PyEpubBook25__pymethod_add_item_raw__17h60c486cdce92c3aaE, symObjAddr: 0x50D0, symBinAddr: 0x395BC, symSize: 0x7C0 }
  - { offset: 0x9EAE1, size: 0x8, addend: 0x0, symName: __ZN11_fast_ebook8pybridge10PyEpubBook22__pymethod_set_cover__17hf33d5d59f0b9b795E, symObjAddr: 0x5890, symBinAddr: 0x39D7C, symSize: 0x430 }
  - { offset: 0x9ECA1, size: 0x8, addend: 0x0, symName: __ZN11_fast_ebook8pybridge10PyEpubBook34__pymethod__set_toc_from_entries__17he532be285b35800eE, symObjAddr: 0x5CC0, symBinAddr: 0x3A1AC, symSize: 0x320 }
  - { offset: 0x9EE33, size: 0x8, addend: 0x0, symName: __ZN11_fast_ebook8pybridge10PyEpubBook36__pymethod__set_spine_from_entries__17h0157899ff6221e5bE, symObjAddr: 0x5FE0, symBinAddr: 0x3A4CC, symSize: 0x320 }
  - { offset: 0x9EFD2, size: 0x8, addend: 0x0, symName: __ZN11_fast_ebook8pybridge10PyEpubItem11get_content17h55a104d7dcd021eaE, symObjAddr: 0x63C8, symBinAddr: 0x3A8B4, symSize: 0x30 }
  - { offset: 0x9F00D, size: 0x8, addend: 0x0, symName: __ZN11_fast_ebook8pybridge10PyEpubItem8get_type17h64589ac05e580f9bE, symObjAddr: 0x63F8, symBinAddr: 0x3A8E4, symSize: 0x28 }
  - { offset: 0x9F02F, size: 0x8, addend: 0x0, symName: __ZN11_fast_ebook8pybridge10PyEpubItem8get_name17hf22d304e2202cc6cE, symObjAddr: 0x6420, symBinAddr: 0x3A90C, symSize: 0x2C }
  - { offset: 0x9F052, size: 0x8, addend: 0x0, symName: __ZN11_fast_ebook8pybridge10PyEpubItem6get_id17hc8a8355213a5e402E, symObjAddr: 0x644C, symBinAddr: 0x3A938, symSize: 0x28 }
  - { offset: 0x9F075, size: 0x8, addend: 0x0, symName: __ZN11_fast_ebook8pybridge10PyEpubItem14get_media_type17hfa5b97e584e7ea37E, symObjAddr: 0x6474, symBinAddr: 0x3A960, symSize: 0x2C }
  - { offset: 0x9F098, size: 0x8, addend: 0x0, symName: __ZN11_fast_ebook8pybridge10PyEpubItem8get_text17h3a68b94f0577d9aaE, symObjAddr: 0x64A0, symBinAddr: 0x3A98C, symSize: 0x100 }
  - { offset: 0x9F0D1, size: 0x8, addend: 0x0, symName: __ZN11_fast_ebook8pybridge10PyEpubItem8__repr__17h3cd6b02392b589f4E, symObjAddr: 0x65A0, symBinAddr: 0x3AA8C, symSize: 0xF0 }
  - { offset: 0x9F150, size: 0x8, addend: 0x0, symName: __ZN11_fast_ebook8pybridge10PyEpubItem24__pymethod_get_content__17h0279c4245df921eaE, symObjAddr: 0x6864, symBinAddr: 0x3AD50, symSize: 0x270 }
  - { offset: 0x9F235, size: 0x8, addend: 0x0, symName: __ZN11_fast_ebook8pybridge10PyEpubItem21__pymethod_get_type__17h237844c119229534E, symObjAddr: 0x6AD4, symBinAddr: 0x3AFC0, symSize: 0x204 }
  - { offset: 0x9F321, size: 0x8, addend: 0x0, symName: __ZN11_fast_ebook8pybridge10PyEpubItem21__pymethod_get_name__17h5863e4816f4f5206E, symObjAddr: 0x6CD8, symBinAddr: 0x3B1C4, symSize: 0x224 }
  - { offset: 0x9F410, size: 0x8, addend: 0x0, symName: __ZN11_fast_ebook8pybridge10PyEpubItem19__pymethod_get_id__17hf26e328e5a14d612E, symObjAddr: 0x6EFC, symBinAddr: 0x3B3E8, symSize: 0x224 }
  - { offset: 0x9F4FF, size: 0x8, addend: 0x0, symName: __ZN11_fast_ebook8pybridge10PyEpubItem27__pymethod_get_media_type__17hfbaf78d36d0ec5e2E, symObjAddr: 0x7120, symBinAddr: 0x3B60C, symSize: 0x224 }
  - { offset: 0x9F5EE, size: 0x8, addend: 0x0, symName: __ZN11_fast_ebook8pybridge10PyEpubItem21__pymethod_get_text__17hcd7124839993a4f4E, symObjAddr: 0x7344, symBinAddr: 0x3B830, symSize: 0x290 }
  - { offset: 0x9F6D6, size: 0x8, addend: 0x0, symName: __ZN11_fast_ebook8pybridge10PyEpubItem21__pymethod___repr____17h349a958021373378E, symObjAddr: 0x75D4, symBinAddr: 0x3BAC0, symSize: 0x168 }
  - { offset: 0x9F78B, size: 0x8, addend: 0x0, symName: __ZN11_fast_ebook8pybridge10PyTocEntry3new17h31e24593fbe23487E, symObjAddr: 0x79A0, symBinAddr: 0x3BE8C, symSize: 0x38 }
  - { offset: 0x9F7D9, size: 0x8, addend: 0x0, symName: __ZN11_fast_ebook8pybridge10PyTocEntry8__repr__17h36506231e2814799E, symObjAddr: 0x79D8, symBinAddr: 0x3BEC4, symSize: 0x8C }
  - { offset: 0x9F858, size: 0x8, addend: 0x0, symName: __ZN11_fast_ebook8pybridge10PyTocEntry20__pymethod___new____17ha8609f3337549165E, symObjAddr: 0x7AEC, symBinAddr: 0x3BFD8, symSize: 0x5A8 }
  - { offset: 0x9FA78, size: 0x8, addend: 0x0, symName: __ZN11_fast_ebook8pybridge10PyTocEntry21__pymethod___repr____17hc9913f69acd9fd33E, symObjAddr: 0x8094, symBinAddr: 0x3C580, symSize: 0x168 }
  - { offset: 0x9FFC0, size: 0x8, addend: 0x0, symName: __ZN5rayon4iter7collect14special_extend17h1cf52f1e01090bcfE, symObjAddr: 0x0, symBinAddr: 0x3C6E8, symSize: 0x44 }
  - { offset: 0xA072E, size: 0x8, addend: 0x0, symName: __ZN5rayon4iter7collect14special_extend17h1cf52f1e01090bcfE, symObjAddr: 0x0, symBinAddr: 0x3C6E8, symSize: 0x44 }
  - { offset: 0xA0785, size: 0x8, addend: 0x0, symName: __ZN5rayon4iter7collect14special_extend17hacdd98da8eb989f9E, symObjAddr: 0x44, symBinAddr: 0x3C72C, symSize: 0x44 }
  - { offset: 0xA07E1, size: 0x8, addend: 0x0, symName: '__ZN5rayon4iter7collect14special_extend28_$u7b$$u7b$closure$u7d$$u7d$17h4cf421abad2e725cE', symObjAddr: 0x88, symBinAddr: 0x3C770, symSize: 0x40 }
  - { offset: 0xA082F, size: 0x8, addend: 0x0, symName: '__ZN5rayon4iter7collect14special_extend28_$u7b$$u7b$closure$u7d$$u7d$17hc432a0a32f7dc9adE', symObjAddr: 0xC8, symBinAddr: 0x3C7B0, symSize: 0x40 }
  - { offset: 0xA08A4, size: 0x8, addend: 0x0, symName: __ZN5rayon4iter7collect21collect_with_consumer17h523c9f11077cfbc8E, symObjAddr: 0x108, symBinAddr: 0x3C7F0, symSize: 0x240 }
  - { offset: 0xA0981, size: 0x8, addend: 0x0, symName: __ZN5rayon4iter7collect21collect_with_consumer17hab12e697206a44a0E, symObjAddr: 0x348, symBinAddr: 0x3CA30, symSize: 0x240 }
  - { offset: 0xA1EB7, size: 0x8, addend: 0x0, symName: __ZN3std2io5Write14write_vectored17h6832f325c31ab8a1E, symObjAddr: 0x0, symBinAddr: 0x3CC70, symSize: 0x30 }
  - { offset: 0xA1F63, size: 0x8, addend: 0x0, symName: '__ZN3zip5write25GenericZipWriter$LT$W$GT$19prepare_next_writer28_$u7b$$u7b$closure$u7d$$u7d$17h506cb39168342b16E', symObjAddr: 0x20C8, symBinAddr: 0x3ED38, symSize: 0x68 }
  - { offset: 0xA1FA6, size: 0x8, addend: 0x0, symName: '__ZN3zip5write25GenericZipWriter$LT$W$GT$19prepare_next_writer28_$u7b$$u7b$closure$u7d$$u7d$17h6bed004a2d42d5cdE', symObjAddr: 0x2130, symBinAddr: 0x3EDA0, symSize: 0x68 }
  - { offset: 0xA2030, size: 0x8, addend: 0x0, symName: '__ZN3zip5write25GenericZipWriter$LT$W$GT$19prepare_next_writer28_$u7b$$u7b$closure$u7d$$u7d$17h7302790add79ba4eE', symObjAddr: 0x2198, symBinAddr: 0x3EE08, symSize: 0x20C }
  - { offset: 0xA20A0, size: 0x8, addend: 0x0, symName: '__ZN3zip5write25GenericZipWriter$LT$W$GT$19prepare_next_writer28_$u7b$$u7b$closure$u7d$$u7d$17h8c29754b135a7b31E', symObjAddr: 0x23A4, symBinAddr: 0x3F014, symSize: 0x118 }
  - { offset: 0xA20E8, size: 0x8, addend: 0x0, symName: '__ZN3zip5write25GenericZipWriter$LT$W$GT$19prepare_next_writer28_$u7b$$u7b$closure$u7d$$u7d$17h966f28f36d0b0e0eE', symObjAddr: 0x24BC, symBinAddr: 0x3F12C, symSize: 0x1F8 }
  - { offset: 0xA2158, size: 0x8, addend: 0x0, symName: '__ZN3zip5write25GenericZipWriter$LT$W$GT$19prepare_next_writer28_$u7b$$u7b$closure$u7d$$u7d$17hae2597758170b69bE', symObjAddr: 0x26B4, symBinAddr: 0x3F324, symSize: 0x118 }
  - { offset: 0xA21A0, size: 0x8, addend: 0x0, symName: '__ZN3zip5write25GenericZipWriter$LT$W$GT$19prepare_next_writer28_$u7b$$u7b$closure$u7d$$u7d$17hcf6126d0e2c32ca8E', symObjAddr: 0x27CC, symBinAddr: 0x3F43C, symSize: 0x68 }
  - { offset: 0xA21E3, size: 0x8, addend: 0x0, symName: '__ZN3zip5write25GenericZipWriter$LT$W$GT$19prepare_next_writer28_$u7b$$u7b$closure$u7d$$u7d$17hff509df66005c55cE', symObjAddr: 0x2834, symBinAddr: 0x3F4A4, symSize: 0x68 }
  - { offset: 0xA2281, size: 0x8, addend: 0x0, symName: '__ZN3zip5write25GenericZipWriter$LT$W$GT$9switch_to28_$u7b$$u7b$closure$u7d$$u7d$17hd82412e0d831e6caE', symObjAddr: 0x3938, symBinAddr: 0x405A8, symSize: 0x30 }
  - { offset: 0xA22C4, size: 0x8, addend: 0x0, symName: '__ZN3zip5write25GenericZipWriter$LT$W$GT$9switch_to28_$u7b$$u7b$closure$u7d$$u7d$17hfdc637fc291faf8eE', symObjAddr: 0x3968, symBinAddr: 0x405D8, symSize: 0x30 }
  - { offset: 0xA2401, size: 0x8, addend: 0x0, symName: __ZN3zip5write21update_aes_extra_data17h580b023350f06ebaE, symObjAddr: 0xCB8, symBinAddr: 0x3D928, symSize: 0x41C }
  - { offset: 0xA258A, size: 0x8, addend: 0x0, symName: __ZN3zip5write21update_aes_extra_data17h8b39b95ea9dc221aE, symObjAddr: 0x10D4, symBinAddr: 0x3DD44, symSize: 0x41C }
  - { offset: 0xA2718, size: 0x8, addend: 0x0, symName: '__ZN3zip5write21update_aes_extra_data28_$u7b$$u7b$closure$u7d$$u7d$17hd71744307973fa72E', symObjAddr: 0x14F0, symBinAddr: 0x3E160, symSize: 0x2C }
  - { offset: 0xA274B, size: 0x8, addend: 0x0, symName: '__ZN3zip5write21update_aes_extra_data28_$u7b$$u7b$closure$u7d$$u7d$17hee3c4681e53922aaE', symObjAddr: 0x151C, symBinAddr: 0x3E18C, symSize: 0x2C }
  - { offset: 0xA278D, size: 0x8, addend: 0x0, symName: __ZN3zip5write23validate_value_in_range17hcd13a5b39329d2bbE, symObjAddr: 0x1548, symBinAddr: 0x3E1B8, symSize: 0x9C }
  - { offset: 0xA2BAD, size: 0x8, addend: 0x0, symName: '__ZN3zip5write41_$LT$impl$u20$zip..types..ZipFileData$GT$30write_central_directory_header28_$u7b$$u7b$closure$u7d$$u7d$17hd09f795c278eeb3eE', symObjAddr: 0x3998, symBinAddr: 0x40608, symSize: 0x2C }
  - { offset: 0xA2BEB, size: 0x8, addend: 0x0, symName: '__ZN3zip5write41_$LT$impl$u20$zip..types..ZipFileData$GT$30write_central_directory_header28_$u7b$$u7b$closure$u7d$$u7d$17hddd319e06cca99eeE', symObjAddr: 0x39C4, symBinAddr: 0x40634, symSize: 0x2C }
  - { offset: 0xA2C43, size: 0x8, addend: 0x0, symName: '__ZN3zip5write60_$LT$impl$u20$zip..write..zip_writer..ZipWriter$LT$W$GT$$GT$10abort_file28_$u7b$$u7b$closure$u7d$$u7d$17h037755d4edd41204E', symObjAddr: 0x39F0, symBinAddr: 0x40660, symSize: 0x38 }
  - { offset: 0xA2C8C, size: 0x8, addend: 0x0, symName: '__ZN3zip5write60_$LT$impl$u20$zip..write..zip_writer..ZipWriter$LT$W$GT$$GT$10abort_file28_$u7b$$u7b$closure$u7d$$u7d$17h88dfd2a565a857d9E', symObjAddr: 0x3A28, symBinAddr: 0x40698, symSize: 0x38 }
  - { offset: 0xA2CDA, size: 0x8, addend: 0x0, symName: '__ZN3zip5write60_$LT$impl$u20$zip..write..zip_writer..ZipWriter$LT$W$GT$$GT$10abort_file28_$u7b$$u7b$closure$u7d$$u7d$28_$u7b$$u7b$closure$u7d$$u7d$17hd783f2155c7e8ce5E', symObjAddr: 0x3A60, symBinAddr: 0x406D0, symSize: 0x34 }
  - { offset: 0xA2D22, size: 0x8, addend: 0x0, symName: '__ZN3zip5write60_$LT$impl$u20$zip..write..zip_writer..ZipWriter$LT$W$GT$$GT$10abort_file28_$u7b$$u7b$closure$u7d$$u7d$28_$u7b$$u7b$closure$u7d$$u7d$17he702a44145f738a0E', symObjAddr: 0x3A94, symBinAddr: 0x40704, symSize: 0x34 }
  - { offset: 0xA2D71, size: 0x8, addend: 0x0, symName: '__ZN3zip5write60_$LT$impl$u20$zip..write..zip_writer..ZipWriter$LT$W$GT$$GT$11start_entry28_$u7b$$u7b$closure$u7d$$u7d$17h0318d1b907a33dc0E', symObjAddr: 0x3AC8, symBinAddr: 0x40738, symSize: 0x18 }
  - { offset: 0xA2DBC, size: 0x8, addend: 0x0, symName: '__ZN3zip5write60_$LT$impl$u20$zip..write..zip_writer..ZipWriter$LT$W$GT$$GT$11start_entry28_$u7b$$u7b$closure$u7d$$u7d$17h40b7d4c8624d5b75E', symObjAddr: 0x3AE0, symBinAddr: 0x40750, symSize: 0x18 }
  - { offset: 0xA2E07, size: 0x8, addend: 0x0, symName: '__ZN3zip5write60_$LT$impl$u20$zip..write..zip_writer..ZipWriter$LT$W$GT$$GT$11start_entry28_$u7b$$u7b$closure$u7d$$u7d$17hb6d18039c1a237bfE', symObjAddr: 0x3AF8, symBinAddr: 0x40768, symSize: 0x18 }
  - { offset: 0xA2E52, size: 0x8, addend: 0x0, symName: '__ZN3zip5write60_$LT$impl$u20$zip..write..zip_writer..ZipWriter$LT$W$GT$$GT$11start_entry28_$u7b$$u7b$closure$u7d$$u7d$17hf97ac8cb8ae38cacE', symObjAddr: 0x3B10, symBinAddr: 0x40780, symSize: 0x18 }
  - { offset: 0xA2EA3, size: 0x8, addend: 0x0, symName: '__ZN3zip5write60_$LT$impl$u20$zip..write..zip_writer..ZipWriter$LT$W$GT$$GT$24write_central_and_footer28_$u7b$$u7b$closure$u7d$$u7d$17hb4a6c18dd8dca2f8E', symObjAddr: 0x3B28, symBinAddr: 0x40798, symSize: 0x18 }
  - { offset: 0xA2EE5, size: 0x8, addend: 0x0, symName: '__ZN3zip5write60_$LT$impl$u20$zip..write..zip_writer..ZipWriter$LT$W$GT$$GT$24write_central_and_footer28_$u7b$$u7b$closure$u7d$$u7d$17hd696b6c9eb9d5235E', symObjAddr: 0x3B40, symBinAddr: 0x407B0, symSize: 0x18 }
  - { offset: 0xA2F41, size: 0x8, addend: 0x0, symName: '__ZN3zip5write87_$LT$impl$u20$std..io..Write$u20$for$u20$zip..write..zip_writer..ZipWriter$LT$W$GT$$GT$5write28_$u7b$$u7b$closure$u7d$$u7d$17hc2e283e1a1ad439dE', symObjAddr: 0x3B58, symBinAddr: 0x407C8, symSize: 0x2C }
  - { offset: 0xA2F74, size: 0x8, addend: 0x0, symName: '__ZN3zip5write87_$LT$impl$u20$std..io..Write$u20$for$u20$zip..write..zip_writer..ZipWriter$LT$W$GT$$GT$5write28_$u7b$$u7b$closure$u7d$$u7d$17hf6bc26c4d6ba65faE', symObjAddr: 0x3B84, symBinAddr: 0x407F4, symSize: 0x2C }
  - { offset: 0xA2FBC, size: 0x8, addend: 0x0, symName: '__ZN70_$LT$zip..write..MaybeEncrypted$LT$W$GT$$u20$as$u20$std..io..Write$GT$5flush17h0229d38f6de2ffebE', symObjAddr: 0x3BB0, symBinAddr: 0x40820, symSize: 0x74 }
  - { offset: 0xA302B, size: 0x8, addend: 0x0, symName: '__ZN70_$LT$zip..write..MaybeEncrypted$LT$W$GT$$u20$as$u20$std..io..Write$GT$5flush17h38cfe5da2ed06208E', symObjAddr: 0x3C24, symBinAddr: 0x40894, symSize: 0x70 }
  - { offset: 0xA309A, size: 0x8, addend: 0x0, symName: '__ZN70_$LT$zip..write..MaybeEncrypted$LT$W$GT$$u20$as$u20$std..io..Write$GT$5write17h9fbfac606bc84c79E', symObjAddr: 0x3C94, symBinAddr: 0x40904, symSize: 0xA0 }
  - { offset: 0xA3117, size: 0x8, addend: 0x0, symName: '__ZN70_$LT$zip..write..MaybeEncrypted$LT$W$GT$$u20$as$u20$std..io..Write$GT$5write17he6309b547b005e29E', symObjAddr: 0x3D34, symBinAddr: 0x409A4, symSize: 0x9C }
  - { offset: 0xA51EC, size: 0x8, addend: 0x0, symName: __ZN3std2io5Write14write_vectored17h6832f325c31ab8a1E, symObjAddr: 0x0, symBinAddr: 0x3CC70, symSize: 0x30 }
  - { offset: 0xA5232, size: 0x8, addend: 0x0, symName: __ZN3std2io5Write14write_vectored17ha9c61a17f8fccc1bE, symObjAddr: 0x30, symBinAddr: 0x3CCA0, symSize: 0x30 }
  - { offset: 0xA5278, size: 0x8, addend: 0x0, symName: __ZN3std2io5Write17is_write_vectored17h518903dc36813447E, symObjAddr: 0x60, symBinAddr: 0x3CCD0, symSize: 0x18 }
  - { offset: 0xA52AF, size: 0x8, addend: 0x0, symName: __ZN3std2io5Write17is_write_vectored17heb981809dededb14E, symObjAddr: 0x78, symBinAddr: 0x3CCE8, symSize: 0x18 }
  - { offset: 0xA52E6, size: 0x8, addend: 0x0, symName: __ZN3std2io5Write18write_all_vectored17h7c9e736dfa691529E, symObjAddr: 0x90, symBinAddr: 0x3CD00, symSize: 0x250 }
  - { offset: 0xA5456, size: 0x8, addend: 0x0, symName: __ZN3std2io5Write18write_all_vectored17h93b7487632785279E, symObjAddr: 0x2E0, symBinAddr: 0x3CF50, symSize: 0x250 }
  - { offset: 0xA55C6, size: 0x8, addend: 0x0, symName: __ZN3std2io5Write9write_all17h0c7ece7b3eef8cfaE, symObjAddr: 0x530, symBinAddr: 0x3D1A0, symSize: 0x270 }
  - { offset: 0xA575E, size: 0x8, addend: 0x0, symName: __ZN3std2io5Write9write_all17h22011467faf3da9dE, symObjAddr: 0x7A0, symBinAddr: 0x3D410, symSize: 0x270 }
  - { offset: 0xA58F6, size: 0x8, addend: 0x0, symName: __ZN3std2io5Write9write_fmt17hb482669dabd3f415E, symObjAddr: 0xA10, symBinAddr: 0x3D680, symSize: 0x154 }
  - { offset: 0xA59A8, size: 0x8, addend: 0x0, symName: __ZN3std2io5Write9write_fmt17hb6f922fe21531bbeE, symObjAddr: 0xB64, symBinAddr: 0x3D7D4, symSize: 0x154 }
  - { offset: 0xA6C0E, size: 0x8, addend: 0x0, symName: '__ZN3zip5write25GenericZipWriter$LT$W$GT$13try_inner_mut17h12163b1992b27fdeE', symObjAddr: 0x15E4, symBinAddr: 0x3E254, symSize: 0xA8 }
  - { offset: 0xA6C72, size: 0x8, addend: 0x0, symName: '__ZN3zip5write25GenericZipWriter$LT$W$GT$13try_inner_mut17hb668799d6f64b277E', symObjAddr: 0x168C, symBinAddr: 0x3E2FC, symSize: 0xAC }
  - { offset: 0xA6D3F, size: 0x8, addend: 0x0, symName: '__ZN3zip5write25GenericZipWriter$LT$W$GT$19prepare_next_writer17h68e21a040033a7daE', symObjAddr: 0x1738, symBinAddr: 0x3E3A8, symSize: 0x4C8 }
  - { offset: 0xA6F30, size: 0x8, addend: 0x0, symName: '__ZN3zip5write25GenericZipWriter$LT$W$GT$19prepare_next_writer17hd6c27f2a7bd66867E', symObjAddr: 0x1C00, symBinAddr: 0x3E870, symSize: 0x4C8 }
  - { offset: 0xA70ED, size: 0x8, addend: 0x0, symName: '__ZN3zip5write25GenericZipWriter$LT$W$GT$7ref_mut17h0c313740d37d8f2cE', symObjAddr: 0x289C, symBinAddr: 0x3F50C, symSize: 0x10C }
  - { offset: 0xA7193, size: 0x8, addend: 0x0, symName: '__ZN3zip5write25GenericZipWriter$LT$W$GT$7ref_mut17h353ba566624a1780E', symObjAddr: 0x29A8, symBinAddr: 0x3F618, symSize: 0x10C }
  - { offset: 0xA7239, size: 0x8, addend: 0x0, symName: '__ZN3zip5write25GenericZipWriter$LT$W$GT$9is_closed17h379b9672b73adaddE', symObjAddr: 0x2AB4, symBinAddr: 0x3F724, symSize: 0x34 }
  - { offset: 0xA7265, size: 0x8, addend: 0x0, symName: '__ZN3zip5write25GenericZipWriter$LT$W$GT$9is_closed17hc62a8af0732bd414E', symObjAddr: 0x2AE8, symBinAddr: 0x3F758, symSize: 0x34 }
  - { offset: 0xA7291, size: 0x8, addend: 0x0, symName: '__ZN3zip5write25GenericZipWriter$LT$W$GT$9switch_to17hc2aacc6648903e03E', symObjAddr: 0x2B1C, symBinAddr: 0x3F78C, symSize: 0x708 }
  - { offset: 0xA741D, size: 0x8, addend: 0x0, symName: '__ZN3zip5write25GenericZipWriter$LT$W$GT$9switch_to17he70bc9c31fdf092eE', symObjAddr: 0x3224, symBinAddr: 0x3FE94, symSize: 0x714 }
  - { offset: 0xA77E3, size: 0x8, addend: 0x0, symName: __ZN11_fast_ebook8metadata14parse_metadata17h09a95f9095067ba0E, symObjAddr: 0x0, symBinAddr: 0x40A40, symSize: 0xA58 }
  - { offset: 0xA813C, size: 0x8, addend: 0x0, symName: __ZN11_fast_ebook8metadata14parse_metadata17h09a95f9095067ba0E, symObjAddr: 0x0, symBinAddr: 0x40A40, symSize: 0xA58 }
  - { offset: 0xA8338, size: 0x8, addend: 0x0, symName: __ZN11_fast_ebook8metadata16namespace_prefix17h4a88880f64c37d5dE, symObjAddr: 0xA58, symBinAddr: 0x41498, symSize: 0xBC }
  - { offset: 0xA8BA0, size: 0x8, addend: 0x0, symName: '__ZN4pyo35types10boolobject65_$LT$impl$u20$pyo3..conversion..IntoPyObject$u20$for$u20$bool$GT$13into_pyobject17hc910128351a05a98E', symObjAddr: 0x0, symBinAddr: 0x41554, symSize: 0x28 }
  - { offset: 0xA9D8E, size: 0x8, addend: 0x0, symName: '__ZN4pyo35types10boolobject65_$LT$impl$u20$pyo3..conversion..IntoPyObject$u20$for$u20$bool$GT$13into_pyobject17hc910128351a05a98E', symObjAddr: 0x0, symBinAddr: 0x41554, symSize: 0x28 }
  - { offset: 0xAA3C1, size: 0x8, addend: 0x0, symName: __ZN4pyo35types10boolobject6PyBool3new17h10b69a80d22e6a57E, symObjAddr: 0x28, symBinAddr: 0x4157C, symSize: 0x50 }
  - { offset: 0xAA41A, size: 0x8, addend: 0x0, symName: __ZN4pyo35types4dict12DictIterImpl14next_unchecked17h84eeac5ec0b61afeE, symObjAddr: 0x0, symBinAddr: 0x415CC, symSize: 0x1D4 }
  - { offset: 0xAB69D, size: 0x8, addend: 0x0, symName: '__ZN95_$LT$pyo3..types..dict..BoundDictIterator$u20$as$u20$core..iter..traits..iterator..Iterator$GT$4next17h6868d7715190fed7E', symObjAddr: 0x1D4, symBinAddr: 0x417A0, symSize: 0x2C }
  - { offset: 0xABD17, size: 0x8, addend: 0x0, symName: __ZN4pyo35types4dict12DictIterImpl14next_unchecked17h84eeac5ec0b61afeE, symObjAddr: 0x0, symBinAddr: 0x415CC, symSize: 0x1D4 }
  - { offset: 0xABE14, size: 0x8, addend: 0x0, symName: '__ZN3std2io8buffered9bufreader18BufReader$LT$R$GT$10into_inner17h17cd6d6c4b8c0dc2E', symObjAddr: 0x0, symBinAddr: 0x417CC, symSize: 0x40 }
  - { offset: 0xAC378, size: 0x8, addend: 0x0, symName: '__ZN85_$LT$std..io..buffered..bufreader..BufReader$LT$R$GT$$u20$as$u20$std..io..BufRead$GT$7consume17h7fd7870d5ea4e389E', symObjAddr: 0x618, symBinAddr: 0x41DE4, symSize: 0x54 }
  - { offset: 0xAC405, size: 0x8, addend: 0x0, symName: '__ZN85_$LT$std..io..buffered..bufreader..BufReader$LT$R$GT$$u20$as$u20$std..io..BufRead$GT$7consume17h9158f8d81bc024b4E', symObjAddr: 0x66C, symBinAddr: 0x41E38, symSize: 0x54 }
  - { offset: 0xAC492, size: 0x8, addend: 0x0, symName: '__ZN85_$LT$std..io..buffered..bufreader..BufReader$LT$R$GT$$u20$as$u20$std..io..BufRead$GT$8fill_buf17h207c0834b3a5fd41E', symObjAddr: 0x6C0, symBinAddr: 0x41E8C, symSize: 0x2C }
  - { offset: 0xAC4C9, size: 0x8, addend: 0x0, symName: '__ZN85_$LT$std..io..buffered..bufreader..BufReader$LT$R$GT$$u20$as$u20$std..io..BufRead$GT$8fill_buf17h68fad077b2c68f4cE', symObjAddr: 0x6EC, symBinAddr: 0x41EB8, symSize: 0x2C }
  - { offset: 0xAC506, size: 0x8, addend: 0x0, symName: '__ZN82_$LT$std..io..buffered..bufreader..BufReader$LT$R$GT$$u20$as$u20$std..io..Read$GT$4read17h44e06df395aecc13E', symObjAddr: 0x228, symBinAddr: 0x419F4, symSize: 0x1F8 }
  - { offset: 0xAC815, size: 0x8, addend: 0x0, symName: '__ZN82_$LT$std..io..buffered..bufreader..BufReader$LT$R$GT$$u20$as$u20$std..io..Read$GT$4read17he28a591cc02d0d3dE', symObjAddr: 0x420, symBinAddr: 0x41BEC, symSize: 0x1F8 }
  - { offset: 0xAD4B7, size: 0x8, addend: 0x0, symName: '__ZN3std2io8buffered9bufreader18BufReader$LT$R$GT$10into_inner17h17cd6d6c4b8c0dc2E', symObjAddr: 0x0, symBinAddr: 0x417CC, symSize: 0x40 }
  - { offset: 0xAD4F8, size: 0x8, addend: 0x0, symName: '__ZN3std2io8buffered9bufreader18BufReader$LT$R$GT$10into_inner17h4c9c09411f3c2d35E', symObjAddr: 0x40, symBinAddr: 0x4180C, symSize: 0x40 }
  - { offset: 0xAD545, size: 0x8, addend: 0x0, symName: '__ZN3std2io8buffered9bufreader18BufReader$LT$R$GT$13with_capacity17h0ea588e4119d5526E', symObjAddr: 0x80, symBinAddr: 0x4184C, symSize: 0xB4 }
  - { offset: 0xAD5CA, size: 0x8, addend: 0x0, symName: '__ZN3std2io8buffered9bufreader18BufReader$LT$R$GT$13with_capacity17h7b22cc715eca608fE', symObjAddr: 0x134, symBinAddr: 0x41900, symSize: 0xB4 }
  - { offset: 0xAD62F, size: 0x8, addend: 0x0, symName: '__ZN3std2io8buffered9bufreader18BufReader$LT$R$GT$3new17h0d7e6884a7a85cacE', symObjAddr: 0x1E8, symBinAddr: 0x419B4, symSize: 0x20 }
  - { offset: 0xAD65B, size: 0x8, addend: 0x0, symName: '__ZN3std2io8buffered9bufreader18BufReader$LT$R$GT$3new17hbc07e64528d585feE', symObjAddr: 0x208, symBinAddr: 0x419D4, symSize: 0x20 }
  - { offset: 0xAD8E7, size: 0x8, addend: 0x0, symName: '__ZN56_$LT$usize$u20$as$u20$core..iter..traits..accum..Sum$GT$3sum17h91fce3171abafa3bE', symObjAddr: 0x0, symBinAddr: 0x41EE4, symSize: 0x18 }
  - { offset: 0xAE000, size: 0x8, addend: 0x0, symName: '__ZN56_$LT$usize$u20$as$u20$core..iter..traits..accum..Sum$GT$3sum17h91fce3171abafa3bE', symObjAddr: 0x0, symBinAddr: 0x41EE4, symSize: 0x18 }
  - { offset: 0xAE03B, size: 0x8, addend: 0x0, symName: '__ZN56_$LT$usize$u20$as$u20$core..iter..traits..accum..Sum$GT$3sum28_$u7b$$u7b$closure$u7d$$u7d$17h377a4b1e12437beaE', symObjAddr: 0x18, symBinAddr: 0x41EFC, symSize: 0x48 }
  - { offset: 0xAF272, size: 0x8, addend: 0x0, symName: __ZN11_fast_ebook6reader22read_epub_with_options17h4b45a0d66d85e788E, symObjAddr: 0x0, symBinAddr: 0x41F44, symSize: 0x1C0 }
  - { offset: 0xAF2E3, size: 0x8, addend: 0x0, symName: __ZN11_fast_ebook6reader22read_epub_with_options17h4b45a0d66d85e788E, symObjAddr: 0x0, symBinAddr: 0x41F44, symSize: 0x1C0 }
  - { offset: 0xAF3BF, size: 0x8, addend: 0x0, symName: __ZN11_fast_ebook6reader33read_epub_from_bytes_with_options17h113b26027152b5c9E, symObjAddr: 0x1C0, symBinAddr: 0x42104, symSize: 0x118 }
  - { offset: 0xB19FB, size: 0x8, addend: 0x0, symName: '__ZN108_$LT$core..option..Option$LT$T$GT$$u20$as$u20$pyo3..impl_..extract_argument..PyFunctionArgument$LT$_$GT$$GT$7extract17h7d668f7b7b5bad69E', symObjAddr: 0x0, symBinAddr: 0x4221C, symSize: 0xDC }
  - { offset: 0xB2210, size: 0x8, addend: 0x0, symName: '__ZN145_$LT$core..option..Option$LT$T$GT$$u20$as$u20$core..ops..try_trait..FromResidual$LT$core..option..Option$LT$core..convert..Infallible$GT$$GT$$GT$13from_residual17hb232691eb723bdbbE', symObjAddr: 0xDC, symBinAddr: 0x422F8, symSize: 0x18 }
  - { offset: 0xB2243, size: 0x8, addend: 0x0, symName: '__ZN145_$LT$core..option..Option$LT$T$GT$$u20$as$u20$core..ops..try_trait..FromResidual$LT$core..option..Option$LT$core..convert..Infallible$GT$$GT$$GT$13from_residual17hc7d8bb4160728e77E', symObjAddr: 0xF4, symBinAddr: 0x42310, symSize: 0x18 }
  - { offset: 0xB3739, size: 0x8, addend: 0x0, symName: '__ZN4core6option15Option$LT$T$GT$13get_or_insert28_$u7b$$u7b$closure$u7d$$u7d$17h28b558737bc1b2d6E', symObjAddr: 0x930, symBinAddr: 0x42B4C, symSize: 0x10 }
  - { offset: 0xB6A79, size: 0x8, addend: 0x0, symName: __ZN4core6option6Option4Some17h0e3d6aedfdedeb5fE, symObjAddr: 0x3F58, symBinAddr: 0x46174, symSize: 0x24 }
  - { offset: 0xB6AAC, size: 0x8, addend: 0x0, symName: __ZN4core6option6Option4Some17h9f745ed546c0f18eE, symObjAddr: 0x3F7C, symBinAddr: 0x46198, symSize: 0x30 }
  - { offset: 0xB6AE0, size: 0x8, addend: 0x0, symName: __ZN4core6option6Option4Some17hed0421cbe6821e30E, symObjAddr: 0x3FAC, symBinAddr: 0x461C8, symSize: 0x28 }
  - { offset: 0xB6B1A, size: 0x8, addend: 0x0, symName: '__ZN68_$LT$core..option..Option$LT$T$GT$$u20$as$u20$core..clone..Clone$GT$5clone17h830f63e947a7f423E', symObjAddr: 0x4128, symBinAddr: 0x46344, symSize: 0x64 }
  - { offset: 0xB6B75, size: 0x8, addend: 0x0, symName: '__ZN72_$LT$core..option..Option$LT$T$GT$$u20$as$u20$core..default..Default$GT$7default17h722497163e52c1bbE', symObjAddr: 0x418C, symBinAddr: 0x463A8, symSize: 0x10 }
  - { offset: 0xB6C82, size: 0x8, addend: 0x0, symName: '__ZN4core3ptr9const_ptr33_$LT$impl$u20$$BP$const$u20$T$GT$7is_null17h48a47c426ee699e0E', symObjAddr: 0x10C, symBinAddr: 0x42328, symSize: 0x18 }
  - { offset: 0xB6F04, size: 0x8, addend: 0x0, symName: '__ZN4core5slice29_$LT$impl$u20$$u5b$T$u5d$$GT$15copy_from_slice17h7c2db8d631831e7bE', symObjAddr: 0x124, symBinAddr: 0x42340, symSize: 0xAC }
  - { offset: 0xB6FCF, size: 0x8, addend: 0x0, symName: '__ZN4core5slice29_$LT$impl$u20$$u5b$T$u5d$$GT$18split_at_unchecked17ha61c2ba3f060f874E', symObjAddr: 0x1D0, symBinAddr: 0x423EC, symSize: 0xEC }
  - { offset: 0xB715B, size: 0x8, addend: 0x0, symName: '__ZN4core5slice29_$LT$impl$u20$$u5b$T$u5d$$GT$8split_at17hcf6d6a8cdb96190aE', symObjAddr: 0x2BC, symBinAddr: 0x424D8, symSize: 0xD8 }
  - { offset: 0xB996E, size: 0x8, addend: 0x0, symName: '__ZN108_$LT$core..option..Option$LT$T$GT$$u20$as$u20$pyo3..impl_..extract_argument..PyFunctionArgument$LT$_$GT$$GT$7extract17h7d668f7b7b5bad69E', symObjAddr: 0x0, symBinAddr: 0x4221C, symSize: 0xDC }
  - { offset: 0xB9A16, size: 0x8, addend: 0x0, symName: '__ZN86_$LT$core..option..Option$LT$T$GT$$u20$as$u20$pyo3..impl_..wrap..SomeWrap$LT$T$GT$$GT$4wrap17h10ec18bf8f32135fE', symObjAddr: 0x419C, symBinAddr: 0x463B8, symSize: 0x18 }
  - { offset: 0xB9A4B, size: 0x8, addend: 0x0, symName: '__ZN86_$LT$core..option..Option$LT$T$GT$$u20$as$u20$pyo3..impl_..wrap..SomeWrap$LT$T$GT$$GT$4wrap17ha876a330f995ee34E', symObjAddr: 0x41B4, symBinAddr: 0x463D0, symSize: 0x14 }
  - { offset: 0xB9A80, size: 0x8, addend: 0x0, symName: '__ZN86_$LT$core..option..Option$LT$T$GT$$u20$as$u20$pyo3..impl_..wrap..SomeWrap$LT$T$GT$$GT$4wrap17hc49cb7cb854d4bb9E', symObjAddr: 0x41C8, symBinAddr: 0x463E4, symSize: 0x30 }
  - { offset: 0xB9E7A, size: 0x8, addend: 0x0, symName: '__ZN4pyo311conversions3std6option90_$LT$impl$u20$pyo3..conversion..IntoPyObject$u20$for$u20$core..option..Option$LT$T$GT$$GT$13into_pyobject17h5102ee76d9a2dde7E', symObjAddr: 0x40D8, symBinAddr: 0x462F4, symSize: 0x2C }
  - { offset: 0xB9EC8, size: 0x8, addend: 0x0, symName: '__ZN4pyo311conversions3std6option90_$LT$impl$u20$pyo3..conversion..IntoPyObject$u20$for$u20$core..option..Option$LT$T$GT$$GT$13into_pyobject17hd01e5b63afa51dd5E', symObjAddr: 0x4104, symBinAddr: 0x46320, symSize: 0x24 }
  - { offset: 0xBA07C, size: 0x8, addend: 0x0, symName: __ZN4pyo310conversion15IntoPyObjectExt17into_bound_py_any17h92bef6b347cc434bE, symObjAddr: 0x3FD4, symBinAddr: 0x461F0, symSize: 0xBC }
  - { offset: 0xBA10B, size: 0x8, addend: 0x0, symName: __ZN4pyo310conversion15IntoPyObjectExt17into_bound_py_any17hefc4d980c12961d6E, symObjAddr: 0x4090, symBinAddr: 0x462AC, symSize: 0x48 }
  - { offset: 0xBB183, size: 0x8, addend: 0x0, symName: '__ZN4core6option15Option$LT$T$GT$10ok_or_else17h4dc236795ea254fdE', symObjAddr: 0x394, symBinAddr: 0x425B0, symSize: 0x6C }
  - { offset: 0xBB1EE, size: 0x8, addend: 0x0, symName: '__ZN4core6option15Option$LT$T$GT$10ok_or_else17h618f463be5f73bf2E', symObjAddr: 0x400, symBinAddr: 0x4261C, symSize: 0x5C }
  - { offset: 0xBB259, size: 0x8, addend: 0x0, symName: '__ZN4core6option15Option$LT$T$GT$10ok_or_else17hb50f9d52ffe219d4E', symObjAddr: 0x45C, symBinAddr: 0x42678, symSize: 0x5C }
  - { offset: 0xBB2C4, size: 0x8, addend: 0x0, symName: '__ZN4core6option15Option$LT$T$GT$10ok_or_else17hc9d6f4074fb1af3cE', symObjAddr: 0x4B8, symBinAddr: 0x426D4, symSize: 0x6C }
  - { offset: 0xBB33C, size: 0x8, addend: 0x0, symName: '__ZN4core6option15Option$LT$T$GT$11is_some_and17h31bb2ffc70d16cb0E', symObjAddr: 0x524, symBinAddr: 0x42740, symSize: 0x60 }
  - { offset: 0xBB39E, size: 0x8, addend: 0x0, symName: '__ZN4core6option15Option$LT$T$GT$11is_some_and17h4e6b1fb4d258cf48E', symObjAddr: 0x584, symBinAddr: 0x427A0, symSize: 0x60 }
  - { offset: 0xBB400, size: 0x8, addend: 0x0, symName: '__ZN4core6option15Option$LT$T$GT$11is_some_and17h4fb1598f550d6113E', symObjAddr: 0x5E4, symBinAddr: 0x42800, symSize: 0x58 }
  - { offset: 0xBB46F, size: 0x8, addend: 0x0, symName: '__ZN4core6option15Option$LT$T$GT$11is_some_and17h5ac3517d1790bf73E', symObjAddr: 0x63C, symBinAddr: 0x42858, symSize: 0x54 }
  - { offset: 0xBB4D1, size: 0x8, addend: 0x0, symName: '__ZN4core6option15Option$LT$T$GT$11is_some_and17h881c9a867d114d88E', symObjAddr: 0x690, symBinAddr: 0x428AC, symSize: 0x58 }
  - { offset: 0xBB533, size: 0x8, addend: 0x0, symName: '__ZN4core6option15Option$LT$T$GT$11is_some_and17h890ac4ae65fc9337E', symObjAddr: 0x6E8, symBinAddr: 0x42904, symSize: 0x54 }
  - { offset: 0xBB5A2, size: 0x8, addend: 0x0, symName: '__ZN4core6option15Option$LT$T$GT$11map_or_else17h067381b50f7a553bE', symObjAddr: 0x73C, symBinAddr: 0x42958, symSize: 0x100 }
  - { offset: 0xBB6E7, size: 0x8, addend: 0x0, symName: '__ZN4core6option15Option$LT$T$GT$11map_or_else17ha067f9c0e5625d3bE', symObjAddr: 0x83C, symBinAddr: 0x42A58, symSize: 0xCC }
  - { offset: 0xBB784, size: 0x8, addend: 0x0, symName: '__ZN4core6option15Option$LT$T$GT$13get_or_insert17h038bb9460cb39f56E', symObjAddr: 0x908, symBinAddr: 0x42B24, symSize: 0x28 }
  - { offset: 0xBBAF8, size: 0x8, addend: 0x0, symName: '__ZN4core6option15Option$LT$T$GT$17unwrap_or_default17h3fcd8166bdcd0359E', symObjAddr: 0x940, symBinAddr: 0x42B5C, symSize: 0x70 }
  - { offset: 0xBBB43, size: 0x8, addend: 0x0, symName: '__ZN4core6option15Option$LT$T$GT$17unwrap_or_default17h8bb5acf07a70d7edE', symObjAddr: 0x9B0, symBinAddr: 0x42BCC, symSize: 0x70 }
  - { offset: 0xBBB8E, size: 0x8, addend: 0x0, symName: '__ZN4core6option15Option$LT$T$GT$17unwrap_or_default17hb797fccd507fa5d0E', symObjAddr: 0xA20, symBinAddr: 0x42C3C, symSize: 0x70 }
  - { offset: 0xBBBF7, size: 0x8, addend: 0x0, symName: '__ZN4core6option15Option$LT$T$GT$17unwrap_or_default17he01554e62a6003f8E', symObjAddr: 0xA90, symBinAddr: 0x42CAC, symSize: 0x70 }
  - { offset: 0xBBC42, size: 0x8, addend: 0x0, symName: '__ZN4core6option15Option$LT$T$GT$17unwrap_or_default17hec7a86d55c234341E', symObjAddr: 0xB00, symBinAddr: 0x42D1C, symSize: 0x70 }
  - { offset: 0xBBCAB, size: 0x8, addend: 0x0, symName: '__ZN4core6option15Option$LT$T$GT$17unwrap_or_default17hf5c76f59d9b1e04aE', symObjAddr: 0xB70, symBinAddr: 0x42D8C, symSize: 0x74 }
  - { offset: 0xBBD14, size: 0x8, addend: 0x0, symName: '__ZN4core6option15Option$LT$T$GT$17unwrap_or_default17hf5d61dc139dd6ab3E', symObjAddr: 0xBE4, symBinAddr: 0x42E00, symSize: 0x70 }
  - { offset: 0xBBE07, size: 0x8, addend: 0x0, symName: '__ZN4core6option15Option$LT$T$GT$18get_or_insert_with17h0fa9b1425bd69a42E', symObjAddr: 0xC54, symBinAddr: 0x42E70, symSize: 0x110 }
  - { offset: 0xBBEF9, size: 0x8, addend: 0x0, symName: '__ZN4core6option15Option$LT$T$GT$18get_or_insert_with17h2fa715f06e9bf50cE', symObjAddr: 0xD64, symBinAddr: 0x42F80, symSize: 0x114 }
  - { offset: 0xBC451, size: 0x8, addend: 0x0, symName: '__ZN4core6option15Option$LT$T$GT$18get_or_insert_with17hc469f54669634907E', symObjAddr: 0xE78, symBinAddr: 0x43094, symSize: 0x144 }
  - { offset: 0xBC4ED, size: 0x8, addend: 0x0, symName: '__ZN4core6option15Option$LT$T$GT$2or17h3f8773f1ccb6505cE', symObjAddr: 0xFBC, symBinAddr: 0x431D8, symSize: 0xE4 }
  - { offset: 0xBC555, size: 0x8, addend: 0x0, symName: '__ZN4core6option15Option$LT$T$GT$3map17h0924686ef28eba46E', symObjAddr: 0x10A0, symBinAddr: 0x432BC, symSize: 0x58 }
  - { offset: 0xBC640, size: 0x8, addend: 0x0, symName: '__ZN4core6option15Option$LT$T$GT$3map17h0e0f9264d0d9f729E', symObjAddr: 0x10F8, symBinAddr: 0x43314, symSize: 0x50 }
  - { offset: 0xBC6E3, size: 0x8, addend: 0x0, symName: '__ZN4core6option15Option$LT$T$GT$3map17h0f07ac1d3153c89fE', symObjAddr: 0x1148, symBinAddr: 0x43364, symSize: 0x5C }
  - { offset: 0xBD052, size: 0x8, addend: 0x0, symName: '__ZN4core6option15Option$LT$T$GT$3map17h125372fd070985a9E', symObjAddr: 0x11A4, symBinAddr: 0x433C0, symSize: 0x58 }
  - { offset: 0xBD0BD, size: 0x8, addend: 0x0, symName: '__ZN4core6option15Option$LT$T$GT$3map17h145e51129066535bE', symObjAddr: 0x11FC, symBinAddr: 0x43418, symSize: 0x50 }
  - { offset: 0xBD128, size: 0x8, addend: 0x0, symName: '__ZN4core6option15Option$LT$T$GT$3map17h17f05972eba260feE', symObjAddr: 0x124C, symBinAddr: 0x43468, symSize: 0x60 }
  - { offset: 0xBD1AD, size: 0x8, addend: 0x0, symName: '__ZN4core6option15Option$LT$T$GT$3map17h18c07d5304800ae0E', symObjAddr: 0x12AC, symBinAddr: 0x434C8, symSize: 0x90 }
  - { offset: 0xBD219, size: 0x8, addend: 0x0, symName: '__ZN4core6option15Option$LT$T$GT$3map17h2febaad3a60cea48E', symObjAddr: 0x133C, symBinAddr: 0x43558, symSize: 0x78 }
  - { offset: 0xBD291, size: 0x8, addend: 0x0, symName: '__ZN4core6option15Option$LT$T$GT$3map17h329312fa9da02d73E', symObjAddr: 0x13B4, symBinAddr: 0x435D0, symSize: 0x64 }
  - { offset: 0xBD2FC, size: 0x8, addend: 0x0, symName: '__ZN4core6option15Option$LT$T$GT$3map17h32cc13c429a423afE', symObjAddr: 0x1418, symBinAddr: 0x43634, symSize: 0x8C }
  - { offset: 0xBD368, size: 0x8, addend: 0x0, symName: '__ZN4core6option15Option$LT$T$GT$3map17h368a94b89c235446E', symObjAddr: 0x14A4, symBinAddr: 0x436C0, symSize: 0x64 }
  - { offset: 0xBD3E0, size: 0x8, addend: 0x0, symName: '__ZN4core6option15Option$LT$T$GT$3map17h3b0a63ec2e99c595E', symObjAddr: 0x1508, symBinAddr: 0x43724, symSize: 0x6C }
  - { offset: 0xBD44B, size: 0x8, addend: 0x0, symName: '__ZN4core6option15Option$LT$T$GT$3map17h43095fd29e8ba701E', symObjAddr: 0x1574, symBinAddr: 0x43790, symSize: 0x58 }
  - { offset: 0xBD4B6, size: 0x8, addend: 0x0, symName: '__ZN4core6option15Option$LT$T$GT$3map17h50145e44cd4b235fE', symObjAddr: 0x15CC, symBinAddr: 0x437E8, symSize: 0x90 }
  - { offset: 0xBD522, size: 0x8, addend: 0x0, symName: '__ZN4core6option15Option$LT$T$GT$3map17h5895321ed24c43a2E', symObjAddr: 0x165C, symBinAddr: 0x43878, symSize: 0x8C }
  - { offset: 0xBD58E, size: 0x8, addend: 0x0, symName: '__ZN4core6option15Option$LT$T$GT$3map17h6958bc6d18268c85E', symObjAddr: 0x16E8, symBinAddr: 0x43904, symSize: 0x78 }
  - { offset: 0xBD5F9, size: 0x8, addend: 0x0, symName: '__ZN4core6option15Option$LT$T$GT$3map17h6c175be410313fa1E', symObjAddr: 0x1760, symBinAddr: 0x4397C, symSize: 0x50 }
  - { offset: 0xBD67C, size: 0x8, addend: 0x0, symName: '__ZN4core6option15Option$LT$T$GT$3map17h784c118c7dcaaef3E', symObjAddr: 0x17B0, symBinAddr: 0x439CC, symSize: 0x8C }
  - { offset: 0xBD6F5, size: 0x8, addend: 0x0, symName: '__ZN4core6option15Option$LT$T$GT$3map17h81a9e95d0696de17E', symObjAddr: 0x183C, symBinAddr: 0x43A58, symSize: 0x50 }
  - { offset: 0xBD76D, size: 0x8, addend: 0x0, symName: '__ZN4core6option15Option$LT$T$GT$3map17h8678310a6889aeafE', symObjAddr: 0x188C, symBinAddr: 0x43AA8, symSize: 0x5C }
  - { offset: 0xBD7F0, size: 0x8, addend: 0x0, symName: '__ZN4core6option15Option$LT$T$GT$3map17h8a200d28eb92d666E', symObjAddr: 0x18E8, symBinAddr: 0x43B04, symSize: 0x5C }
  - { offset: 0xBD85B, size: 0x8, addend: 0x0, symName: '__ZN4core6option15Option$LT$T$GT$3map17h8d61dbdee6465da9E', symObjAddr: 0x1944, symBinAddr: 0x43B60, symSize: 0x78 }
  - { offset: 0xBD8C6, size: 0x8, addend: 0x0, symName: '__ZN4core6option15Option$LT$T$GT$3map17h9895edac681cfcfcE', symObjAddr: 0x19BC, symBinAddr: 0x43BD8, symSize: 0x8C }
  - { offset: 0xBD932, size: 0x8, addend: 0x0, symName: '__ZN4core6option15Option$LT$T$GT$3map17h9bbfab4fbbf3ddaeE', symObjAddr: 0x1A48, symBinAddr: 0x43C64, symSize: 0x5C }
  - { offset: 0xBD9AA, size: 0x8, addend: 0x0, symName: '__ZN4core6option15Option$LT$T$GT$3map17ha1f67fc82e5c5802E', symObjAddr: 0x1AA4, symBinAddr: 0x43CC0, symSize: 0x50 }
  - { offset: 0xBDA15, size: 0x8, addend: 0x0, symName: '__ZN4core6option15Option$LT$T$GT$3map17ha872d4cf83f443afE', symObjAddr: 0x1AF4, symBinAddr: 0x43D10, symSize: 0x8C }
  - { offset: 0xBDA99, size: 0x8, addend: 0x0, symName: '__ZN4core6option15Option$LT$T$GT$3map17hb23fc7e7175aad1aE', symObjAddr: 0x1B80, symBinAddr: 0x43D9C, symSize: 0x58 }
  - { offset: 0xBDBEC, size: 0x8, addend: 0x0, symName: '__ZN4core6option15Option$LT$T$GT$3map17hb5bfb288949e521bE', symObjAddr: 0x1BD8, symBinAddr: 0x43DF4, symSize: 0x84 }
  - { offset: 0xBDC75, size: 0x8, addend: 0x0, symName: '__ZN4core6option15Option$LT$T$GT$3map17hc473b94440e450c8E', symObjAddr: 0x1C5C, symBinAddr: 0x43E78, symSize: 0x8C }
  - { offset: 0xBDCE0, size: 0x8, addend: 0x0, symName: '__ZN4core6option15Option$LT$T$GT$3map17hc4a4be58d4af7720E', symObjAddr: 0x1CE8, symBinAddr: 0x43F04, symSize: 0x5C }
  - { offset: 0xBDD4B, size: 0x8, addend: 0x0, symName: '__ZN4core6option15Option$LT$T$GT$3map17hd854f2342c3659faE', symObjAddr: 0x1D44, symBinAddr: 0x43F60, symSize: 0x60 }
  - { offset: 0xBDDD0, size: 0x8, addend: 0x0, symName: '__ZN4core6option15Option$LT$T$GT$3map17he13bb08235b72268E', symObjAddr: 0x1DA4, symBinAddr: 0x43FC0, symSize: 0x58 }
  - { offset: 0xBDE48, size: 0x8, addend: 0x0, symName: '__ZN4core6option15Option$LT$T$GT$3map17he4732c0f3d543323E', symObjAddr: 0x1DFC, symBinAddr: 0x44018, symSize: 0x6C }
  - { offset: 0xBDF03, size: 0x8, addend: 0x0, symName: '__ZN4core6option15Option$LT$T$GT$3map17heb93cf39b419a3a4E', symObjAddr: 0x1E68, symBinAddr: 0x44084, symSize: 0x58 }
  - { offset: 0xBDF6E, size: 0x8, addend: 0x0, symName: '__ZN4core6option15Option$LT$T$GT$3map17hec705f1c31b2d333E', symObjAddr: 0x1EC0, symBinAddr: 0x440DC, symSize: 0x5C }
  - { offset: 0xBDFD9, size: 0x8, addend: 0x0, symName: '__ZN4core6option15Option$LT$T$GT$3map17hee69f20e558e4030E', symObjAddr: 0x1F1C, symBinAddr: 0x44138, symSize: 0x58 }
  - { offset: 0xBE05C, size: 0x8, addend: 0x0, symName: '__ZN4core6option15Option$LT$T$GT$3map17hf8ac418e6d8a943cE', symObjAddr: 0x1F74, symBinAddr: 0x44190, symSize: 0x8C }
  - { offset: 0xBE684, size: 0x8, addend: 0x0, symName: '__ZN4core6option15Option$LT$T$GT$4take17h0f11f0f3fd9a4739E', symObjAddr: 0x2000, symBinAddr: 0x4421C, symSize: 0x5C }
  - { offset: 0xBE709, size: 0x8, addend: 0x0, symName: '__ZN4core6option15Option$LT$T$GT$4take17h1133d636ee28333bE', symObjAddr: 0x205C, symBinAddr: 0x44278, symSize: 0x5C }
  - { offset: 0xBE760, size: 0x8, addend: 0x0, symName: '__ZN4core6option15Option$LT$T$GT$4take17h1340396fe9894caaE', symObjAddr: 0x20B8, symBinAddr: 0x442D4, symSize: 0x38 }
  - { offset: 0xBE7B7, size: 0x8, addend: 0x0, symName: '__ZN4core6option15Option$LT$T$GT$4take17h17b1baf4f868f0beE', symObjAddr: 0x20F0, symBinAddr: 0x4430C, symSize: 0x5C }
  - { offset: 0xBE80E, size: 0x8, addend: 0x0, symName: '__ZN4core6option15Option$LT$T$GT$4take17h261b1047565856b9E', symObjAddr: 0x214C, symBinAddr: 0x44368, symSize: 0x5C }
  - { offset: 0xBE865, size: 0x8, addend: 0x0, symName: '__ZN4core6option15Option$LT$T$GT$4take17h4b319ba6b576161bE', symObjAddr: 0x21A8, symBinAddr: 0x443C4, symSize: 0x5C }
  - { offset: 0xBE8BC, size: 0x8, addend: 0x0, symName: '__ZN4core6option15Option$LT$T$GT$4take17h59ab214846bc4601E', symObjAddr: 0x2204, symBinAddr: 0x44420, symSize: 0x3C }
  - { offset: 0xBE913, size: 0x8, addend: 0x0, symName: '__ZN4core6option15Option$LT$T$GT$4take17h5a0e072cada605deE', symObjAddr: 0x2240, symBinAddr: 0x4445C, symSize: 0x5C }
  - { offset: 0xBE96A, size: 0x8, addend: 0x0, symName: '__ZN4core6option15Option$LT$T$GT$4take17h6271fa393d3a5e48E', symObjAddr: 0x229C, symBinAddr: 0x444B8, symSize: 0x5C }
  - { offset: 0xBE9CF, size: 0x8, addend: 0x0, symName: '__ZN4core6option15Option$LT$T$GT$4take17h757286f1a2d2169aE', symObjAddr: 0x22F8, symBinAddr: 0x44514, symSize: 0x74 }
  - { offset: 0xBEA26, size: 0x8, addend: 0x0, symName: '__ZN4core6option15Option$LT$T$GT$4take17h95ce766b3bc99ad8E', symObjAddr: 0x236C, symBinAddr: 0x44588, symSize: 0x74 }
  - { offset: 0xBEA7D, size: 0x8, addend: 0x0, symName: '__ZN4core6option15Option$LT$T$GT$4take17ha0b5f54fd67a7287E', symObjAddr: 0x23E0, symBinAddr: 0x445FC, symSize: 0x5C }
  - { offset: 0xBEAD4, size: 0x8, addend: 0x0, symName: '__ZN4core6option15Option$LT$T$GT$4take17ha176c29f5ad7d258E', symObjAddr: 0x243C, symBinAddr: 0x44658, symSize: 0x5C }
  - { offset: 0xBEB2B, size: 0x8, addend: 0x0, symName: '__ZN4core6option15Option$LT$T$GT$4take17hb14e8ec7a311f8cdE', symObjAddr: 0x2498, symBinAddr: 0x446B4, symSize: 0x70 }
  - { offset: 0xBEB82, size: 0x8, addend: 0x0, symName: '__ZN4core6option15Option$LT$T$GT$4take17hce205a83e9768be2E', symObjAddr: 0x2508, symBinAddr: 0x44724, symSize: 0x70 }
  - { offset: 0xBEBD9, size: 0x8, addend: 0x0, symName: '__ZN4core6option15Option$LT$T$GT$4take17hdb08ee98d0794738E', symObjAddr: 0x2578, symBinAddr: 0x44794, symSize: 0x5C }
  - { offset: 0xBEC30, size: 0x8, addend: 0x0, symName: '__ZN4core6option15Option$LT$T$GT$4take17hee06e45a54138230E', symObjAddr: 0x25D4, symBinAddr: 0x447F0, symSize: 0x5C }
  - { offset: 0xBEC87, size: 0x8, addend: 0x0, symName: '__ZN4core6option15Option$LT$T$GT$4take17hf659f977f9af21c9E', symObjAddr: 0x2630, symBinAddr: 0x4484C, symSize: 0x3C }
  - { offset: 0xBED05, size: 0x8, addend: 0x0, symName: '__ZN4core6option15Option$LT$T$GT$4take17hfcbf45925c50e985E', symObjAddr: 0x266C, symBinAddr: 0x44888, symSize: 0x40 }
  - { offset: 0xBED5C, size: 0x8, addend: 0x0, symName: '__ZN4core6option15Option$LT$T$GT$4take17hfd46a85eea1ab362E', symObjAddr: 0x26AC, symBinAddr: 0x448C8, symSize: 0x5C }
  - { offset: 0xBEDC4, size: 0x8, addend: 0x0, symName: '__ZN4core6option15Option$LT$T$GT$5ok_or17h2186a1710e8d1cfcE', symObjAddr: 0x2708, symBinAddr: 0x44924, symSize: 0xB8 }
  - { offset: 0xBEE28, size: 0x8, addend: 0x0, symName: '__ZN4core6option15Option$LT$T$GT$5ok_or17h5c16e3bca3e65a80E', symObjAddr: 0x27C0, symBinAddr: 0x449DC, symSize: 0xA4 }
  - { offset: 0xBEE8C, size: 0x8, addend: 0x0, symName: '__ZN4core6option15Option$LT$T$GT$5ok_or17he2e96d96dd814bbdE', symObjAddr: 0x2864, symBinAddr: 0x44A80, symSize: 0x9C }
  - { offset: 0xBEEEF, size: 0x8, addend: 0x0, symName: '__ZN4core6option15Option$LT$T$GT$5ok_or17he6509e51d3e10d68E', symObjAddr: 0x2900, symBinAddr: 0x44B1C, symSize: 0x90 }
  - { offset: 0xBEF5F, size: 0x8, addend: 0x0, symName: '__ZN4core6option15Option$LT$T$GT$6as_mut17ha7da837f7aa5dfbdE', symObjAddr: 0x2990, symBinAddr: 0x44BAC, symSize: 0x50 }
  - { offset: 0xBEFB6, size: 0x8, addend: 0x0, symName: '__ZN4core6option15Option$LT$T$GT$6as_mut17hc3c269b38abf852fE', symObjAddr: 0x29E0, symBinAddr: 0x44BFC, symSize: 0x50 }
  - { offset: 0xBF00D, size: 0x8, addend: 0x0, symName: '__ZN4core6option15Option$LT$T$GT$6as_mut17hdc30055cada51d20E', symObjAddr: 0x2A30, symBinAddr: 0x44C4C, symSize: 0x48 }
  - { offset: 0xBF064, size: 0x8, addend: 0x0, symName: '__ZN4core6option15Option$LT$T$GT$6as_mut17hef7668e935a9f412E', symObjAddr: 0x2A78, symBinAddr: 0x44C94, symSize: 0x50 }
  - { offset: 0xBF0BB, size: 0x8, addend: 0x0, symName: '__ZN4core6option15Option$LT$T$GT$6as_ref17h874ad1e0eedb7ad6E', symObjAddr: 0x2AC8, symBinAddr: 0x44CE4, symSize: 0x4C }
  - { offset: 0xBF112, size: 0x8, addend: 0x0, symName: '__ZN4core6option15Option$LT$T$GT$6as_ref17hba7c981ac151f9adE', symObjAddr: 0x2B14, symBinAddr: 0x44D30, symSize: 0x50 }
  - { offset: 0xBF15C, size: 0x8, addend: 0x0, symName: '__ZN4core6option15Option$LT$T$GT$6expect17h31a83bd55cc3660bE', symObjAddr: 0x2B64, symBinAddr: 0x44D80, symSize: 0x70 }
  - { offset: 0xBF198, size: 0x8, addend: 0x0, symName: '__ZN4core6option15Option$LT$T$GT$6expect17h7edd92ab331366a1E', symObjAddr: 0x2BD4, symBinAddr: 0x44DF0, symSize: 0x5C }
  - { offset: 0xBF243, size: 0x8, addend: 0x0, symName: '__ZN4core6option15Option$LT$T$GT$6insert17h8601fae6bed76de7E', symObjAddr: 0x2C30, symBinAddr: 0x44E4C, symSize: 0xAC }
  - { offset: 0xBF345, size: 0x8, addend: 0x0, symName: '__ZN4core6option15Option$LT$T$GT$6insert17ha556d48ef4f266ccE', symObjAddr: 0x2CDC, symBinAddr: 0x44EF8, symSize: 0xAC }
  - { offset: 0xBF447, size: 0x8, addend: 0x0, symName: '__ZN4core6option15Option$LT$T$GT$6insert17hd747582a9ef27f09E', symObjAddr: 0x2D88, symBinAddr: 0x44FA4, symSize: 0xAC }
  - { offset: 0xBF549, size: 0x8, addend: 0x0, symName: '__ZN4core6option15Option$LT$T$GT$6insert17he7e1c950119d04d0E', symObjAddr: 0x2E34, symBinAddr: 0x45050, symSize: 0xAC }
  - { offset: 0xBF5E8, size: 0x8, addend: 0x0, symName: '__ZN4core6option15Option$LT$T$GT$6map_or17h03617688251192f0E', symObjAddr: 0x2EE0, symBinAddr: 0x450FC, symSize: 0xC8 }
  - { offset: 0xBF65A, size: 0x8, addend: 0x0, symName: '__ZN4core6option15Option$LT$T$GT$6map_or17h251ca399ee08e5dbE', symObjAddr: 0x2FA8, symBinAddr: 0x451C4, symSize: 0xC8 }
  - { offset: 0xBF6CC, size: 0x8, addend: 0x0, symName: '__ZN4core6option15Option$LT$T$GT$6map_or17h614a6a08edb7c3d7E', symObjAddr: 0x3070, symBinAddr: 0x4528C, symSize: 0xCC }
  - { offset: 0xBF73E, size: 0x8, addend: 0x0, symName: '__ZN4core6option15Option$LT$T$GT$6map_or17h8772519618a3f522E', symObjAddr: 0x313C, symBinAddr: 0x45358, symSize: 0xCC }
  - { offset: 0xBF7B0, size: 0x8, addend: 0x0, symName: '__ZN4core6option15Option$LT$T$GT$6map_or17h9080f0b2637b2374E', symObjAddr: 0x3208, symBinAddr: 0x45424, symSize: 0xC8 }
  - { offset: 0xBF822, size: 0x8, addend: 0x0, symName: '__ZN4core6option15Option$LT$T$GT$6map_or17ha8d0abd78379041aE', symObjAddr: 0x32D0, symBinAddr: 0x454EC, symSize: 0xC8 }
  - { offset: 0xBF894, size: 0x8, addend: 0x0, symName: '__ZN4core6option15Option$LT$T$GT$6map_or17hdd487f341861ad0cE', symObjAddr: 0x3398, symBinAddr: 0x455B4, symSize: 0xC8 }
  - { offset: 0xBF906, size: 0x8, addend: 0x0, symName: '__ZN4core6option15Option$LT$T$GT$6map_or17he9f0e8870f980912E', symObjAddr: 0x3460, symBinAddr: 0x4567C, symSize: 0xC8 }
  - { offset: 0xBF9A1, size: 0x8, addend: 0x0, symName: '__ZN4core6option15Option$LT$T$GT$7is_none17h5b086833fe41335aE', symObjAddr: 0x3528, symBinAddr: 0x45744, symSize: 0x30 }
  - { offset: 0xBFA21, size: 0x8, addend: 0x0, symName: '__ZN4core6option15Option$LT$T$GT$7is_none17h691ce50170c5ef30E', symObjAddr: 0x3558, symBinAddr: 0x45774, symSize: 0x28 }
  - { offset: 0xBFA94, size: 0x8, addend: 0x0, symName: '__ZN4core6option15Option$LT$T$GT$7is_none17h85dccf029831ad68E', symObjAddr: 0x3580, symBinAddr: 0x4579C, symSize: 0x2C }
  - { offset: 0xBFB07, size: 0x8, addend: 0x0, symName: '__ZN4core6option15Option$LT$T$GT$7is_none17h94caaafe8d58e4f2E', symObjAddr: 0x35AC, symBinAddr: 0x457C8, symSize: 0x28 }
  - { offset: 0xBFB7A, size: 0x8, addend: 0x0, symName: '__ZN4core6option15Option$LT$T$GT$7is_none17hb2d45409dc056e85E', symObjAddr: 0x35D4, symBinAddr: 0x457F0, symSize: 0x28 }
  - { offset: 0xBFBED, size: 0x8, addend: 0x0, symName: '__ZN4core6option15Option$LT$T$GT$7is_none17hd655c0757e6b83b8E', symObjAddr: 0x35FC, symBinAddr: 0x45818, symSize: 0x20 }
  - { offset: 0xBFC44, size: 0x8, addend: 0x0, symName: '__ZN4core6option15Option$LT$T$GT$7is_some17h3971c26963a464e7E', symObjAddr: 0x361C, symBinAddr: 0x45838, symSize: 0x28 }
  - { offset: 0xBFC70, size: 0x8, addend: 0x0, symName: '__ZN4core6option15Option$LT$T$GT$7is_some17h3fbb11154b6ff4bfE', symObjAddr: 0x3644, symBinAddr: 0x45860, symSize: 0x28 }
  - { offset: 0xBFCA9, size: 0x8, addend: 0x0, symName: '__ZN4core6option15Option$LT$T$GT$7is_some17h822598d2a3776718E', symObjAddr: 0x366C, symBinAddr: 0x45888, symSize: 0x20 }
  - { offset: 0xBFCE2, size: 0x8, addend: 0x0, symName: '__ZN4core6option15Option$LT$T$GT$7is_some17h9c67f17e7e2ba5efE', symObjAddr: 0x368C, symBinAddr: 0x458A8, symSize: 0x20 }
  - { offset: 0xBFD1B, size: 0x8, addend: 0x0, symName: '__ZN4core6option15Option$LT$T$GT$7is_some17hbb6477f0bfa47815E', symObjAddr: 0x36AC, symBinAddr: 0x458C8, symSize: 0x2C }
  - { offset: 0xBFD54, size: 0x8, addend: 0x0, symName: '__ZN4core6option15Option$LT$T$GT$7is_some17hd77bc8e2ca277733E', symObjAddr: 0x36D8, symBinAddr: 0x458F4, symSize: 0x20 }
  - { offset: 0xBFD8D, size: 0x8, addend: 0x0, symName: '__ZN4core6option15Option$LT$T$GT$7or_else17h17d23b75733e81e6E', symObjAddr: 0x36F8, symBinAddr: 0x45914, symSize: 0xCC }
  - { offset: 0xBFDFC, size: 0x8, addend: 0x0, symName: '__ZN4core6option15Option$LT$T$GT$7or_else17h80485c7dfe0d1e47E', symObjAddr: 0x37C4, symBinAddr: 0x459E0, symSize: 0xBC }
  - { offset: 0xBFE5F, size: 0x8, addend: 0x0, symName: '__ZN4core6option15Option$LT$T$GT$7or_else17h812e743724961832E', symObjAddr: 0x3880, symBinAddr: 0x45A9C, symSize: 0xBC }
  - { offset: 0xBFECF, size: 0x8, addend: 0x0, symName: '__ZN4core6option15Option$LT$T$GT$7replace17h807d1fcf0ea10ff5E', symObjAddr: 0x393C, symBinAddr: 0x45B58, symSize: 0x30 }
  - { offset: 0xBFF28, size: 0x8, addend: 0x0, symName: '__ZN4core6option15Option$LT$T$GT$8and_then17h2006a424aea7df85E', symObjAddr: 0x396C, symBinAddr: 0x45B88, symSize: 0x50 }
  - { offset: 0xBFFA0, size: 0x8, addend: 0x0, symName: '__ZN4core6option15Option$LT$T$GT$8and_then17h285fd603866c9b65E', symObjAddr: 0x39BC, symBinAddr: 0x45BD8, symSize: 0x68 }
  - { offset: 0xC000B, size: 0x8, addend: 0x0, symName: '__ZN4core6option15Option$LT$T$GT$8and_then17h3f5a85aa09065e8fE', symObjAddr: 0x3A24, symBinAddr: 0x45C40, symSize: 0x68 }
  - { offset: 0xC0076, size: 0x8, addend: 0x0, symName: '__ZN4core6option15Option$LT$T$GT$8and_then17h53551858e3bef02fE', symObjAddr: 0x3A8C, symBinAddr: 0x45CA8, symSize: 0x50 }
  - { offset: 0xC00E1, size: 0x8, addend: 0x0, symName: '__ZN4core6option15Option$LT$T$GT$8and_then17h5c4f158b3658ac9aE', symObjAddr: 0x3ADC, symBinAddr: 0x45CF8, symSize: 0x50 }
  - { offset: 0xC014C, size: 0x8, addend: 0x0, symName: '__ZN4core6option15Option$LT$T$GT$8and_then17h6a8ccea921e5abf3E', symObjAddr: 0x3B2C, symBinAddr: 0x45D48, symSize: 0x74 }
  - { offset: 0xC01B8, size: 0x8, addend: 0x0, symName: '__ZN4core6option15Option$LT$T$GT$8and_then17hbbe41d48716517b2E', symObjAddr: 0x3BA0, symBinAddr: 0x45DBC, symSize: 0x78 }
  - { offset: 0xC0224, size: 0x8, addend: 0x0, symName: '__ZN4core6option15Option$LT$T$GT$8and_then17hde1019135ef1d055E', symObjAddr: 0x3C18, symBinAddr: 0x45E34, symSize: 0x78 }
  - { offset: 0xC0290, size: 0x8, addend: 0x0, symName: '__ZN4core6option15Option$LT$T$GT$8and_then17he83126abc3e69ca7E', symObjAddr: 0x3C90, symBinAddr: 0x45EAC, symSize: 0x78 }
  - { offset: 0xC038B, size: 0x8, addend: 0x0, symName: '__ZN4core6option15Option$LT$T$GT$8as_deref17ha475f857a1d1dc66E', symObjAddr: 0x3D08, symBinAddr: 0x45F24, symSize: 0x6C }
  - { offset: 0xC0435, size: 0x8, addend: 0x0, symName: '__ZN4core6option15Option$LT$T$GT$9unwrap_or17h3f53afb1a29193eaE', symObjAddr: 0x3D74, symBinAddr: 0x45F90, symSize: 0x90 }
  - { offset: 0xC0490, size: 0x8, addend: 0x0, symName: '__ZN4core6option15Option$LT$T$GT$9unwrap_or17h61e681ffa19c48b6E', symObjAddr: 0x3E04, symBinAddr: 0x46020, symSize: 0x6C }
  - { offset: 0xC04EB, size: 0x8, addend: 0x0, symName: '__ZN4core6option15Option$LT$T$GT$9unwrap_or17h873984f0d9f34e84E', symObjAddr: 0x3E70, symBinAddr: 0x4608C, symSize: 0x48 }
  - { offset: 0xC0544, size: 0x8, addend: 0x0, symName: '__ZN4core6option15Option$LT$T$GT$9unwrap_or17hea0697bbe5957ad9E', symObjAddr: 0x3EB8, symBinAddr: 0x460D4, symSize: 0x50 }
  - { offset: 0xC059D, size: 0x8, addend: 0x0, symName: '__ZN4core6option19Option$LT$$RF$T$GT$6copied17h4fd9922fb8c963ceE', symObjAddr: 0x3F08, symBinAddr: 0x46124, symSize: 0x50 }
  - { offset: 0xC0612, size: 0x8, addend: 0x0, symName: '__ZN65_$LT$crc32fast..baseline..State$u20$as$u20$core..clone..Clone$GT$5clone17h6775bc06c3798dd6E', symObjAddr: 0x0, symBinAddr: 0x46414, symSize: 0x18 }
  - { offset: 0xC06AD, size: 0x8, addend: 0x0, symName: __ZN8pyo3_ffi11tupleobject13PyTuple_Check17h784881ef083a99bbE, symObjAddr: 0x18, symBinAddr: 0x4642C, symSize: 0x30 }
  - { offset: 0xC16E3, size: 0x8, addend: 0x0, symName: '__ZN65_$LT$crc32fast..baseline..State$u20$as$u20$core..clone..Clone$GT$5clone17h6775bc06c3798dd6E', symObjAddr: 0x0, symBinAddr: 0x46414, symSize: 0x18 }
  - { offset: 0xC1BAA, size: 0x8, addend: 0x0, symName: __ZN3std2io5Write14write_vectored17h3417177c0b07d843E, symObjAddr: 0x0, symBinAddr: 0x4645C, symSize: 0x30 }
  - { offset: 0xC1FAF, size: 0x8, addend: 0x0, symName: __ZN3std2io5Write14write_vectored17h3417177c0b07d843E, symObjAddr: 0x0, symBinAddr: 0x4645C, symSize: 0x30 }
  - { offset: 0xC1FF5, size: 0x8, addend: 0x0, symName: __ZN3std2io5Write14write_vectored17he854252daf8d22b6E, symObjAddr: 0x30, symBinAddr: 0x4648C, symSize: 0x30 }
  - { offset: 0xC203B, size: 0x8, addend: 0x0, symName: __ZN3std2io5Write17is_write_vectored17h99edb512dcc19a5dE, symObjAddr: 0x60, symBinAddr: 0x464BC, symSize: 0x18 }
  - { offset: 0xC2072, size: 0x8, addend: 0x0, symName: __ZN3std2io5Write17is_write_vectored17hed25700e5701ee8dE, symObjAddr: 0x78, symBinAddr: 0x464D4, symSize: 0x18 }
  - { offset: 0xC20A9, size: 0x8, addend: 0x0, symName: __ZN3std2io5Write18write_all_vectored17h34fdc56fb3ad7187E, symObjAddr: 0x90, symBinAddr: 0x464EC, symSize: 0x250 }
  - { offset: 0xC2219, size: 0x8, addend: 0x0, symName: __ZN3std2io5Write18write_all_vectored17hf46fabb8a04cbf97E, symObjAddr: 0x2E0, symBinAddr: 0x4673C, symSize: 0x250 }
  - { offset: 0xC2389, size: 0x8, addend: 0x0, symName: __ZN3std2io5Write9write_all17h8ec55dbf4170acc6E, symObjAddr: 0x530, symBinAddr: 0x4698C, symSize: 0x270 }
  - { offset: 0xC2521, size: 0x8, addend: 0x0, symName: __ZN3std2io5Write9write_all17hb81c1f9d83c11a24E, symObjAddr: 0x7A0, symBinAddr: 0x46BFC, symSize: 0x270 }
  - { offset: 0xC26B9, size: 0x8, addend: 0x0, symName: __ZN3std2io5Write9write_fmt17h0cfa7fead71b5368E, symObjAddr: 0xA10, symBinAddr: 0x46E6C, symSize: 0x154 }
  - { offset: 0xC276B, size: 0x8, addend: 0x0, symName: __ZN3std2io5Write9write_fmt17he6b2e44dc1d75edbE, symObjAddr: 0xB64, symBinAddr: 0x46FC0, symSize: 0x154 }
  - { offset: 0xC3F3C, size: 0x8, addend: 0x0, symName: '__ZN82_$LT$flate2..deflate..write..DeflateEncoder$LT$W$GT$$u20$as$u20$std..io..Write$GT$5flush17h3e28e7cc1250f76cE', symObjAddr: 0x10A4, symBinAddr: 0x47500, symSize: 0x24 }
  - { offset: 0xC3F71, size: 0x8, addend: 0x0, symName: '__ZN82_$LT$flate2..deflate..write..DeflateEncoder$LT$W$GT$$u20$as$u20$std..io..Write$GT$5flush17h6e6fe7926ea8045dE', symObjAddr: 0x10C8, symBinAddr: 0x47524, symSize: 0x24 }
  - { offset: 0xC3FA6, size: 0x8, addend: 0x0, symName: '__ZN82_$LT$flate2..deflate..write..DeflateEncoder$LT$W$GT$$u20$as$u20$std..io..Write$GT$5write17h19bbe4a585be14d5E', symObjAddr: 0x10EC, symBinAddr: 0x47548, symSize: 0x30 }
  - { offset: 0xC3FE9, size: 0x8, addend: 0x0, symName: '__ZN82_$LT$flate2..deflate..write..DeflateEncoder$LT$W$GT$$u20$as$u20$std..io..Write$GT$5write17h78d38e03daec0cc9E', symObjAddr: 0x111C, symBinAddr: 0x47578, symSize: 0x30 }
  - { offset: 0xC4532, size: 0x8, addend: 0x0, symName: '__ZN6flate27deflate5write23DeflateEncoder$LT$W$GT$3new17h293809ec6df0e570E', symObjAddr: 0xCB8, symBinAddr: 0x47114, symSize: 0x104 }
  - { offset: 0xC456C, size: 0x8, addend: 0x0, symName: '__ZN6flate27deflate5write23DeflateEncoder$LT$W$GT$3new17h7e97832f4c5c0242E', symObjAddr: 0xDBC, symBinAddr: 0x47218, symSize: 0x104 }
  - { offset: 0xC45A6, size: 0x8, addend: 0x0, symName: '__ZN6flate27deflate5write23DeflateEncoder$LT$W$GT$6finish17h1058a8fecaf0abc5E', symObjAddr: 0xEC0, symBinAddr: 0x4731C, symSize: 0xEC }
  - { offset: 0xC45EF, size: 0x8, addend: 0x0, symName: '__ZN6flate27deflate5write23DeflateEncoder$LT$W$GT$6finish17h59c65bbf489b2367E', symObjAddr: 0xFAC, symBinAddr: 0x47408, symSize: 0xF8 }
  - { offset: 0xC46FC, size: 0x8, addend: 0x0, symName: '__ZN3std2io5impls57_$LT$impl$u20$std..io..Read$u20$for$u20$$RF$mut$u20$R$GT$4read17h11990fddd505019aE', symObjAddr: 0x0, symBinAddr: 0x475A8, symSize: 0x34 }
  - { offset: 0xC499A, size: 0x8, addend: 0x0, symName: '__ZN3std2io5impls57_$LT$impl$u20$std..io..Read$u20$for$u20$$RF$mut$u20$R$GT$4read17h11990fddd505019aE', symObjAddr: 0x0, symBinAddr: 0x475A8, symSize: 0x34 }
  - { offset: 0xC49E4, size: 0x8, addend: 0x0, symName: __ZN3std2io6cursor13vec_write_all17hce33b91fcfc21b37E, symObjAddr: 0x34, symBinAddr: 0x475DC, symSize: 0x128 }
  - { offset: 0xC4BDE, size: 0x8, addend: 0x0, symName: __ZN3std2io6cursor15reserve_and_pad17h76f8fbbbbe38a012E, symObjAddr: 0x18C, symBinAddr: 0x47734, symSize: 0x210 }
  - { offset: 0xC506F, size: 0x8, addend: 0x0, symName: __ZN3std2io6cursor23vec_write_all_unchecked17ha7ce23a4287dd8d9E, symObjAddr: 0x39C, symBinAddr: 0x47944, symSize: 0xC4 }
  - { offset: 0xC5217, size: 0x8, addend: 0x0, symName: '__ZN66_$LT$std..io..cursor..Cursor$LT$T$GT$$u20$as$u20$std..io..Read$GT$4read17hef2cef2af09ea0feE', symObjAddr: 0x4B4, symBinAddr: 0x47A5C, symSize: 0xDC }
  - { offset: 0xC5319, size: 0x8, addend: 0x0, symName: '__ZN66_$LT$std..io..cursor..Cursor$LT$T$GT$$u20$as$u20$std..io..Seek$GT$15stream_position17h33dd244325191477E', symObjAddr: 0x590, symBinAddr: 0x47B38, symSize: 0x28 }
  - { offset: 0xC5350, size: 0x8, addend: 0x0, symName: '__ZN66_$LT$std..io..cursor..Cursor$LT$T$GT$$u20$as$u20$std..io..Seek$GT$15stream_position17hc95a21d01e83be76E', symObjAddr: 0x5B8, symBinAddr: 0x47B60, symSize: 0x28 }
  - { offset: 0xC5387, size: 0x8, addend: 0x0, symName: '__ZN66_$LT$std..io..cursor..Cursor$LT$T$GT$$u20$as$u20$std..io..Seek$GT$4seek17h8bbb09396ab0dbc7E', symObjAddr: 0x5E0, symBinAddr: 0x47B88, symSize: 0x170 }
  - { offset: 0xC5552, size: 0x8, addend: 0x0, symName: '__ZN95_$LT$std..io..cursor..Cursor$LT$alloc..vec..Vec$LT$u8$C$A$GT$$GT$$u20$as$u20$std..io..Write$GT$5flush17h973e78422084ba8aE', symObjAddr: 0x750, symBinAddr: 0x47CF8, symSize: 0x14 }
  - { offset: 0xC5589, size: 0x8, addend: 0x0, symName: '__ZN95_$LT$std..io..cursor..Cursor$LT$alloc..vec..Vec$LT$u8$C$A$GT$$GT$$u20$as$u20$std..io..Write$GT$5write17h24e018c802b72f36E', symObjAddr: 0x764, symBinAddr: 0x47D0C, symSize: 0x4C }
  - { offset: 0xC55CF, size: 0x8, addend: 0x0, symName: '__ZN95_$LT$std..io..cursor..Cursor$LT$alloc..vec..Vec$LT$u8$C$A$GT$$GT$$u20$as$u20$std..io..Write$GT$9write_all17h7c676b48464e9462E', symObjAddr: 0x7B0, symBinAddr: 0x47D58, symSize: 0xB8 }
  - { offset: 0xC66F6, size: 0x8, addend: 0x0, symName: '__ZN3std2io6cursor15Cursor$LT$T$GT$10into_inner17h3225b9a8e351f5f3E', symObjAddr: 0x15C, symBinAddr: 0x47704, symSize: 0x18 }
  - { offset: 0xC6721, size: 0x8, addend: 0x0, symName: '__ZN3std2io6cursor15Cursor$LT$T$GT$3new17h2e7f8eca9085c1e0E', symObjAddr: 0x174, symBinAddr: 0x4771C, symSize: 0x18 }
  - { offset: 0xC6AD2, size: 0x8, addend: 0x0, symName: __ZN3zip8unstable20LittleEndianWriteExt12write_u32_le17h66712a6458b52f25E, symObjAddr: 0x460, symBinAddr: 0x47A08, symSize: 0x54 }
  - { offset: 0xC6C15, size: 0x8, addend: 0x0, symName: __ZN11_fast_ebook8manifest14parse_manifest17h363bd7592f1d4823E, symObjAddr: 0x0, symBinAddr: 0x47E10, symSize: 0x4B4 }
  - { offset: 0xC6C2C, size: 0x8, addend: 0x0, symName: __ZN11_fast_ebook8manifest14parse_manifest17h363bd7592f1d4823E, symObjAddr: 0x0, symBinAddr: 0x47E10, symSize: 0x4B4 }
  - { offset: 0xC794D, size: 0x8, addend: 0x0, symName: '__ZN5alloc3str13replace_ascii28_$u7b$$u7b$closure$u7d$$u7d$17h6838fbd75287bd76E', symObjAddr: 0x0, symBinAddr: 0x482C4, symSize: 0x60 }
  - { offset: 0xC84C5, size: 0x8, addend: 0x0, symName: '__ZN5alloc3str13replace_ascii28_$u7b$$u7b$closure$u7d$$u7d$17h6838fbd75287bd76E', symObjAddr: 0x0, symBinAddr: 0x482C4, symSize: 0x60 }
  - { offset: 0xC854A, size: 0x8, addend: 0x0, symName: '__ZN5alloc3str21_$LT$impl$u20$str$GT$7replace17h87f43aa2324fcd1aE', symObjAddr: 0x60, symBinAddr: 0x48324, symSize: 0x710 }
  - { offset: 0xC96E0, size: 0x8, addend: 0x0, symName: '__ZN4core5slice29_$LT$impl$u20$$u5b$T$u5d$$GT$4iter17h72f00ff17faedef8E', symObjAddr: 0x0, symBinAddr: 0x48A34, symSize: 0x28 }
  - { offset: 0xC9CDA, size: 0x8, addend: 0x0, symName: '__ZN4core5slice29_$LT$impl$u20$$u5b$T$u5d$$GT$4iter17h72f00ff17faedef8E', symObjAddr: 0x0, symBinAddr: 0x48A34, symSize: 0x28 }
  - { offset: 0xCA7E2, size: 0x8, addend: 0x0, symName: '__ZN68_$LT$alloc..sync..Arc$LT$T$C$A$GT$$u20$as$u20$core..clone..Clone$GT$5clone17h757091c61938ab99E', symObjAddr: 0x1D8, symBinAddr: 0x48C0C, symSize: 0x94 }
  - { offset: 0xCA8DB, size: 0x8, addend: 0x0, symName: '__ZN73_$LT$alloc..sync..Arc$LT$T$C$A$GT$$u20$as$u20$core..ops..deref..Deref$GT$5deref17ha4b38bf4fff63f93E', symObjAddr: 0x26C, symBinAddr: 0x48CA0, symSize: 0x1C }
  - { offset: 0xCA94E, size: 0x8, addend: 0x0, symName: '__ZN73_$LT$alloc..sync..Arc$LT$T$C$A$GT$$u20$as$u20$core..ops..deref..Deref$GT$5deref17he42866c2443c66a1E', symObjAddr: 0x288, symBinAddr: 0x48CBC, symSize: 0x1C }
  - { offset: 0xCA9F7, size: 0x8, addend: 0x0, symName: '__ZN74_$LT$alloc..sync..Arc$LT$T$GT$$u20$as$u20$core..convert..From$LT$T$GT$$GT$4from17h853cada0b420d85bE', symObjAddr: 0x2A4, symBinAddr: 0x48CD8, symSize: 0xD0 }
  - { offset: 0xCAC0F, size: 0x8, addend: 0x0, symName: '__ZN79_$LT$alloc..sync..Arc$LT$T$C$A$GT$$u20$as$u20$core..convert..AsRef$LT$T$GT$$GT$6as_ref17he85bfd15231ef477E', symObjAddr: 0x374, symBinAddr: 0x48DA8, symSize: 0x1C }
  - { offset: 0xCACA6, size: 0x8, addend: 0x0, symName: '__ZN90_$LT$alloc..sync..Arc$LT$$u5b$T$u5d$$GT$$u20$as$u20$alloc..sync..ArcFromSlice$LT$T$GT$$GT$10from_slice17he8f3671bb8462812E', symObjAddr: 0x390, symBinAddr: 0x48DC4, symSize: 0x28 }
  - { offset: 0xCACE3, size: 0x8, addend: 0x0, symName: '__ZN98_$LT$alloc..sync..Arc$LT$$u5b$T$u5d$$GT$$u20$as$u20$core..convert..From$LT$$RF$$u5b$T$u5d$$GT$$GT$4from17hf583c2fc4ce1d7f9E', symObjAddr: 0x3B8, symBinAddr: 0x48DEC, symSize: 0x28 }
  - { offset: 0xCAF9B, size: 0x8, addend: 0x0, symName: '__ZN5alloc4sync12Arc$LT$T$GT$3new17hd6a471dac4099703E', symObjAddr: 0x28, symBinAddr: 0x48A5C, symSize: 0xC8 }
  - { offset: 0xCB0F9, size: 0x8, addend: 0x0, symName: '__ZN5alloc4sync16Arc$LT$T$C$A$GT$9drop_slow17h5fb67f5f756ce175E', symObjAddr: 0xF0, symBinAddr: 0x48B24, symSize: 0x74 }
  - { offset: 0xCB489, size: 0x8, addend: 0x0, symName: '__ZN5alloc4sync16Arc$LT$T$C$A$GT$9drop_slow17hef143dcd71a6b9e4E', symObjAddr: 0x164, symBinAddr: 0x48B98, symSize: 0x74 }
  - { offset: 0xCB7E6, size: 0x8, addend: 0x0, symName: '__ZN153_$LT$core..result..Result$LT$T$C$F$GT$$u20$as$u20$core..ops..try_trait..FromResidual$LT$core..result..Result$LT$core..convert..Infallible$C$E$GT$$GT$$GT$13from_residual17h013641a4de8fb1d7E', symObjAddr: 0x0, symBinAddr: 0x48E14, symSize: 0x4C }
  - { offset: 0xCC83B, size: 0x8, addend: 0x0, symName: '__ZN153_$LT$core..result..Result$LT$T$C$F$GT$$u20$as$u20$core..ops..try_trait..FromResidual$LT$core..result..Result$LT$core..convert..Infallible$C$E$GT$$GT$$GT$13from_residual17h013641a4de8fb1d7E', symObjAddr: 0x0, symBinAddr: 0x48E14, symSize: 0x4C }
  - { offset: 0xCC8A2, size: 0x8, addend: 0x0, symName: '__ZN153_$LT$core..result..Result$LT$T$C$F$GT$$u20$as$u20$core..ops..try_trait..FromResidual$LT$core..result..Result$LT$core..convert..Infallible$C$E$GT$$GT$$GT$13from_residual17h024530c2e4d26676E', symObjAddr: 0x4C, symBinAddr: 0x48E60, symSize: 0x6C }
  - { offset: 0xCC928, size: 0x8, addend: 0x0, symName: '__ZN153_$LT$core..result..Result$LT$T$C$F$GT$$u20$as$u20$core..ops..try_trait..FromResidual$LT$core..result..Result$LT$core..convert..Infallible$C$E$GT$$GT$$GT$13from_residual17h04fd097b75eead30E', symObjAddr: 0xB8, symBinAddr: 0x48ECC, symSize: 0x6C }
  - { offset: 0xCC9AE, size: 0x8, addend: 0x0, symName: '__ZN153_$LT$core..result..Result$LT$T$C$F$GT$$u20$as$u20$core..ops..try_trait..FromResidual$LT$core..result..Result$LT$core..convert..Infallible$C$E$GT$$GT$$GT$13from_residual17h0718de0e24af3ae2E', symObjAddr: 0x124, symBinAddr: 0x48F38, symSize: 0x2C }
  - { offset: 0xCCA15, size: 0x8, addend: 0x0, symName: '__ZN153_$LT$core..result..Result$LT$T$C$F$GT$$u20$as$u20$core..ops..try_trait..FromResidual$LT$core..result..Result$LT$core..convert..Infallible$C$E$GT$$GT$$GT$13from_residual17h0cdc4ca2a05f356cE', symObjAddr: 0x150, symBinAddr: 0x48F64, symSize: 0x6C }
  - { offset: 0xCCA9B, size: 0x8, addend: 0x0, symName: '__ZN153_$LT$core..result..Result$LT$T$C$F$GT$$u20$as$u20$core..ops..try_trait..FromResidual$LT$core..result..Result$LT$core..convert..Infallible$C$E$GT$$GT$$GT$13from_residual17h0d280cf5f1b42a87E', symObjAddr: 0x1BC, symBinAddr: 0x48FD0, symSize: 0x48 }
  - { offset: 0xCCB20, size: 0x8, addend: 0x0, symName: '__ZN153_$LT$core..result..Result$LT$T$C$F$GT$$u20$as$u20$core..ops..try_trait..FromResidual$LT$core..result..Result$LT$core..convert..Infallible$C$E$GT$$GT$$GT$13from_residual17h13f7299200612c2eE', symObjAddr: 0x204, symBinAddr: 0x49018, symSize: 0x44 }
  - { offset: 0xCCB87, size: 0x8, addend: 0x0, symName: '__ZN153_$LT$core..result..Result$LT$T$C$F$GT$$u20$as$u20$core..ops..try_trait..FromResidual$LT$core..result..Result$LT$core..convert..Infallible$C$E$GT$$GT$$GT$13from_residual17h155696f82e3f36c1E', symObjAddr: 0x248, symBinAddr: 0x4905C, symSize: 0x48 }
  - { offset: 0xCCC0C, size: 0x8, addend: 0x0, symName: '__ZN153_$LT$core..result..Result$LT$T$C$F$GT$$u20$as$u20$core..ops..try_trait..FromResidual$LT$core..result..Result$LT$core..convert..Infallible$C$E$GT$$GT$$GT$13from_residual17h16ddb11e7bafad16E', symObjAddr: 0x290, symBinAddr: 0x490A4, symSize: 0x44 }
  - { offset: 0xCCC73, size: 0x8, addend: 0x0, symName: '__ZN153_$LT$core..result..Result$LT$T$C$F$GT$$u20$as$u20$core..ops..try_trait..FromResidual$LT$core..result..Result$LT$core..convert..Infallible$C$E$GT$$GT$$GT$13from_residual17h19bd69b46baf6306E', symObjAddr: 0x2D4, symBinAddr: 0x490E8, symSize: 0x40 }
  - { offset: 0xCCCF8, size: 0x8, addend: 0x0, symName: '__ZN153_$LT$core..result..Result$LT$T$C$F$GT$$u20$as$u20$core..ops..try_trait..FromResidual$LT$core..result..Result$LT$core..convert..Infallible$C$E$GT$$GT$$GT$13from_residual17h1bbdfc98c6d723daE', symObjAddr: 0x314, symBinAddr: 0x49128, symSize: 0x58 }
  - { offset: 0xCCD60, size: 0x8, addend: 0x0, symName: '__ZN153_$LT$core..result..Result$LT$T$C$F$GT$$u20$as$u20$core..ops..try_trait..FromResidual$LT$core..result..Result$LT$core..convert..Infallible$C$E$GT$$GT$$GT$13from_residual17h2234591693d38e71E', symObjAddr: 0x36C, symBinAddr: 0x49180, symSize: 0x6C }
  - { offset: 0xCCDE6, size: 0x8, addend: 0x0, symName: '__ZN153_$LT$core..result..Result$LT$T$C$F$GT$$u20$as$u20$core..ops..try_trait..FromResidual$LT$core..result..Result$LT$core..convert..Infallible$C$E$GT$$GT$$GT$13from_residual17h2ad9cbeb0331b521E', symObjAddr: 0x3D8, symBinAddr: 0x491EC, symSize: 0x30 }
  - { offset: 0xCCE4D, size: 0x8, addend: 0x0, symName: '__ZN153_$LT$core..result..Result$LT$T$C$F$GT$$u20$as$u20$core..ops..try_trait..FromResidual$LT$core..result..Result$LT$core..convert..Infallible$C$E$GT$$GT$$GT$13from_residual17h2d5610cf2110ffd3E', symObjAddr: 0x408, symBinAddr: 0x4921C, symSize: 0x64 }
  - { offset: 0xCCEB5, size: 0x8, addend: 0x0, symName: '__ZN153_$LT$core..result..Result$LT$T$C$F$GT$$u20$as$u20$core..ops..try_trait..FromResidual$LT$core..result..Result$LT$core..convert..Infallible$C$E$GT$$GT$$GT$13from_residual17h2ec4731a79eab7c9E', symObjAddr: 0x46C, symBinAddr: 0x49280, symSize: 0x6C }
  - { offset: 0xCCF3B, size: 0x8, addend: 0x0, symName: '__ZN153_$LT$core..result..Result$LT$T$C$F$GT$$u20$as$u20$core..ops..try_trait..FromResidual$LT$core..result..Result$LT$core..convert..Infallible$C$E$GT$$GT$$GT$13from_residual17h305b09db9ab27021E', symObjAddr: 0x4D8, symBinAddr: 0x492EC, symSize: 0x48 }
  - { offset: 0xCCFA2, size: 0x8, addend: 0x0, symName: '__ZN153_$LT$core..result..Result$LT$T$C$F$GT$$u20$as$u20$core..ops..try_trait..FromResidual$LT$core..result..Result$LT$core..convert..Infallible$C$E$GT$$GT$$GT$13from_residual17h311e46d560153162E', symObjAddr: 0x520, symBinAddr: 0x49334, symSize: 0x4C }
  - { offset: 0xCD009, size: 0x8, addend: 0x0, symName: '__ZN153_$LT$core..result..Result$LT$T$C$F$GT$$u20$as$u20$core..ops..try_trait..FromResidual$LT$core..result..Result$LT$core..convert..Infallible$C$E$GT$$GT$$GT$13from_residual17h331134559d4c72efE', symObjAddr: 0x56C, symBinAddr: 0x49380, symSize: 0x40 }
  - { offset: 0xCD08E, size: 0x8, addend: 0x0, symName: '__ZN153_$LT$core..result..Result$LT$T$C$F$GT$$u20$as$u20$core..ops..try_trait..FromResidual$LT$core..result..Result$LT$core..convert..Infallible$C$E$GT$$GT$$GT$13from_residual17h35d07b942482ab4fE', symObjAddr: 0x5AC, symBinAddr: 0x493C0, symSize: 0x6C }
  - { offset: 0xCD114, size: 0x8, addend: 0x0, symName: '__ZN153_$LT$core..result..Result$LT$T$C$F$GT$$u20$as$u20$core..ops..try_trait..FromResidual$LT$core..result..Result$LT$core..convert..Infallible$C$E$GT$$GT$$GT$13from_residual17h377e2779c8edb188E', symObjAddr: 0x620, symBinAddr: 0x4942C, symSize: 0x54 }
  - { offset: 0xCD17C, size: 0x8, addend: 0x0, symName: '__ZN153_$LT$core..result..Result$LT$T$C$F$GT$$u20$as$u20$core..ops..try_trait..FromResidual$LT$core..result..Result$LT$core..convert..Infallible$C$E$GT$$GT$$GT$13from_residual17h3803ec70b6ff3082E', symObjAddr: 0x674, symBinAddr: 0x49480, symSize: 0x58 }
  - { offset: 0xCD1E4, size: 0x8, addend: 0x0, symName: '__ZN153_$LT$core..result..Result$LT$T$C$F$GT$$u20$as$u20$core..ops..try_trait..FromResidual$LT$core..result..Result$LT$core..convert..Infallible$C$E$GT$$GT$$GT$13from_residual17h3ef6ef7ca7a19736E', symObjAddr: 0x6CC, symBinAddr: 0x494D8, symSize: 0x4C }
  - { offset: 0xCD24B, size: 0x8, addend: 0x0, symName: '__ZN153_$LT$core..result..Result$LT$T$C$F$GT$$u20$as$u20$core..ops..try_trait..FromResidual$LT$core..result..Result$LT$core..convert..Infallible$C$E$GT$$GT$$GT$13from_residual17h4375ed76b2bebd68E', symObjAddr: 0x718, symBinAddr: 0x49524, symSize: 0x44 }
  - { offset: 0xCD2B2, size: 0x8, addend: 0x0, symName: '__ZN153_$LT$core..result..Result$LT$T$C$F$GT$$u20$as$u20$core..ops..try_trait..FromResidual$LT$core..result..Result$LT$core..convert..Infallible$C$E$GT$$GT$$GT$13from_residual17h43a101c8889b0590E', symObjAddr: 0x75C, symBinAddr: 0x49568, symSize: 0x6C }
  - { offset: 0xCD338, size: 0x8, addend: 0x0, symName: '__ZN153_$LT$core..result..Result$LT$T$C$F$GT$$u20$as$u20$core..ops..try_trait..FromResidual$LT$core..result..Result$LT$core..convert..Infallible$C$E$GT$$GT$$GT$13from_residual17h45bc4cfd6c8cb062E', symObjAddr: 0x7C8, symBinAddr: 0x495D4, symSize: 0x40 }
  - { offset: 0xCD3BD, size: 0x8, addend: 0x0, symName: '__ZN153_$LT$core..result..Result$LT$T$C$F$GT$$u20$as$u20$core..ops..try_trait..FromResidual$LT$core..result..Result$LT$core..convert..Infallible$C$E$GT$$GT$$GT$13from_residual17h47f060a639550b4dE', symObjAddr: 0x808, symBinAddr: 0x49614, symSize: 0x5C }
  - { offset: 0xCD443, size: 0x8, addend: 0x0, symName: '__ZN153_$LT$core..result..Result$LT$T$C$F$GT$$u20$as$u20$core..ops..try_trait..FromResidual$LT$core..result..Result$LT$core..convert..Infallible$C$E$GT$$GT$$GT$13from_residual17h4a11910925fa4bc4E', symObjAddr: 0x864, symBinAddr: 0x49670, symSize: 0x5C }
  - { offset: 0xCD4C9, size: 0x8, addend: 0x0, symName: '__ZN153_$LT$core..result..Result$LT$T$C$F$GT$$u20$as$u20$core..ops..try_trait..FromResidual$LT$core..result..Result$LT$core..convert..Infallible$C$E$GT$$GT$$GT$13from_residual17h4fccca113dd8630fE', symObjAddr: 0x8C0, symBinAddr: 0x496CC, symSize: 0x64 }
  - { offset: 0xCD531, size: 0x8, addend: 0x0, symName: '__ZN153_$LT$core..result..Result$LT$T$C$F$GT$$u20$as$u20$core..ops..try_trait..FromResidual$LT$core..result..Result$LT$core..convert..Infallible$C$E$GT$$GT$$GT$13from_residual17h534d1492e82d994cE', symObjAddr: 0x924, symBinAddr: 0x49730, symSize: 0x4C }
  - { offset: 0xCD598, size: 0x8, addend: 0x0, symName: '__ZN153_$LT$core..result..Result$LT$T$C$F$GT$$u20$as$u20$core..ops..try_trait..FromResidual$LT$core..result..Result$LT$core..convert..Infallible$C$E$GT$$GT$$GT$13from_residual17h5476e0b031b82a53E', symObjAddr: 0x970, symBinAddr: 0x4977C, symSize: 0x48 }
  - { offset: 0xCD5FF, size: 0x8, addend: 0x0, symName: '__ZN153_$LT$core..result..Result$LT$T$C$F$GT$$u20$as$u20$core..ops..try_trait..FromResidual$LT$core..result..Result$LT$core..convert..Infallible$C$E$GT$$GT$$GT$13from_residual17h54dded45dcf6bd0cE', symObjAddr: 0x9B8, symBinAddr: 0x497C4, symSize: 0x48 }
  - { offset: 0xCD666, size: 0x8, addend: 0x0, symName: '__ZN153_$LT$core..result..Result$LT$T$C$F$GT$$u20$as$u20$core..ops..try_trait..FromResidual$LT$core..result..Result$LT$core..convert..Infallible$C$E$GT$$GT$$GT$13from_residual17h58e9412e41eb0ff1E', symObjAddr: 0xA00, symBinAddr: 0x4980C, symSize: 0x6C }
  - { offset: 0xCD6EC, size: 0x8, addend: 0x0, symName: '__ZN153_$LT$core..result..Result$LT$T$C$F$GT$$u20$as$u20$core..ops..try_trait..FromResidual$LT$core..result..Result$LT$core..convert..Infallible$C$E$GT$$GT$$GT$13from_residual17h5c10fcc296e9d43fE', symObjAddr: 0xA6C, symBinAddr: 0x49878, symSize: 0x6C }
  - { offset: 0xCD772, size: 0x8, addend: 0x0, symName: '__ZN153_$LT$core..result..Result$LT$T$C$F$GT$$u20$as$u20$core..ops..try_trait..FromResidual$LT$core..result..Result$LT$core..convert..Infallible$C$E$GT$$GT$$GT$13from_residual17h5ee534ada22e96f4E', symObjAddr: 0xAD8, symBinAddr: 0x498E4, symSize: 0x2C }
  - { offset: 0xCD7D9, size: 0x8, addend: 0x0, symName: '__ZN153_$LT$core..result..Result$LT$T$C$F$GT$$u20$as$u20$core..ops..try_trait..FromResidual$LT$core..result..Result$LT$core..convert..Infallible$C$E$GT$$GT$$GT$13from_residual17h6169230eb86d4206E', symObjAddr: 0xB04, symBinAddr: 0x49910, symSize: 0x54 }
  - { offset: 0xCD841, size: 0x8, addend: 0x0, symName: '__ZN153_$LT$core..result..Result$LT$T$C$F$GT$$u20$as$u20$core..ops..try_trait..FromResidual$LT$core..result..Result$LT$core..convert..Infallible$C$E$GT$$GT$$GT$13from_residual17h64d8315863ced302E', symObjAddr: 0xB58, symBinAddr: 0x49964, symSize: 0x2C }
  - { offset: 0xCD8A8, size: 0x8, addend: 0x0, symName: '__ZN153_$LT$core..result..Result$LT$T$C$F$GT$$u20$as$u20$core..ops..try_trait..FromResidual$LT$core..result..Result$LT$core..convert..Infallible$C$E$GT$$GT$$GT$13from_residual17h6a0bd33b5fa9bc91E', symObjAddr: 0xB84, symBinAddr: 0x49990, symSize: 0x48 }
  - { offset: 0xCD92D, size: 0x8, addend: 0x0, symName: '__ZN153_$LT$core..result..Result$LT$T$C$F$GT$$u20$as$u20$core..ops..try_trait..FromResidual$LT$core..result..Result$LT$core..convert..Infallible$C$E$GT$$GT$$GT$13from_residual17h72453948692fc27fE', symObjAddr: 0xBCC, symBinAddr: 0x499D8, symSize: 0x2C }
  - { offset: 0xCD994, size: 0x8, addend: 0x0, symName: '__ZN153_$LT$core..result..Result$LT$T$C$F$GT$$u20$as$u20$core..ops..try_trait..FromResidual$LT$core..result..Result$LT$core..convert..Infallible$C$E$GT$$GT$$GT$13from_residual17h74de04158620256bE', symObjAddr: 0xBF8, symBinAddr: 0x49A04, symSize: 0x2C }
  - { offset: 0xCD9FB, size: 0x8, addend: 0x0, symName: '__ZN153_$LT$core..result..Result$LT$T$C$F$GT$$u20$as$u20$core..ops..try_trait..FromResidual$LT$core..result..Result$LT$core..convert..Infallible$C$E$GT$$GT$$GT$13from_residual17h7aa744b68aae36aeE', symObjAddr: 0xC24, symBinAddr: 0x49A30, symSize: 0x48 }
  - { offset: 0xCDA80, size: 0x8, addend: 0x0, symName: '__ZN153_$LT$core..result..Result$LT$T$C$F$GT$$u20$as$u20$core..ops..try_trait..FromResidual$LT$core..result..Result$LT$core..convert..Infallible$C$E$GT$$GT$$GT$13from_residual17h7c14d24db8b792a5E', symObjAddr: 0xC6C, symBinAddr: 0x49A78, symSize: 0x4C }
  - { offset: 0xCDAE7, size: 0x8, addend: 0x0, symName: '__ZN153_$LT$core..result..Result$LT$T$C$F$GT$$u20$as$u20$core..ops..try_trait..FromResidual$LT$core..result..Result$LT$core..convert..Infallible$C$E$GT$$GT$$GT$13from_residual17h7d0ef8d1dc00739cE', symObjAddr: 0xCB8, symBinAddr: 0x49AC4, symSize: 0x64 }
  - { offset: 0xCDB4F, size: 0x8, addend: 0x0, symName: '__ZN153_$LT$core..result..Result$LT$T$C$F$GT$$u20$as$u20$core..ops..try_trait..FromResidual$LT$core..result..Result$LT$core..convert..Infallible$C$E$GT$$GT$$GT$13from_residual17h7d953c4cef8c04ffE', symObjAddr: 0xD1C, symBinAddr: 0x49B28, symSize: 0x6C }
  - { offset: 0xCDBD5, size: 0x8, addend: 0x0, symName: '__ZN153_$LT$core..result..Result$LT$T$C$F$GT$$u20$as$u20$core..ops..try_trait..FromResidual$LT$core..result..Result$LT$core..convert..Infallible$C$E$GT$$GT$$GT$13from_residual17h7e7da49ce56754f0E', symObjAddr: 0xD88, symBinAddr: 0x49B94, symSize: 0x48 }
  - { offset: 0xCDC5A, size: 0x8, addend: 0x0, symName: '__ZN153_$LT$core..result..Result$LT$T$C$F$GT$$u20$as$u20$core..ops..try_trait..FromResidual$LT$core..result..Result$LT$core..convert..Infallible$C$E$GT$$GT$$GT$13from_residual17h82528c05d2a62114E', symObjAddr: 0xDD0, symBinAddr: 0x49BDC, symSize: 0x6C }
  - { offset: 0xCDCE0, size: 0x8, addend: 0x0, symName: '__ZN153_$LT$core..result..Result$LT$T$C$F$GT$$u20$as$u20$core..ops..try_trait..FromResidual$LT$core..result..Result$LT$core..convert..Infallible$C$E$GT$$GT$$GT$13from_residual17h851d9db047909a9fE', symObjAddr: 0xE3C, symBinAddr: 0x49C48, symSize: 0x58 }
  - { offset: 0xCDD47, size: 0x8, addend: 0x0, symName: '__ZN153_$LT$core..result..Result$LT$T$C$F$GT$$u20$as$u20$core..ops..try_trait..FromResidual$LT$core..result..Result$LT$core..convert..Infallible$C$E$GT$$GT$$GT$13from_residual17h85aa738e0a061754E', symObjAddr: 0xE94, symBinAddr: 0x49CA0, symSize: 0x48 }
  - { offset: 0xCDDCC, size: 0x8, addend: 0x0, symName: '__ZN153_$LT$core..result..Result$LT$T$C$F$GT$$u20$as$u20$core..ops..try_trait..FromResidual$LT$core..result..Result$LT$core..convert..Infallible$C$E$GT$$GT$$GT$13from_residual17h89149e1d94876e8bE', symObjAddr: 0xEDC, symBinAddr: 0x49CE8, symSize: 0x48 }
  - { offset: 0xCDE51, size: 0x8, addend: 0x0, symName: '__ZN153_$LT$core..result..Result$LT$T$C$F$GT$$u20$as$u20$core..ops..try_trait..FromResidual$LT$core..result..Result$LT$core..convert..Infallible$C$E$GT$$GT$$GT$13from_residual17h8b07a08afd5835f9E', symObjAddr: 0xF24, symBinAddr: 0x49D30, symSize: 0x6C }
  - { offset: 0xCDED7, size: 0x8, addend: 0x0, symName: '__ZN153_$LT$core..result..Result$LT$T$C$F$GT$$u20$as$u20$core..ops..try_trait..FromResidual$LT$core..result..Result$LT$core..convert..Infallible$C$E$GT$$GT$$GT$13from_residual17h8d6dbf022b5e0720E', symObjAddr: 0xF90, symBinAddr: 0x49D9C, symSize: 0x6C }
  - { offset: 0xCDF5D, size: 0x8, addend: 0x0, symName: '__ZN153_$LT$core..result..Result$LT$T$C$F$GT$$u20$as$u20$core..ops..try_trait..FromResidual$LT$core..result..Result$LT$core..convert..Infallible$C$E$GT$$GT$$GT$13from_residual17h8ea42fd11262f5d6E', symObjAddr: 0xFFC, symBinAddr: 0x49E08, symSize: 0x40 }
  - { offset: 0xCDFE2, size: 0x8, addend: 0x0, symName: '__ZN153_$LT$core..result..Result$LT$T$C$F$GT$$u20$as$u20$core..ops..try_trait..FromResidual$LT$core..result..Result$LT$core..convert..Infallible$C$E$GT$$GT$$GT$13from_residual17h9158714dd91209ccE', symObjAddr: 0x103C, symBinAddr: 0x49E48, symSize: 0x2C }
  - { offset: 0xCE049, size: 0x8, addend: 0x0, symName: '__ZN153_$LT$core..result..Result$LT$T$C$F$GT$$u20$as$u20$core..ops..try_trait..FromResidual$LT$core..result..Result$LT$core..convert..Infallible$C$E$GT$$GT$$GT$13from_residual17h9420b85cc598fbe9E', symObjAddr: 0x1068, symBinAddr: 0x49E74, symSize: 0x48 }
  - { offset: 0xCE0CE, size: 0x8, addend: 0x0, symName: '__ZN153_$LT$core..result..Result$LT$T$C$F$GT$$u20$as$u20$core..ops..try_trait..FromResidual$LT$core..result..Result$LT$core..convert..Infallible$C$E$GT$$GT$$GT$13from_residual17h955bc41ea9952094E', symObjAddr: 0x10B0, symBinAddr: 0x49EBC, symSize: 0x6C }
  - { offset: 0xCE154, size: 0x8, addend: 0x0, symName: '__ZN153_$LT$core..result..Result$LT$T$C$F$GT$$u20$as$u20$core..ops..try_trait..FromResidual$LT$core..result..Result$LT$core..convert..Infallible$C$E$GT$$GT$$GT$13from_residual17h9b69f80c76656208E', symObjAddr: 0x111C, symBinAddr: 0x49F28, symSize: 0x24 }
  - { offset: 0xCE1BB, size: 0x8, addend: 0x0, symName: '__ZN153_$LT$core..result..Result$LT$T$C$F$GT$$u20$as$u20$core..ops..try_trait..FromResidual$LT$core..result..Result$LT$core..convert..Infallible$C$E$GT$$GT$$GT$13from_residual17h9cb812e7929bbdb7E', symObjAddr: 0x1148, symBinAddr: 0x49F4C, symSize: 0x4C }
  - { offset: 0xCE222, size: 0x8, addend: 0x0, symName: '__ZN153_$LT$core..result..Result$LT$T$C$F$GT$$u20$as$u20$core..ops..try_trait..FromResidual$LT$core..result..Result$LT$core..convert..Infallible$C$E$GT$$GT$$GT$13from_residual17ha132c225d4d459bfE', symObjAddr: 0x1194, symBinAddr: 0x49F98, symSize: 0x64 }
  - { offset: 0xCE28A, size: 0x8, addend: 0x0, symName: '__ZN153_$LT$core..result..Result$LT$T$C$F$GT$$u20$as$u20$core..ops..try_trait..FromResidual$LT$core..result..Result$LT$core..convert..Infallible$C$E$GT$$GT$$GT$13from_residual17ha5cf60585f165662E', symObjAddr: 0x11F8, symBinAddr: 0x49FFC, symSize: 0x6C }
  - { offset: 0xCE310, size: 0x8, addend: 0x0, symName: '__ZN153_$LT$core..result..Result$LT$T$C$F$GT$$u20$as$u20$core..ops..try_trait..FromResidual$LT$core..result..Result$LT$core..convert..Infallible$C$E$GT$$GT$$GT$13from_residual17ha9c214b997f6c1f3E', symObjAddr: 0x1264, symBinAddr: 0x4A068, symSize: 0x6C }
  - { offset: 0xCE396, size: 0x8, addend: 0x0, symName: '__ZN153_$LT$core..result..Result$LT$T$C$F$GT$$u20$as$u20$core..ops..try_trait..FromResidual$LT$core..result..Result$LT$core..convert..Infallible$C$E$GT$$GT$$GT$13from_residual17habdf5b1f845a597fE', symObjAddr: 0x12D0, symBinAddr: 0x4A0D4, symSize: 0x48 }
  - { offset: 0xCE41B, size: 0x8, addend: 0x0, symName: '__ZN153_$LT$core..result..Result$LT$T$C$F$GT$$u20$as$u20$core..ops..try_trait..FromResidual$LT$core..result..Result$LT$core..convert..Infallible$C$E$GT$$GT$$GT$13from_residual17hacd083a87f839cacE', symObjAddr: 0x1318, symBinAddr: 0x4A11C, symSize: 0x54 }
  - { offset: 0xCE483, size: 0x8, addend: 0x0, symName: '__ZN153_$LT$core..result..Result$LT$T$C$F$GT$$u20$as$u20$core..ops..try_trait..FromResidual$LT$core..result..Result$LT$core..convert..Infallible$C$E$GT$$GT$$GT$13from_residual17hb012d0aeba6475a9E', symObjAddr: 0x136C, symBinAddr: 0x4A170, symSize: 0x40 }
  - { offset: 0xCE508, size: 0x8, addend: 0x0, symName: '__ZN153_$LT$core..result..Result$LT$T$C$F$GT$$u20$as$u20$core..ops..try_trait..FromResidual$LT$core..result..Result$LT$core..convert..Infallible$C$E$GT$$GT$$GT$13from_residual17hb7a1031d3efd458eE', symObjAddr: 0x13AC, symBinAddr: 0x4A1B0, symSize: 0x4C }
  - { offset: 0xCE56F, size: 0x8, addend: 0x0, symName: '__ZN153_$LT$core..result..Result$LT$T$C$F$GT$$u20$as$u20$core..ops..try_trait..FromResidual$LT$core..result..Result$LT$core..convert..Infallible$C$E$GT$$GT$$GT$13from_residual17hb87eace29e53893dE', symObjAddr: 0x13F8, symBinAddr: 0x4A1FC, symSize: 0x64 }
  - { offset: 0xCE5D7, size: 0x8, addend: 0x0, symName: '__ZN153_$LT$core..result..Result$LT$T$C$F$GT$$u20$as$u20$core..ops..try_trait..FromResidual$LT$core..result..Result$LT$core..convert..Infallible$C$E$GT$$GT$$GT$13from_residual17hbb0a6a2e3a5c804fE', symObjAddr: 0x145C, symBinAddr: 0x4A260, symSize: 0x44 }
  - { offset: 0xCE63E, size: 0x8, addend: 0x0, symName: '__ZN153_$LT$core..result..Result$LT$T$C$F$GT$$u20$as$u20$core..ops..try_trait..FromResidual$LT$core..result..Result$LT$core..convert..Infallible$C$E$GT$$GT$$GT$13from_residual17hbc87a61f1c4bfdadE', symObjAddr: 0x14A0, symBinAddr: 0x4A2A4, symSize: 0x5C }
  - { offset: 0xCE6C4, size: 0x8, addend: 0x0, symName: '__ZN153_$LT$core..result..Result$LT$T$C$F$GT$$u20$as$u20$core..ops..try_trait..FromResidual$LT$core..result..Result$LT$core..convert..Infallible$C$E$GT$$GT$$GT$13from_residual17hc39ff2b2b78b9f6cE', symObjAddr: 0x14FC, symBinAddr: 0x4A300, symSize: 0x40 }
  - { offset: 0xCE749, size: 0x8, addend: 0x0, symName: '__ZN153_$LT$core..result..Result$LT$T$C$F$GT$$u20$as$u20$core..ops..try_trait..FromResidual$LT$core..result..Result$LT$core..convert..Infallible$C$E$GT$$GT$$GT$13from_residual17hca1922d7da380fbbE', symObjAddr: 0x153C, symBinAddr: 0x4A340, symSize: 0x30 }
  - { offset: 0xCE7B0, size: 0x8, addend: 0x0, symName: '__ZN153_$LT$core..result..Result$LT$T$C$F$GT$$u20$as$u20$core..ops..try_trait..FromResidual$LT$core..result..Result$LT$core..convert..Infallible$C$E$GT$$GT$$GT$13from_residual17hcb6e4b362a41e8e7E', symObjAddr: 0x156C, symBinAddr: 0x4A370, symSize: 0x64 }
  - { offset: 0xCE818, size: 0x8, addend: 0x0, symName: '__ZN153_$LT$core..result..Result$LT$T$C$F$GT$$u20$as$u20$core..ops..try_trait..FromResidual$LT$core..result..Result$LT$core..convert..Infallible$C$E$GT$$GT$$GT$13from_residual17hcdc1886bdf8b3d12E', symObjAddr: 0x15D0, symBinAddr: 0x4A3D4, symSize: 0x6C }
  - { offset: 0xCE89E, size: 0x8, addend: 0x0, symName: '__ZN153_$LT$core..result..Result$LT$T$C$F$GT$$u20$as$u20$core..ops..try_trait..FromResidual$LT$core..result..Result$LT$core..convert..Infallible$C$E$GT$$GT$$GT$13from_residual17hcdef1777aaa99244E', symObjAddr: 0x163C, symBinAddr: 0x4A440, symSize: 0x48 }
  - { offset: 0xCE923, size: 0x8, addend: 0x0, symName: '__ZN153_$LT$core..result..Result$LT$T$C$F$GT$$u20$as$u20$core..ops..try_trait..FromResidual$LT$core..result..Result$LT$core..convert..Infallible$C$E$GT$$GT$$GT$13from_residual17hcdf38207a26a5e38E', symObjAddr: 0x1684, symBinAddr: 0x4A488, symSize: 0x48 }
  - { offset: 0xCE98A, size: 0x8, addend: 0x0, symName: '__ZN153_$LT$core..result..Result$LT$T$C$F$GT$$u20$as$u20$core..ops..try_trait..FromResidual$LT$core..result..Result$LT$core..convert..Infallible$C$E$GT$$GT$$GT$13from_residual17hcf4dc587dbc58aefE', symObjAddr: 0x16CC, symBinAddr: 0x4A4D0, symSize: 0x64 }
  - { offset: 0xCE9F2, size: 0x8, addend: 0x0, symName: '__ZN153_$LT$core..result..Result$LT$T$C$F$GT$$u20$as$u20$core..ops..try_trait..FromResidual$LT$core..result..Result$LT$core..convert..Infallible$C$E$GT$$GT$$GT$13from_residual17hd829fd68b36d42b0E', symObjAddr: 0x1730, symBinAddr: 0x4A534, symSize: 0x64 }
  - { offset: 0xCEA5A, size: 0x8, addend: 0x0, symName: '__ZN153_$LT$core..result..Result$LT$T$C$F$GT$$u20$as$u20$core..ops..try_trait..FromResidual$LT$core..result..Result$LT$core..convert..Infallible$C$E$GT$$GT$$GT$13from_residual17hdbe18c64faa243edE', symObjAddr: 0x1794, symBinAddr: 0x4A598, symSize: 0x6C }
  - { offset: 0xCEAE0, size: 0x8, addend: 0x0, symName: '__ZN153_$LT$core..result..Result$LT$T$C$F$GT$$u20$as$u20$core..ops..try_trait..FromResidual$LT$core..result..Result$LT$core..convert..Infallible$C$E$GT$$GT$$GT$13from_residual17hdc1a9dd136d3458fE', symObjAddr: 0x1800, symBinAddr: 0x4A604, symSize: 0x6C }
  - { offset: 0xCEB66, size: 0x8, addend: 0x0, symName: '__ZN153_$LT$core..result..Result$LT$T$C$F$GT$$u20$as$u20$core..ops..try_trait..FromResidual$LT$core..result..Result$LT$core..convert..Infallible$C$E$GT$$GT$$GT$13from_residual17hdc76a0539812a9f4E', symObjAddr: 0x186C, symBinAddr: 0x4A670, symSize: 0x40 }
  - { offset: 0xCEBEB, size: 0x8, addend: 0x0, symName: '__ZN153_$LT$core..result..Result$LT$T$C$F$GT$$u20$as$u20$core..ops..try_trait..FromResidual$LT$core..result..Result$LT$core..convert..Infallible$C$E$GT$$GT$$GT$13from_residual17hdf1a2dcb175c9fdaE', symObjAddr: 0x18AC, symBinAddr: 0x4A6B0, symSize: 0x48 }
  - { offset: 0xCEC70, size: 0x8, addend: 0x0, symName: '__ZN153_$LT$core..result..Result$LT$T$C$F$GT$$u20$as$u20$core..ops..try_trait..FromResidual$LT$core..result..Result$LT$core..convert..Infallible$C$E$GT$$GT$$GT$13from_residual17he14395508b6ecb31E', symObjAddr: 0x18F4, symBinAddr: 0x4A6F8, symSize: 0x6C }
  - { offset: 0xCECF6, size: 0x8, addend: 0x0, symName: '__ZN153_$LT$core..result..Result$LT$T$C$F$GT$$u20$as$u20$core..ops..try_trait..FromResidual$LT$core..result..Result$LT$core..convert..Infallible$C$E$GT$$GT$$GT$13from_residual17he349494d4e47c05bE', symObjAddr: 0x1960, symBinAddr: 0x4A764, symSize: 0x40 }
  - { offset: 0xCED7B, size: 0x8, addend: 0x0, symName: '__ZN153_$LT$core..result..Result$LT$T$C$F$GT$$u20$as$u20$core..ops..try_trait..FromResidual$LT$core..result..Result$LT$core..convert..Infallible$C$E$GT$$GT$$GT$13from_residual17he47dd9fa569e62daE', symObjAddr: 0x19A0, symBinAddr: 0x4A7A4, symSize: 0x48 }
  - { offset: 0xCEDE2, size: 0x8, addend: 0x0, symName: '__ZN153_$LT$core..result..Result$LT$T$C$F$GT$$u20$as$u20$core..ops..try_trait..FromResidual$LT$core..result..Result$LT$core..convert..Infallible$C$E$GT$$GT$$GT$13from_residual17he6aae7042de2f1d7E', symObjAddr: 0x19E8, symBinAddr: 0x4A7EC, symSize: 0x6C }
  - { offset: 0xCEE68, size: 0x8, addend: 0x0, symName: '__ZN153_$LT$core..result..Result$LT$T$C$F$GT$$u20$as$u20$core..ops..try_trait..FromResidual$LT$core..result..Result$LT$core..convert..Infallible$C$E$GT$$GT$$GT$13from_residual17he8e82b95a730939cE', symObjAddr: 0x1A54, symBinAddr: 0x4A858, symSize: 0x48 }
  - { offset: 0xCEEED, size: 0x8, addend: 0x0, symName: '__ZN153_$LT$core..result..Result$LT$T$C$F$GT$$u20$as$u20$core..ops..try_trait..FromResidual$LT$core..result..Result$LT$core..convert..Infallible$C$E$GT$$GT$$GT$13from_residual17hec037c11430ca06eE', symObjAddr: 0x1A9C, symBinAddr: 0x4A8A0, symSize: 0x24 }
  - { offset: 0xCEF54, size: 0x8, addend: 0x0, symName: '__ZN153_$LT$core..result..Result$LT$T$C$F$GT$$u20$as$u20$core..ops..try_trait..FromResidual$LT$core..result..Result$LT$core..convert..Infallible$C$E$GT$$GT$$GT$13from_residual17hee04ad06444413ebE', symObjAddr: 0x1AC0, symBinAddr: 0x4A8C4, symSize: 0x48 }
  - { offset: 0xCEFD9, size: 0x8, addend: 0x0, symName: '__ZN153_$LT$core..result..Result$LT$T$C$F$GT$$u20$as$u20$core..ops..try_trait..FromResidual$LT$core..result..Result$LT$core..convert..Infallible$C$E$GT$$GT$$GT$13from_residual17hf4047eb57f1ef732E', symObjAddr: 0x1B08, symBinAddr: 0x4A90C, symSize: 0x48 }
  - { offset: 0xCF05E, size: 0x8, addend: 0x0, symName: '__ZN153_$LT$core..result..Result$LT$T$C$F$GT$$u20$as$u20$core..ops..try_trait..FromResidual$LT$core..result..Result$LT$core..convert..Infallible$C$E$GT$$GT$$GT$13from_residual17hf8d1d849bb385eddE', symObjAddr: 0x1B50, symBinAddr: 0x4A954, symSize: 0x48 }
  - { offset: 0xCF0C5, size: 0x8, addend: 0x0, symName: '__ZN153_$LT$core..result..Result$LT$T$C$F$GT$$u20$as$u20$core..ops..try_trait..FromResidual$LT$core..result..Result$LT$core..convert..Infallible$C$E$GT$$GT$$GT$13from_residual17hfde45374a7bd6829E', symObjAddr: 0x1B98, symBinAddr: 0x4A99C, symSize: 0x4C }
  - { offset: 0xD36C7, size: 0x8, addend: 0x0, symName: '__ZN79_$LT$core..result..Result$LT$T$C$E$GT$$u20$as$u20$core..ops..try_trait..Try$GT$11from_output17h216f59b29a2a4b7fE', symObjAddr: 0x5504, symBinAddr: 0x4E308, symSize: 0x2C }
  - { offset: 0xD3707, size: 0x8, addend: 0x0, symName: '__ZN79_$LT$core..result..Result$LT$T$C$E$GT$$u20$as$u20$core..ops..try_trait..Try$GT$11from_output17h7635505005d7bc4dE', symObjAddr: 0x5530, symBinAddr: 0x4E334, symSize: 0x18 }
  - { offset: 0xD3747, size: 0x8, addend: 0x0, symName: '__ZN79_$LT$core..result..Result$LT$T$C$E$GT$$u20$as$u20$core..ops..try_trait..Try$GT$11from_output17hb3133d21f7d63b04E', symObjAddr: 0x5548, symBinAddr: 0x4E34C, symSize: 0x2C }
  - { offset: 0xD3787, size: 0x8, addend: 0x0, symName: '__ZN79_$LT$core..result..Result$LT$T$C$E$GT$$u20$as$u20$core..ops..try_trait..Try$GT$6branch17h05f3d93bc1db4aabE', symObjAddr: 0x5574, symBinAddr: 0x4E378, symSize: 0x90 }
  - { offset: 0xD3805, size: 0x8, addend: 0x0, symName: '__ZN79_$LT$core..result..Result$LT$T$C$E$GT$$u20$as$u20$core..ops..try_trait..Try$GT$6branch17h07ad5489d25ef314E', symObjAddr: 0x5604, symBinAddr: 0x4E408, symSize: 0x64 }
  - { offset: 0xD3882, size: 0x8, addend: 0x0, symName: '__ZN79_$LT$core..result..Result$LT$T$C$E$GT$$u20$as$u20$core..ops..try_trait..Try$GT$6branch17h07beb7e9a4c780feE', symObjAddr: 0x5668, symBinAddr: 0x4E46C, symSize: 0xB0 }
  - { offset: 0xD38FF, size: 0x8, addend: 0x0, symName: '__ZN79_$LT$core..result..Result$LT$T$C$E$GT$$u20$as$u20$core..ops..try_trait..Try$GT$6branch17h0dc580f94daea5c5E', symObjAddr: 0x5718, symBinAddr: 0x4E51C, symSize: 0xB4 }
  - { offset: 0xD397D, size: 0x8, addend: 0x0, symName: '__ZN79_$LT$core..result..Result$LT$T$C$E$GT$$u20$as$u20$core..ops..try_trait..Try$GT$6branch17h0ebe8879e4864fe1E', symObjAddr: 0x57CC, symBinAddr: 0x4E5D0, symSize: 0xB4 }
  - { offset: 0xD39FB, size: 0x8, addend: 0x0, symName: '__ZN79_$LT$core..result..Result$LT$T$C$E$GT$$u20$as$u20$core..ops..try_trait..Try$GT$6branch17h0f1f186d3ba692ecE', symObjAddr: 0x5880, symBinAddr: 0x4E684, symSize: 0xB4 }
  - { offset: 0xD3A79, size: 0x8, addend: 0x0, symName: '__ZN79_$LT$core..result..Result$LT$T$C$E$GT$$u20$as$u20$core..ops..try_trait..Try$GT$6branch17h117e3120f4da6c93E', symObjAddr: 0x5934, symBinAddr: 0x4E738, symSize: 0x84 }
  - { offset: 0xD3AF6, size: 0x8, addend: 0x0, symName: '__ZN79_$LT$core..result..Result$LT$T$C$E$GT$$u20$as$u20$core..ops..try_trait..Try$GT$6branch17h1c8cf7501b27a307E', symObjAddr: 0x59B8, symBinAddr: 0x4E7BC, symSize: 0x9C }
  - { offset: 0xD3B74, size: 0x8, addend: 0x0, symName: '__ZN79_$LT$core..result..Result$LT$T$C$E$GT$$u20$as$u20$core..ops..try_trait..Try$GT$6branch17h1fe9c073ca4661feE', symObjAddr: 0x5A54, symBinAddr: 0x4E858, symSize: 0x3C }
  - { offset: 0xD3BD2, size: 0x8, addend: 0x0, symName: '__ZN79_$LT$core..result..Result$LT$T$C$E$GT$$u20$as$u20$core..ops..try_trait..Try$GT$6branch17h21e84c38972fc2d0E', symObjAddr: 0x5A90, symBinAddr: 0x4E894, symSize: 0xC4 }
  - { offset: 0xD3C51, size: 0x8, addend: 0x0, symName: '__ZN79_$LT$core..result..Result$LT$T$C$E$GT$$u20$as$u20$core..ops..try_trait..Try$GT$6branch17h267390e6d4c1738bE', symObjAddr: 0x5B54, symBinAddr: 0x4E958, symSize: 0x88 }
  - { offset: 0xD3CCF, size: 0x8, addend: 0x0, symName: '__ZN79_$LT$core..result..Result$LT$T$C$E$GT$$u20$as$u20$core..ops..try_trait..Try$GT$6branch17h270e87e222061d08E', symObjAddr: 0x5BDC, symBinAddr: 0x4E9E0, symSize: 0xCC }
  - { offset: 0xD3D4D, size: 0x8, addend: 0x0, symName: '__ZN79_$LT$core..result..Result$LT$T$C$E$GT$$u20$as$u20$core..ops..try_trait..Try$GT$6branch17h2b4395f8eb9b0ac5E', symObjAddr: 0x5CA8, symBinAddr: 0x4EAAC, symSize: 0x9C }
  - { offset: 0xD3DCA, size: 0x8, addend: 0x0, symName: '__ZN79_$LT$core..result..Result$LT$T$C$E$GT$$u20$as$u20$core..ops..try_trait..Try$GT$6branch17h2bf4da04b28afaccE', symObjAddr: 0x5D44, symBinAddr: 0x4EB48, symSize: 0xCC }
  - { offset: 0xD3E48, size: 0x8, addend: 0x0, symName: '__ZN79_$LT$core..result..Result$LT$T$C$E$GT$$u20$as$u20$core..ops..try_trait..Try$GT$6branch17h2f569fdc878af4e6E', symObjAddr: 0x5E10, symBinAddr: 0x4EC14, symSize: 0x94 }
  - { offset: 0xD3EC5, size: 0x8, addend: 0x0, symName: '__ZN79_$LT$core..result..Result$LT$T$C$E$GT$$u20$as$u20$core..ops..try_trait..Try$GT$6branch17h34ff452f0b49344dE', symObjAddr: 0x5EA4, symBinAddr: 0x4ECA8, symSize: 0xB0 }
  - { offset: 0xD3F42, size: 0x8, addend: 0x0, symName: '__ZN79_$LT$core..result..Result$LT$T$C$E$GT$$u20$as$u20$core..ops..try_trait..Try$GT$6branch17h3563abfd2e141e01E', symObjAddr: 0x5F54, symBinAddr: 0x4ED58, symSize: 0x9C }
  - { offset: 0xD3FC0, size: 0x8, addend: 0x0, symName: '__ZN79_$LT$core..result..Result$LT$T$C$E$GT$$u20$as$u20$core..ops..try_trait..Try$GT$6branch17h3ca0c11aaf4a07e0E', symObjAddr: 0x5FF0, symBinAddr: 0x4EDF4, symSize: 0xAC }
  - { offset: 0xD403D, size: 0x8, addend: 0x0, symName: '__ZN79_$LT$core..result..Result$LT$T$C$E$GT$$u20$as$u20$core..ops..try_trait..Try$GT$6branch17h3cbca6286bd37c9eE', symObjAddr: 0x609C, symBinAddr: 0x4EEA0, symSize: 0x90 }
  - { offset: 0xD40BA, size: 0x8, addend: 0x0, symName: '__ZN79_$LT$core..result..Result$LT$T$C$E$GT$$u20$as$u20$core..ops..try_trait..Try$GT$6branch17h44a764c70deeee76E', symObjAddr: 0x612C, symBinAddr: 0x4EF30, symSize: 0xB0 }
  - { offset: 0xD4137, size: 0x8, addend: 0x0, symName: '__ZN79_$LT$core..result..Result$LT$T$C$E$GT$$u20$as$u20$core..ops..try_trait..Try$GT$6branch17h467254873fac1823E', symObjAddr: 0x61DC, symBinAddr: 0x4EFE0, symSize: 0x5C }
  - { offset: 0xD41B3, size: 0x8, addend: 0x0, symName: '__ZN79_$LT$core..result..Result$LT$T$C$E$GT$$u20$as$u20$core..ops..try_trait..Try$GT$6branch17h51e34461af2ad0d2E', symObjAddr: 0x6238, symBinAddr: 0x4F03C, symSize: 0xB0 }
  - { offset: 0xD4230, size: 0x8, addend: 0x0, symName: '__ZN79_$LT$core..result..Result$LT$T$C$E$GT$$u20$as$u20$core..ops..try_trait..Try$GT$6branch17h53a3cfcaf970f848E', symObjAddr: 0x62E8, symBinAddr: 0x4F0EC, symSize: 0xB4 }
  - { offset: 0xD42AE, size: 0x8, addend: 0x0, symName: '__ZN79_$LT$core..result..Result$LT$T$C$E$GT$$u20$as$u20$core..ops..try_trait..Try$GT$6branch17h560da56b5a3c454bE', symObjAddr: 0x639C, symBinAddr: 0x4F1A0, symSize: 0x5C }
  - { offset: 0xD432A, size: 0x8, addend: 0x0, symName: '__ZN79_$LT$core..result..Result$LT$T$C$E$GT$$u20$as$u20$core..ops..try_trait..Try$GT$6branch17h575514547a543dd9E', symObjAddr: 0x63F8, symBinAddr: 0x4F1FC, symSize: 0xAC }
  - { offset: 0xD43A7, size: 0x8, addend: 0x0, symName: '__ZN79_$LT$core..result..Result$LT$T$C$E$GT$$u20$as$u20$core..ops..try_trait..Try$GT$6branch17h5833e1657994afeaE', symObjAddr: 0x64A4, symBinAddr: 0x4F2A8, symSize: 0x6C }
  - { offset: 0xD4424, size: 0x8, addend: 0x0, symName: '__ZN79_$LT$core..result..Result$LT$T$C$E$GT$$u20$as$u20$core..ops..try_trait..Try$GT$6branch17h5b793927d7a616e3E', symObjAddr: 0x6510, symBinAddr: 0x4F314, symSize: 0x8C }
  - { offset: 0xD44A1, size: 0x8, addend: 0x0, symName: '__ZN79_$LT$core..result..Result$LT$T$C$E$GT$$u20$as$u20$core..ops..try_trait..Try$GT$6branch17h5f8407804a2b6826E', symObjAddr: 0x659C, symBinAddr: 0x4F3A0, symSize: 0xCC }
  - { offset: 0xD451F, size: 0x8, addend: 0x0, symName: '__ZN79_$LT$core..result..Result$LT$T$C$E$GT$$u20$as$u20$core..ops..try_trait..Try$GT$6branch17h5fba0c94d0a6f21fE', symObjAddr: 0x6668, symBinAddr: 0x4F46C, symSize: 0x94 }
  - { offset: 0xD459C, size: 0x8, addend: 0x0, symName: '__ZN79_$LT$core..result..Result$LT$T$C$E$GT$$u20$as$u20$core..ops..try_trait..Try$GT$6branch17h5fd067180a431b56E', symObjAddr: 0x66FC, symBinAddr: 0x4F500, symSize: 0xA0 }
  - { offset: 0xD4619, size: 0x8, addend: 0x0, symName: '__ZN79_$LT$core..result..Result$LT$T$C$E$GT$$u20$as$u20$core..ops..try_trait..Try$GT$6branch17h604a37da470e2267E', symObjAddr: 0x679C, symBinAddr: 0x4F5A0, symSize: 0xB4 }
  - { offset: 0xD4697, size: 0x8, addend: 0x0, symName: '__ZN79_$LT$core..result..Result$LT$T$C$E$GT$$u20$as$u20$core..ops..try_trait..Try$GT$6branch17h61faabc443a82ce2E', symObjAddr: 0x6850, symBinAddr: 0x4F654, symSize: 0xAC }
  - { offset: 0xD4714, size: 0x8, addend: 0x0, symName: '__ZN79_$LT$core..result..Result$LT$T$C$E$GT$$u20$as$u20$core..ops..try_trait..Try$GT$6branch17h61fd3f434c3836cfE', symObjAddr: 0x68FC, symBinAddr: 0x4F700, symSize: 0x74 }
  - { offset: 0xD4791, size: 0x8, addend: 0x0, symName: '__ZN79_$LT$core..result..Result$LT$T$C$E$GT$$u20$as$u20$core..ops..try_trait..Try$GT$6branch17h62f4d973d348245fE', symObjAddr: 0x6970, symBinAddr: 0x4F774, symSize: 0xB0 }
  - { offset: 0xD480E, size: 0x8, addend: 0x0, symName: '__ZN79_$LT$core..result..Result$LT$T$C$E$GT$$u20$as$u20$core..ops..try_trait..Try$GT$6branch17h672a7650d674ee6dE', symObjAddr: 0x6A20, symBinAddr: 0x4F824, symSize: 0xCC }
  - { offset: 0xD488C, size: 0x8, addend: 0x0, symName: '__ZN79_$LT$core..result..Result$LT$T$C$E$GT$$u20$as$u20$core..ops..try_trait..Try$GT$6branch17h67d5758e8184c73dE', symObjAddr: 0x6AEC, symBinAddr: 0x4F8F0, symSize: 0x88 }
  - { offset: 0xD490A, size: 0x8, addend: 0x0, symName: '__ZN79_$LT$core..result..Result$LT$T$C$E$GT$$u20$as$u20$core..ops..try_trait..Try$GT$6branch17h684267f9f871c6e8E', symObjAddr: 0x6B74, symBinAddr: 0x4F978, symSize: 0xC0 }
  - { offset: 0xD4988, size: 0x8, addend: 0x0, symName: '__ZN79_$LT$core..result..Result$LT$T$C$E$GT$$u20$as$u20$core..ops..try_trait..Try$GT$6branch17h6a25efc0410e9d4aE', symObjAddr: 0x6C34, symBinAddr: 0x4FA38, symSize: 0xA8 }
  - { offset: 0xD4A05, size: 0x8, addend: 0x0, symName: '__ZN79_$LT$core..result..Result$LT$T$C$E$GT$$u20$as$u20$core..ops..try_trait..Try$GT$6branch17h6ab2fb7404f62386E', symObjAddr: 0x6CDC, symBinAddr: 0x4FAE0, symSize: 0xC0 }
  - { offset: 0xD4A83, size: 0x8, addend: 0x0, symName: '__ZN79_$LT$core..result..Result$LT$T$C$E$GT$$u20$as$u20$core..ops..try_trait..Try$GT$6branch17h6b31812736e740a1E', symObjAddr: 0x6D9C, symBinAddr: 0x4FBA0, symSize: 0xA0 }
  - { offset: 0xD4B00, size: 0x8, addend: 0x0, symName: '__ZN79_$LT$core..result..Result$LT$T$C$E$GT$$u20$as$u20$core..ops..try_trait..Try$GT$6branch17h6cc581d402ae81e9E', symObjAddr: 0x6E3C, symBinAddr: 0x4FC40, symSize: 0xAC }
  - { offset: 0xD4B7D, size: 0x8, addend: 0x0, symName: '__ZN79_$LT$core..result..Result$LT$T$C$E$GT$$u20$as$u20$core..ops..try_trait..Try$GT$6branch17h72ae4322cd15a69cE', symObjAddr: 0x6EE8, symBinAddr: 0x4FCEC, symSize: 0x44 }
  - { offset: 0xD4BF9, size: 0x8, addend: 0x0, symName: '__ZN79_$LT$core..result..Result$LT$T$C$E$GT$$u20$as$u20$core..ops..try_trait..Try$GT$6branch17h73711345bae6fc82E', symObjAddr: 0x6F2C, symBinAddr: 0x4FD30, symSize: 0xD8 }
  - { offset: 0xD4C77, size: 0x8, addend: 0x0, symName: '__ZN79_$LT$core..result..Result$LT$T$C$E$GT$$u20$as$u20$core..ops..try_trait..Try$GT$6branch17h760777d181f40b71E', symObjAddr: 0x7004, symBinAddr: 0x4FE08, symSize: 0xA0 }
  - { offset: 0xD4CF4, size: 0x8, addend: 0x0, symName: '__ZN79_$LT$core..result..Result$LT$T$C$E$GT$$u20$as$u20$core..ops..try_trait..Try$GT$6branch17h79ee83fd161e9385E', symObjAddr: 0x70A4, symBinAddr: 0x4FEA8, symSize: 0xA8 }
  - { offset: 0xD4D71, size: 0x8, addend: 0x0, symName: '__ZN79_$LT$core..result..Result$LT$T$C$E$GT$$u20$as$u20$core..ops..try_trait..Try$GT$6branch17h7a318c2ba461276fE', symObjAddr: 0x714C, symBinAddr: 0x4FF50, symSize: 0x88 }
  - { offset: 0xD4DEF, size: 0x8, addend: 0x0, symName: '__ZN79_$LT$core..result..Result$LT$T$C$E$GT$$u20$as$u20$core..ops..try_trait..Try$GT$6branch17h934f288204370d0eE', symObjAddr: 0x71D4, symBinAddr: 0x4FFD8, symSize: 0xAC }
  - { offset: 0xD4E6C, size: 0x8, addend: 0x0, symName: '__ZN79_$LT$core..result..Result$LT$T$C$E$GT$$u20$as$u20$core..ops..try_trait..Try$GT$6branch17h952d2f534602d0beE', symObjAddr: 0x7280, symBinAddr: 0x50084, symSize: 0xA8 }
  - { offset: 0xD4EE9, size: 0x8, addend: 0x0, symName: '__ZN79_$LT$core..result..Result$LT$T$C$E$GT$$u20$as$u20$core..ops..try_trait..Try$GT$6branch17h963c0339a13d7ec8E', symObjAddr: 0x7328, symBinAddr: 0x5012C, symSize: 0xA0 }
  - { offset: 0xD4F66, size: 0x8, addend: 0x0, symName: '__ZN79_$LT$core..result..Result$LT$T$C$E$GT$$u20$as$u20$core..ops..try_trait..Try$GT$6branch17h973753e788fe928fE', symObjAddr: 0x73C8, symBinAddr: 0x501CC, symSize: 0x9C }
  - { offset: 0xD4FE4, size: 0x8, addend: 0x0, symName: '__ZN79_$LT$core..result..Result$LT$T$C$E$GT$$u20$as$u20$core..ops..try_trait..Try$GT$6branch17h99ffae922aa82920E', symObjAddr: 0x7464, symBinAddr: 0x50268, symSize: 0x3C }
  - { offset: 0xD5042, size: 0x8, addend: 0x0, symName: '__ZN79_$LT$core..result..Result$LT$T$C$E$GT$$u20$as$u20$core..ops..try_trait..Try$GT$6branch17ha24d4107171fe04aE', symObjAddr: 0x74A0, symBinAddr: 0x502A4, symSize: 0xA0 }
  - { offset: 0xD50BF, size: 0x8, addend: 0x0, symName: '__ZN79_$LT$core..result..Result$LT$T$C$E$GT$$u20$as$u20$core..ops..try_trait..Try$GT$6branch17ha2f3ae9a165e4e93E', symObjAddr: 0x7540, symBinAddr: 0x50344, symSize: 0x98 }
  - { offset: 0xD513C, size: 0x8, addend: 0x0, symName: '__ZN79_$LT$core..result..Result$LT$T$C$E$GT$$u20$as$u20$core..ops..try_trait..Try$GT$6branch17ha45ac3662cada8b1E', symObjAddr: 0x75D8, symBinAddr: 0x503DC, symSize: 0xB8 }
  - { offset: 0xD51BA, size: 0x8, addend: 0x0, symName: '__ZN79_$LT$core..result..Result$LT$T$C$E$GT$$u20$as$u20$core..ops..try_trait..Try$GT$6branch17haecb27186d40e92aE', symObjAddr: 0x7690, symBinAddr: 0x50494, symSize: 0x5C }
  - { offset: 0xD5236, size: 0x8, addend: 0x0, symName: '__ZN79_$LT$core..result..Result$LT$T$C$E$GT$$u20$as$u20$core..ops..try_trait..Try$GT$6branch17hb4ea6b449fa81012E', symObjAddr: 0x76EC, symBinAddr: 0x504F0, symSize: 0x98 }
  - { offset: 0xD52B3, size: 0x8, addend: 0x0, symName: '__ZN79_$LT$core..result..Result$LT$T$C$E$GT$$u20$as$u20$core..ops..try_trait..Try$GT$6branch17hb560e1219b65a37bE', symObjAddr: 0x7784, symBinAddr: 0x50588, symSize: 0xA0 }
  - { offset: 0xD5330, size: 0x8, addend: 0x0, symName: '__ZN79_$LT$core..result..Result$LT$T$C$E$GT$$u20$as$u20$core..ops..try_trait..Try$GT$6branch17hb63a4a0ba11e4bffE', symObjAddr: 0x7824, symBinAddr: 0x50628, symSize: 0xC0 }
  - { offset: 0xD53AE, size: 0x8, addend: 0x0, symName: '__ZN79_$LT$core..result..Result$LT$T$C$E$GT$$u20$as$u20$core..ops..try_trait..Try$GT$6branch17hb664443e19baa136E', symObjAddr: 0x78E4, symBinAddr: 0x506E8, symSize: 0xA0 }
  - { offset: 0xD542B, size: 0x8, addend: 0x0, symName: '__ZN79_$LT$core..result..Result$LT$T$C$E$GT$$u20$as$u20$core..ops..try_trait..Try$GT$6branch17hb8704517ad1a7f3cE', symObjAddr: 0x7984, symBinAddr: 0x50788, symSize: 0x94 }
  - { offset: 0xD54A8, size: 0x8, addend: 0x0, symName: '__ZN79_$LT$core..result..Result$LT$T$C$E$GT$$u20$as$u20$core..ops..try_trait..Try$GT$6branch17hbc74a7ab7b8d4813E', symObjAddr: 0x7A18, symBinAddr: 0x5081C, symSize: 0xCC }
  - { offset: 0xD5526, size: 0x8, addend: 0x0, symName: '__ZN79_$LT$core..result..Result$LT$T$C$E$GT$$u20$as$u20$core..ops..try_trait..Try$GT$6branch17hc1a57146f6657327E', symObjAddr: 0x7AE4, symBinAddr: 0x508E8, symSize: 0x9C }
  - { offset: 0xD55A3, size: 0x8, addend: 0x0, symName: '__ZN79_$LT$core..result..Result$LT$T$C$E$GT$$u20$as$u20$core..ops..try_trait..Try$GT$6branch17hc2b31cd37a251304E', symObjAddr: 0x7B80, symBinAddr: 0x50984, symSize: 0xB8 }
  - { offset: 0xD5621, size: 0x8, addend: 0x0, symName: '__ZN79_$LT$core..result..Result$LT$T$C$E$GT$$u20$as$u20$core..ops..try_trait..Try$GT$6branch17hc2c2cbe730625069E', symObjAddr: 0x7C38, symBinAddr: 0x50A3C, symSize: 0xA4 }
  - { offset: 0xD569E, size: 0x8, addend: 0x0, symName: '__ZN79_$LT$core..result..Result$LT$T$C$E$GT$$u20$as$u20$core..ops..try_trait..Try$GT$6branch17hc2d4ebacec142fbcE', symObjAddr: 0x7CDC, symBinAddr: 0x50AE0, symSize: 0xA0 }
  - { offset: 0xD571B, size: 0x8, addend: 0x0, symName: '__ZN79_$LT$core..result..Result$LT$T$C$E$GT$$u20$as$u20$core..ops..try_trait..Try$GT$6branch17hc3d513451888cbc3E', symObjAddr: 0x7D7C, symBinAddr: 0x50B80, symSize: 0x94 }
  - { offset: 0xD5798, size: 0x8, addend: 0x0, symName: '__ZN79_$LT$core..result..Result$LT$T$C$E$GT$$u20$as$u20$core..ops..try_trait..Try$GT$6branch17hc4fb2cf8a65c785aE', symObjAddr: 0x7E10, symBinAddr: 0x50C14, symSize: 0xA0 }
  - { offset: 0xD5815, size: 0x8, addend: 0x0, symName: '__ZN79_$LT$core..result..Result$LT$T$C$E$GT$$u20$as$u20$core..ops..try_trait..Try$GT$6branch17hc62fa312b8fd408aE', symObjAddr: 0x7EB0, symBinAddr: 0x50CB4, symSize: 0xA0 }
  - { offset: 0xD5892, size: 0x8, addend: 0x0, symName: '__ZN79_$LT$core..result..Result$LT$T$C$E$GT$$u20$as$u20$core..ops..try_trait..Try$GT$6branch17hc825ae3044e18b73E', symObjAddr: 0x7F50, symBinAddr: 0x50D54, symSize: 0xA0 }
  - { offset: 0xD590F, size: 0x8, addend: 0x0, symName: '__ZN79_$LT$core..result..Result$LT$T$C$E$GT$$u20$as$u20$core..ops..try_trait..Try$GT$6branch17hcc773838f1b5f0dcE', symObjAddr: 0x7FF0, symBinAddr: 0x50DF4, symSize: 0x90 }
  - { offset: 0xD598D, size: 0x8, addend: 0x0, symName: '__ZN79_$LT$core..result..Result$LT$T$C$E$GT$$u20$as$u20$core..ops..try_trait..Try$GT$6branch17hce905574fa87482fE', symObjAddr: 0x8080, symBinAddr: 0x50E84, symSize: 0x84 }
  - { offset: 0xD5A0A, size: 0x8, addend: 0x0, symName: '__ZN79_$LT$core..result..Result$LT$T$C$E$GT$$u20$as$u20$core..ops..try_trait..Try$GT$6branch17hd3724314bf599d24E', symObjAddr: 0x8104, symBinAddr: 0x50F08, symSize: 0x94 }
  - { offset: 0xD5A87, size: 0x8, addend: 0x0, symName: '__ZN79_$LT$core..result..Result$LT$T$C$E$GT$$u20$as$u20$core..ops..try_trait..Try$GT$6branch17hd554339731393448E', symObjAddr: 0x8198, symBinAddr: 0x50F9C, symSize: 0xB0 }
  - { offset: 0xD5B04, size: 0x8, addend: 0x0, symName: '__ZN79_$LT$core..result..Result$LT$T$C$E$GT$$u20$as$u20$core..ops..try_trait..Try$GT$6branch17hd7d0b648174a3c33E', symObjAddr: 0x8248, symBinAddr: 0x5104C, symSize: 0xA0 }
  - { offset: 0xD5B81, size: 0x8, addend: 0x0, symName: '__ZN79_$LT$core..result..Result$LT$T$C$E$GT$$u20$as$u20$core..ops..try_trait..Try$GT$6branch17hd9ed94558a85561dE', symObjAddr: 0x82E8, symBinAddr: 0x510EC, symSize: 0xB4 }
  - { offset: 0xD5BFF, size: 0x8, addend: 0x0, symName: '__ZN79_$LT$core..result..Result$LT$T$C$E$GT$$u20$as$u20$core..ops..try_trait..Try$GT$6branch17hdc183b5d482ee520E', symObjAddr: 0x839C, symBinAddr: 0x511A0, symSize: 0x8C }
  - { offset: 0xD5C7C, size: 0x8, addend: 0x0, symName: '__ZN79_$LT$core..result..Result$LT$T$C$E$GT$$u20$as$u20$core..ops..try_trait..Try$GT$6branch17hdd99220af859b4adE', symObjAddr: 0x8428, symBinAddr: 0x5122C, symSize: 0x9C }
  - { offset: 0xD5CFA, size: 0x8, addend: 0x0, symName: '__ZN79_$LT$core..result..Result$LT$T$C$E$GT$$u20$as$u20$core..ops..try_trait..Try$GT$6branch17hddfdfa59f67baa6bE', symObjAddr: 0x84C4, symBinAddr: 0x512C8, symSize: 0xCC }
  - { offset: 0xD5D78, size: 0x8, addend: 0x0, symName: '__ZN79_$LT$core..result..Result$LT$T$C$E$GT$$u20$as$u20$core..ops..try_trait..Try$GT$6branch17hde3cd3982a9cd832E', symObjAddr: 0x8590, symBinAddr: 0x51394, symSize: 0xC0 }
  - { offset: 0xD5DF6, size: 0x8, addend: 0x0, symName: '__ZN79_$LT$core..result..Result$LT$T$C$E$GT$$u20$as$u20$core..ops..try_trait..Try$GT$6branch17hdeb149d1407f02f9E', symObjAddr: 0x8650, symBinAddr: 0x51454, symSize: 0xB4 }
  - { offset: 0xD5E74, size: 0x8, addend: 0x0, symName: '__ZN79_$LT$core..result..Result$LT$T$C$E$GT$$u20$as$u20$core..ops..try_trait..Try$GT$6branch17he4ac80aec4b2fd8dE', symObjAddr: 0x8704, symBinAddr: 0x51508, symSize: 0xA0 }
  - { offset: 0xD5EF1, size: 0x8, addend: 0x0, symName: '__ZN79_$LT$core..result..Result$LT$T$C$E$GT$$u20$as$u20$core..ops..try_trait..Try$GT$6branch17he9f575bfc3dab690E', symObjAddr: 0x87A4, symBinAddr: 0x515A8, symSize: 0xC0 }
  - { offset: 0xD5F6F, size: 0x8, addend: 0x0, symName: '__ZN79_$LT$core..result..Result$LT$T$C$E$GT$$u20$as$u20$core..ops..try_trait..Try$GT$6branch17hea2bd2f09cacbadeE', symObjAddr: 0x8864, symBinAddr: 0x51668, symSize: 0x74 }
  - { offset: 0xD5FEC, size: 0x8, addend: 0x0, symName: '__ZN79_$LT$core..result..Result$LT$T$C$E$GT$$u20$as$u20$core..ops..try_trait..Try$GT$6branch17heb5a3fbdb4cbd407E', symObjAddr: 0x88D8, symBinAddr: 0x516DC, symSize: 0xCC }
  - { offset: 0xD606A, size: 0x8, addend: 0x0, symName: '__ZN79_$LT$core..result..Result$LT$T$C$E$GT$$u20$as$u20$core..ops..try_trait..Try$GT$6branch17hf024ffba3cd3533fE', symObjAddr: 0x89A4, symBinAddr: 0x517A8, symSize: 0x9C }
  - { offset: 0xD60E8, size: 0x8, addend: 0x0, symName: '__ZN79_$LT$core..result..Result$LT$T$C$E$GT$$u20$as$u20$core..ops..try_trait..Try$GT$6branch17hf138836cbaad0db2E', symObjAddr: 0x8A40, symBinAddr: 0x51844, symSize: 0x88 }
  - { offset: 0xD6166, size: 0x8, addend: 0x0, symName: '__ZN79_$LT$core..result..Result$LT$T$C$E$GT$$u20$as$u20$core..ops..try_trait..Try$GT$6branch17hf2ca7830efb2243cE', symObjAddr: 0x8AC8, symBinAddr: 0x518CC, symSize: 0xB8 }
  - { offset: 0xD61E4, size: 0x8, addend: 0x0, symName: '__ZN79_$LT$core..result..Result$LT$T$C$E$GT$$u20$as$u20$core..ops..try_trait..Try$GT$6branch17hf3399300b59c908eE', symObjAddr: 0x8B80, symBinAddr: 0x51984, symSize: 0xC4 }
  - { offset: 0xD6262, size: 0x8, addend: 0x0, symName: '__ZN79_$LT$core..result..Result$LT$T$C$E$GT$$u20$as$u20$core..ops..try_trait..Try$GT$6branch17hf3b71b991519ae0dE', symObjAddr: 0x8C44, symBinAddr: 0x51A48, symSize: 0x5C }
  - { offset: 0xD62DE, size: 0x8, addend: 0x0, symName: '__ZN79_$LT$core..result..Result$LT$T$C$E$GT$$u20$as$u20$core..ops..try_trait..Try$GT$6branch17hf47f968ec1d5767cE', symObjAddr: 0x8CA0, symBinAddr: 0x51AA4, symSize: 0xB8 }
  - { offset: 0xD635C, size: 0x8, addend: 0x0, symName: '__ZN79_$LT$core..result..Result$LT$T$C$E$GT$$u20$as$u20$core..ops..try_trait..Try$GT$6branch17hf7afb64a960e49c6E', symObjAddr: 0x8D58, symBinAddr: 0x51B5C, symSize: 0xCC }
  - { offset: 0xD63DA, size: 0x8, addend: 0x0, symName: '__ZN79_$LT$core..result..Result$LT$T$C$E$GT$$u20$as$u20$core..ops..try_trait..Try$GT$6branch17hf8dcd3bfdcb1fb53E', symObjAddr: 0x8E24, symBinAddr: 0x51C28, symSize: 0x9C }
  - { offset: 0xE2D1A, size: 0x8, addend: 0x0, symName: '__ZN4core6result19Result$LT$T$C$E$GT$14unwrap_or_else17h945ddb842503392cE', symObjAddr: 0x1BE4, symBinAddr: 0x4A9E8, symSize: 0x90 }
  - { offset: 0xE2DA4, size: 0x8, addend: 0x0, symName: '__ZN4core6result19Result$LT$T$C$E$GT$14unwrap_or_else17h9aaa8455ec1a9e0aE', symObjAddr: 0x1C74, symBinAddr: 0x4AA78, symSize: 0x90 }
  - { offset: 0xE2E5C, size: 0x8, addend: 0x0, symName: '__ZN4core6result19Result$LT$T$C$E$GT$14unwrap_or_else17hd138dafb83fb1b71E', symObjAddr: 0x1D04, symBinAddr: 0x4AB08, symSize: 0x88 }
  - { offset: 0xE2EE6, size: 0x8, addend: 0x0, symName: '__ZN4core6result19Result$LT$T$C$E$GT$14unwrap_or_else17hfe5305d05e5fa7adE', symObjAddr: 0x1D8C, symBinAddr: 0x4AB90, symSize: 0x90 }
  - { offset: 0xE2F70, size: 0x8, addend: 0x0, symName: '__ZN4core6result19Result$LT$T$C$E$GT$17unwrap_or_default17h1ca204e30d8c5ec0E', symObjAddr: 0x1E1C, symBinAddr: 0x4AC20, symSize: 0xE8 }
  - { offset: 0xE2FC4, size: 0x8, addend: 0x0, symName: '__ZN4core6result19Result$LT$T$C$E$GT$17unwrap_or_default17hdf87a7db50fcbf89E', symObjAddr: 0x1F04, symBinAddr: 0x4AD08, symSize: 0xB4 }
  - { offset: 0xE3018, size: 0x8, addend: 0x0, symName: '__ZN4core6result19Result$LT$T$C$E$GT$2ok17h2a9a111a6df2bb87E', symObjAddr: 0x1FB8, symBinAddr: 0x4ADBC, symSize: 0x94 }
  - { offset: 0xE3089, size: 0x8, addend: 0x0, symName: '__ZN4core6result19Result$LT$T$C$E$GT$2ok17h3401d13770e1cee9E', symObjAddr: 0x204C, symBinAddr: 0x4AE50, symSize: 0x88 }
  - { offset: 0xE30DD, size: 0x8, addend: 0x0, symName: '__ZN4core6result19Result$LT$T$C$E$GT$2ok17h8d7024ea53590e50E', symObjAddr: 0x20D4, symBinAddr: 0x4AED8, symSize: 0x68 }
  - { offset: 0xE313E, size: 0x8, addend: 0x0, symName: '__ZN4core6result19Result$LT$T$C$E$GT$2ok17hc1ea9561160d1ff7E', symObjAddr: 0x213C, symBinAddr: 0x4AF40, symSize: 0xC4 }
  - { offset: 0xE3192, size: 0x8, addend: 0x0, symName: '__ZN4core6result19Result$LT$T$C$E$GT$2ok17hea88a21dc431d1d1E', symObjAddr: 0x2200, symBinAddr: 0x4B004, symSize: 0xB0 }
  - { offset: 0xE3250, size: 0x8, addend: 0x0, symName: '__ZN4core6result19Result$LT$T$C$E$GT$3map17h01aab2395a12f6d6E', symObjAddr: 0x22B0, symBinAddr: 0x4B0B4, symSize: 0x94 }
  - { offset: 0xE32E3, size: 0x8, addend: 0x0, symName: '__ZN4core6result19Result$LT$T$C$E$GT$3map17h02e29704cc78796aE', symObjAddr: 0x2344, symBinAddr: 0x4B148, symSize: 0x90 }
  - { offset: 0xE338E, size: 0x8, addend: 0x0, symName: '__ZN4core6result19Result$LT$T$C$E$GT$3map17h0af231075f48a001E', symObjAddr: 0x23D4, symBinAddr: 0x4B1D8, symSize: 0x94 }
  - { offset: 0xE3421, size: 0x8, addend: 0x0, symName: '__ZN4core6result19Result$LT$T$C$E$GT$3map17h0edc6e7fff6f0485E', symObjAddr: 0x2468, symBinAddr: 0x4B26C, symSize: 0x90 }
  - { offset: 0xE34B4, size: 0x8, addend: 0x0, symName: '__ZN4core6result19Result$LT$T$C$E$GT$3map17h13adaee5a43d3bdeE', symObjAddr: 0x24F8, symBinAddr: 0x4B2FC, symSize: 0xC0 }
  - { offset: 0xE38FF, size: 0x8, addend: 0x0, symName: '__ZN4core6result19Result$LT$T$C$E$GT$3map17h16da570173e1ad14E', symObjAddr: 0x25B8, symBinAddr: 0x4B3BC, symSize: 0x90 }
  - { offset: 0xE3992, size: 0x8, addend: 0x0, symName: '__ZN4core6result19Result$LT$T$C$E$GT$3map17h1bc363569033c039E', symObjAddr: 0x2648, symBinAddr: 0x4B44C, symSize: 0xE8 }
  - { offset: 0xE3A32, size: 0x8, addend: 0x0, symName: '__ZN4core6result19Result$LT$T$C$E$GT$3map17h29ebdca5332a9e9aE', symObjAddr: 0x2730, symBinAddr: 0x4B534, symSize: 0x54 }
  - { offset: 0xE3AD1, size: 0x8, addend: 0x0, symName: '__ZN4core6result19Result$LT$T$C$E$GT$3map17h2a244c6d9725ad60E', symObjAddr: 0x2784, symBinAddr: 0x4B588, symSize: 0x54 }
  - { offset: 0xE3B7B, size: 0x8, addend: 0x0, symName: '__ZN4core6result19Result$LT$T$C$E$GT$3map17h38a37c270da5f991E', symObjAddr: 0x27D8, symBinAddr: 0x4B5DC, symSize: 0x9C }
  - { offset: 0xE3C26, size: 0x8, addend: 0x0, symName: '__ZN4core6result19Result$LT$T$C$E$GT$3map17h462796088499c7fdE', symObjAddr: 0x2874, symBinAddr: 0x4B678, symSize: 0x38 }
  - { offset: 0xE3CB8, size: 0x8, addend: 0x0, symName: '__ZN4core6result19Result$LT$T$C$E$GT$3map17h47ab5c4a303016d4E', symObjAddr: 0x28AC, symBinAddr: 0x4B6B0, symSize: 0x7C }
  - { offset: 0xE3D4B, size: 0x8, addend: 0x0, symName: '__ZN4core6result19Result$LT$T$C$E$GT$3map17h4a00a495b7f0a0baE', symObjAddr: 0x2928, symBinAddr: 0x4B72C, symSize: 0x54 }
  - { offset: 0xE3DF5, size: 0x8, addend: 0x0, symName: '__ZN4core6result19Result$LT$T$C$E$GT$3map17h4d9d8af88f74fa56E', symObjAddr: 0x297C, symBinAddr: 0x4B780, symSize: 0xDC }
  - { offset: 0xE3EAF, size: 0x8, addend: 0x0, symName: '__ZN4core6result19Result$LT$T$C$E$GT$3map17h55523159a0eb8524E', symObjAddr: 0x2A58, symBinAddr: 0x4B85C, symSize: 0x88 }
  - { offset: 0xE3F5A, size: 0x8, addend: 0x0, symName: '__ZN4core6result19Result$LT$T$C$E$GT$3map17h68697bef95dcb05dE', symObjAddr: 0x2AE0, symBinAddr: 0x4B8E4, symSize: 0x90 }
  - { offset: 0xE4005, size: 0x8, addend: 0x0, symName: '__ZN4core6result19Result$LT$T$C$E$GT$3map17h6f0697e7f6fac6e0E', symObjAddr: 0x2B70, symBinAddr: 0x4B974, symSize: 0x90 }
  - { offset: 0xE4098, size: 0x8, addend: 0x0, symName: '__ZN4core6result19Result$LT$T$C$E$GT$3map17h87735c1fd5423b01E', symObjAddr: 0x2C00, symBinAddr: 0x4BA04, symSize: 0x54 }
  - { offset: 0xE4142, size: 0x8, addend: 0x0, symName: '__ZN4core6result19Result$LT$T$C$E$GT$3map17h92449e3977c9ffe2E', symObjAddr: 0x2C54, symBinAddr: 0x4BA58, symSize: 0x38 }
  - { offset: 0xE41B6, size: 0x8, addend: 0x0, symName: '__ZN4core6result19Result$LT$T$C$E$GT$3map17h95b774a3350adcabE', symObjAddr: 0x2C8C, symBinAddr: 0x4BA90, symSize: 0xE0 }
  - { offset: 0xE4249, size: 0x8, addend: 0x0, symName: '__ZN4core6result19Result$LT$T$C$E$GT$3map17h96da1c9868ecbd1bE', symObjAddr: 0x2D6C, symBinAddr: 0x4BB70, symSize: 0x90 }
  - { offset: 0xE42F4, size: 0x8, addend: 0x0, symName: '__ZN4core6result19Result$LT$T$C$E$GT$3map17h99b5795ef4c2e8f9E', symObjAddr: 0x2DFC, symBinAddr: 0x4BC00, symSize: 0x90 }
  - { offset: 0xE439F, size: 0x8, addend: 0x0, symName: '__ZN4core6result19Result$LT$T$C$E$GT$3map17hbbacb320750fe239E', symObjAddr: 0x2E8C, symBinAddr: 0x4BC90, symSize: 0x90 }
  - { offset: 0xE4432, size: 0x8, addend: 0x0, symName: '__ZN4core6result19Result$LT$T$C$E$GT$3map17hd1dcf5b27e5eaa6cE', symObjAddr: 0x2F1C, symBinAddr: 0x4BD20, symSize: 0x90 }
  - { offset: 0xE44C5, size: 0x8, addend: 0x0, symName: '__ZN4core6result19Result$LT$T$C$E$GT$3map17hd92be1f4acc40ed2E', symObjAddr: 0x2FAC, symBinAddr: 0x4BDB0, symSize: 0x54 }
  - { offset: 0xE456F, size: 0x8, addend: 0x0, symName: '__ZN4core6result19Result$LT$T$C$E$GT$3map17he1fac43e76ea84caE', symObjAddr: 0x3000, symBinAddr: 0x4BE04, symSize: 0x38 }
  - { offset: 0xE45E3, size: 0x8, addend: 0x0, symName: '__ZN4core6result19Result$LT$T$C$E$GT$3map17hf62f1825f9315058E', symObjAddr: 0x3038, symBinAddr: 0x4BE3C, symSize: 0x7C }
  - { offset: 0xE4683, size: 0x8, addend: 0x0, symName: '__ZN4core6result19Result$LT$T$C$E$GT$3map17hfab1af25fb42338aE', symObjAddr: 0x30B4, symBinAddr: 0x4BEB8, symSize: 0x54 }
  - { offset: 0xE4722, size: 0x8, addend: 0x0, symName: '__ZN4core6result19Result$LT$T$C$E$GT$5is_ok17h796bdd837f4e6d31E', symObjAddr: 0x3108, symBinAddr: 0x4BF0C, symSize: 0x20 }
  - { offset: 0xE4764, size: 0x8, addend: 0x0, symName: '__ZN4core6result19Result$LT$T$C$E$GT$5is_ok17h937a6bbc7ea9324dE', symObjAddr: 0x3128, symBinAddr: 0x4BF2C, symSize: 0x20 }
  - { offset: 0xE494B, size: 0x8, addend: 0x0, symName: '__ZN4core6result19Result$LT$T$C$E$GT$6expect17h7f793cd0b5c728abE', symObjAddr: 0x3148, symBinAddr: 0x4BF4C, symSize: 0xB0 }
  - { offset: 0xE49E0, size: 0x8, addend: 0x0, symName: '__ZN4core6result19Result$LT$T$C$E$GT$6is_err17hc76c494be1709056E', symObjAddr: 0x31F8, symBinAddr: 0x4BFFC, symSize: 0x20 }
  - { offset: 0xE4A33, size: 0x8, addend: 0x0, symName: '__ZN4core6result19Result$LT$T$C$E$GT$7map_err17h03568d9eec305a8dE', symObjAddr: 0x3218, symBinAddr: 0x4C01C, symSize: 0x78 }
  - { offset: 0xE4ADD, size: 0x8, addend: 0x0, symName: '__ZN4core6result19Result$LT$T$C$E$GT$7map_err17h0810bcffc7f9ee80E', symObjAddr: 0x3290, symBinAddr: 0x4C094, symSize: 0x74 }
  - { offset: 0xE4B70, size: 0x8, addend: 0x0, symName: '__ZN4core6result19Result$LT$T$C$E$GT$7map_err17h184e16047e47135cE', symObjAddr: 0x3304, symBinAddr: 0x4C108, symSize: 0xD0 }
  - { offset: 0xE4C1C, size: 0x8, addend: 0x0, symName: '__ZN4core6result19Result$LT$T$C$E$GT$7map_err17h2a60a6ea26531849E', symObjAddr: 0x33D4, symBinAddr: 0x4C1D8, symSize: 0x48 }
  - { offset: 0xE4CAA, size: 0x8, addend: 0x0, symName: '__ZN4core6result19Result$LT$T$C$E$GT$7map_err17h2b8f10e05eefdc0bE', symObjAddr: 0x341C, symBinAddr: 0x4C220, symSize: 0x84 }
  - { offset: 0xE4D3C, size: 0x8, addend: 0x0, symName: '__ZN4core6result19Result$LT$T$C$E$GT$7map_err17h2c3b2f16e1c587d6E', symObjAddr: 0x34A0, symBinAddr: 0x4C2A4, symSize: 0x20 }
  - { offset: 0xE4DB3, size: 0x8, addend: 0x0, symName: '__ZN4core6result19Result$LT$T$C$E$GT$7map_err17h2fcec08bfdea5ef5E', symObjAddr: 0x34C0, symBinAddr: 0x4C2C4, symSize: 0x64 }
  - { offset: 0xE4E52, size: 0x8, addend: 0x0, symName: '__ZN4core6result19Result$LT$T$C$E$GT$7map_err17h39c98e75aae3602dE', symObjAddr: 0x3524, symBinAddr: 0x4C328, symSize: 0xDC }
  - { offset: 0xE4EE7, size: 0x8, addend: 0x0, symName: '__ZN4core6result19Result$LT$T$C$E$GT$7map_err17h3b35c81872fdccccE', symObjAddr: 0x3600, symBinAddr: 0x4C404, symSize: 0x48 }
  - { offset: 0xE4F5D, size: 0x8, addend: 0x0, symName: '__ZN4core6result19Result$LT$T$C$E$GT$7map_err17h3fff3daf2322722bE', symObjAddr: 0x3648, symBinAddr: 0x4C44C, symSize: 0x40 }
  - { offset: 0xE4FD3, size: 0x8, addend: 0x0, symName: '__ZN4core6result19Result$LT$T$C$E$GT$7map_err17h4a2d245607b3d6a9E', symObjAddr: 0x3688, symBinAddr: 0x4C48C, symSize: 0x30 }
  - { offset: 0xE5049, size: 0x8, addend: 0x0, symName: '__ZN4core6result19Result$LT$T$C$E$GT$7map_err17h4aa3dfbace7ddd22E', symObjAddr: 0x36B8, symBinAddr: 0x4C4BC, symSize: 0xD8 }
  - { offset: 0xE50F5, size: 0x8, addend: 0x0, symName: '__ZN4core6result19Result$LT$T$C$E$GT$7map_err17h562225c8ccea54b1E', symObjAddr: 0x3790, symBinAddr: 0x4C594, symSize: 0x84 }
  - { offset: 0xE5187, size: 0x8, addend: 0x0, symName: '__ZN4core6result19Result$LT$T$C$E$GT$7map_err17h6252a0d0be7ffc51E', symObjAddr: 0x3814, symBinAddr: 0x4C618, symSize: 0xDC }
  - { offset: 0xE5234, size: 0x8, addend: 0x0, symName: '__ZN4core6result19Result$LT$T$C$E$GT$7map_err17h66ac3701f633e65aE', symObjAddr: 0x38F0, symBinAddr: 0x4C6F4, symSize: 0xCC }
  - { offset: 0xE52C8, size: 0x8, addend: 0x0, symName: '__ZN4core6result19Result$LT$T$C$E$GT$7map_err17h69e0c431103f0644E', symObjAddr: 0x39BC, symBinAddr: 0x4C7C0, symSize: 0xA0 }
  - { offset: 0xE535B, size: 0x8, addend: 0x0, symName: '__ZN4core6result19Result$LT$T$C$E$GT$7map_err17h71d872ebdd986489E', symObjAddr: 0x3A5C, symBinAddr: 0x4C860, symSize: 0x30 }
  - { offset: 0xE53D1, size: 0x8, addend: 0x0, symName: '__ZN4core6result19Result$LT$T$C$E$GT$7map_err17h76b1d0ac5849d0f8E', symObjAddr: 0x3A8C, symBinAddr: 0x4C890, symSize: 0xAC }
  - { offset: 0xE5464, size: 0x8, addend: 0x0, symName: '__ZN4core6result19Result$LT$T$C$E$GT$7map_err17h7c3b5994837d1894E', symObjAddr: 0x3B38, symBinAddr: 0x4C93C, symSize: 0x48 }
  - { offset: 0xE54DA, size: 0x8, addend: 0x0, symName: '__ZN4core6result19Result$LT$T$C$E$GT$7map_err17h83547ca55e91a513E', symObjAddr: 0x3B80, symBinAddr: 0x4C984, symSize: 0xDC }
  - { offset: 0xE558D, size: 0x8, addend: 0x0, symName: '__ZN4core6result19Result$LT$T$C$E$GT$7map_err17h965ca1628d075350E', symObjAddr: 0x3C5C, symBinAddr: 0x4CA60, symSize: 0x48 }
  - { offset: 0xE5603, size: 0x8, addend: 0x0, symName: '__ZN4core6result19Result$LT$T$C$E$GT$7map_err17h97502cd7d84a338eE', symObjAddr: 0x3CA4, symBinAddr: 0x4CAA8, symSize: 0x100 }
  - { offset: 0xE56B0, size: 0x8, addend: 0x0, symName: '__ZN4core6result19Result$LT$T$C$E$GT$7map_err17h98ae23552776d62dE', symObjAddr: 0x3DA4, symBinAddr: 0x4CBA8, symSize: 0xB0 }
  - { offset: 0xE5743, size: 0x8, addend: 0x0, symName: '__ZN4core6result19Result$LT$T$C$E$GT$7map_err17h9afbbe13be9d3af8E', symObjAddr: 0x3E54, symBinAddr: 0x4CC58, symSize: 0x30 }
  - { offset: 0xE57B9, size: 0x8, addend: 0x0, symName: '__ZN4core6result19Result$LT$T$C$E$GT$7map_err17h9f1c7baa51d520c0E', symObjAddr: 0x3E84, symBinAddr: 0x4CC88, symSize: 0x30 }
  - { offset: 0xE582F, size: 0x8, addend: 0x0, symName: '__ZN4core6result19Result$LT$T$C$E$GT$7map_err17ha0533791fe7e5823E', symObjAddr: 0x3EB4, symBinAddr: 0x4CCB8, symSize: 0x3C }
  - { offset: 0xE58A5, size: 0x8, addend: 0x0, symName: '__ZN4core6result19Result$LT$T$C$E$GT$7map_err17ha0b66919480085bdE', symObjAddr: 0x3EF0, symBinAddr: 0x4CCF4, symSize: 0x30 }
  - { offset: 0xE591B, size: 0x8, addend: 0x0, symName: '__ZN4core6result19Result$LT$T$C$E$GT$7map_err17ha557c6c2ae5ae858E', symObjAddr: 0x3F20, symBinAddr: 0x4CD24, symSize: 0xB8 }
  - { offset: 0xE59AE, size: 0x8, addend: 0x0, symName: '__ZN4core6result19Result$LT$T$C$E$GT$7map_err17hab14c62a84e1abaeE', symObjAddr: 0x3FD8, symBinAddr: 0x4CDDC, symSize: 0xB8 }
  - { offset: 0xE5A68, size: 0x8, addend: 0x0, symName: '__ZN4core6result19Result$LT$T$C$E$GT$7map_err17hc4bb909d16b7addcE', symObjAddr: 0x4090, symBinAddr: 0x4CE94, symSize: 0xDC }
  - { offset: 0xE5AFD, size: 0x8, addend: 0x0, symName: '__ZN4core6result19Result$LT$T$C$E$GT$7map_err17hc6b40fca270f3c78E', symObjAddr: 0x416C, symBinAddr: 0x4CF70, symSize: 0xDC }
  - { offset: 0xE5B92, size: 0x8, addend: 0x0, symName: '__ZN4core6result19Result$LT$T$C$E$GT$7map_err17hce4446b9a4bd92c1E', symObjAddr: 0x4248, symBinAddr: 0x4D04C, symSize: 0xB8 }
  - { offset: 0xE5C25, size: 0x8, addend: 0x0, symName: '__ZN4core6result19Result$LT$T$C$E$GT$7map_err17hce52e4cb143a0d9bE', symObjAddr: 0x4300, symBinAddr: 0x4D104, symSize: 0xD0 }
  - { offset: 0xE5CB9, size: 0x8, addend: 0x0, symName: '__ZN4core6result19Result$LT$T$C$E$GT$7map_err17hd4672a217d9b7a2aE', symObjAddr: 0x43D0, symBinAddr: 0x4D1D4, symSize: 0xDC }
  - { offset: 0xE5D5B, size: 0x8, addend: 0x0, symName: '__ZN4core6result19Result$LT$T$C$E$GT$7map_err17hd4686b5ddc179f0bE', symObjAddr: 0x44AC, symBinAddr: 0x4D2B0, symSize: 0xB0 }
  - { offset: 0xE5E0C, size: 0x8, addend: 0x0, symName: '__ZN4core6result19Result$LT$T$C$E$GT$7map_err17hd5c7f72acfb3ac35E', symObjAddr: 0x455C, symBinAddr: 0x4D360, symSize: 0x48 }
  - { offset: 0xE5E82, size: 0x8, addend: 0x0, symName: '__ZN4core6result19Result$LT$T$C$E$GT$7map_err17hd6325bae22adfb0fE', symObjAddr: 0x45A4, symBinAddr: 0x4D3A8, symSize: 0x84 }
  - { offset: 0xE5F14, size: 0x8, addend: 0x0, symName: '__ZN4core6result19Result$LT$T$C$E$GT$7map_err17hd8ca8885f11dc201E', symObjAddr: 0x4628, symBinAddr: 0x4D42C, symSize: 0x64 }
  - { offset: 0xE5FA6, size: 0x8, addend: 0x0, symName: '__ZN4core6result19Result$LT$T$C$E$GT$7map_err17hde609a2d1b231499E', symObjAddr: 0x468C, symBinAddr: 0x4D490, symSize: 0x84 }
  - { offset: 0xE6038, size: 0x8, addend: 0x0, symName: '__ZN4core6result19Result$LT$T$C$E$GT$7map_err17hdff44f6c5fd087adE', symObjAddr: 0x4710, symBinAddr: 0x4D514, symSize: 0x78 }
  - { offset: 0xE60CA, size: 0x8, addend: 0x0, symName: '__ZN4core6result19Result$LT$T$C$E$GT$7map_err17he2bc2bd97ab3038dE', symObjAddr: 0x4788, symBinAddr: 0x4D58C, symSize: 0xDC }
  - { offset: 0xE615F, size: 0x8, addend: 0x0, symName: '__ZN4core6result19Result$LT$T$C$E$GT$7map_err17hedad3eb223947903E', symObjAddr: 0x4864, symBinAddr: 0x4D668, symSize: 0xDC }
  - { offset: 0xE61F4, size: 0x8, addend: 0x0, symName: '__ZN4core6result19Result$LT$T$C$E$GT$7map_err17hfced761a9fad2611E', symObjAddr: 0x4940, symBinAddr: 0x4D744, symSize: 0xF4 }
  - { offset: 0xE6288, size: 0x8, addend: 0x0, symName: '__ZN4core6result19Result$LT$T$C$E$GT$8and_then17h286f23be6255f569E', symObjAddr: 0x4A34, symBinAddr: 0x4D838, symSize: 0xB0 }
  - { offset: 0xE631B, size: 0x8, addend: 0x0, symName: '__ZN4core6result19Result$LT$T$C$E$GT$8and_then17h29db7f2f51ee4f2cE', symObjAddr: 0x4AE4, symBinAddr: 0x4D8E8, symSize: 0xB0 }
  - { offset: 0xE63AE, size: 0x8, addend: 0x0, symName: '__ZN4core6result19Result$LT$T$C$E$GT$8and_then17h3260e76f8dbc1135E', symObjAddr: 0x4B94, symBinAddr: 0x4D998, symSize: 0x94 }
  - { offset: 0xE6441, size: 0x8, addend: 0x0, symName: '__ZN4core6result19Result$LT$T$C$E$GT$8and_then17h379ae9fb27cd7e17E', symObjAddr: 0x4C28, symBinAddr: 0x4DA2C, symSize: 0x94 }
  - { offset: 0xE64D4, size: 0x8, addend: 0x0, symName: '__ZN4core6result19Result$LT$T$C$E$GT$8and_then17h3fadab7985a54e44E', symObjAddr: 0x4CBC, symBinAddr: 0x4DAC0, symSize: 0xB0 }
  - { offset: 0xE6567, size: 0x8, addend: 0x0, symName: '__ZN4core6result19Result$LT$T$C$E$GT$8and_then17h707f1ca329a02e3eE', symObjAddr: 0x4D6C, symBinAddr: 0x4DB70, symSize: 0x88 }
  - { offset: 0xE65FA, size: 0x8, addend: 0x0, symName: '__ZN4core6result19Result$LT$T$C$E$GT$8and_then17h801d46b958a49ffaE', symObjAddr: 0x4DF4, symBinAddr: 0x4DBF8, symSize: 0xB0 }
  - { offset: 0xE668D, size: 0x8, addend: 0x0, symName: '__ZN4core6result19Result$LT$T$C$E$GT$8and_then17h80b73cd0d8f597b6E', symObjAddr: 0x4EA4, symBinAddr: 0x4DCA8, symSize: 0x94 }
  - { offset: 0xE6720, size: 0x8, addend: 0x0, symName: '__ZN4core6result19Result$LT$T$C$E$GT$8and_then17h80ec6423a9b994daE', symObjAddr: 0x4F38, symBinAddr: 0x4DD3C, symSize: 0x9C }
  - { offset: 0xE67B3, size: 0x8, addend: 0x0, symName: '__ZN4core6result19Result$LT$T$C$E$GT$8and_then17hab335ba26c3f8669E', symObjAddr: 0x4FD4, symBinAddr: 0x4DDD8, symSize: 0xD4 }
  - { offset: 0xE6848, size: 0x8, addend: 0x0, symName: '__ZN4core6result19Result$LT$T$C$E$GT$8and_then17hb6a47d2daaf4ea8cE', symObjAddr: 0x50A8, symBinAddr: 0x4DEAC, symSize: 0x94 }
  - { offset: 0xE68DB, size: 0x8, addend: 0x0, symName: '__ZN4core6result19Result$LT$T$C$E$GT$8and_then17hd2a44e05e4339dc6E', symObjAddr: 0x513C, symBinAddr: 0x4DF40, symSize: 0xB0 }
  - { offset: 0xE69F6, size: 0x8, addend: 0x0, symName: '__ZN4core6result19Result$LT$T$C$E$GT$8and_then17he342c72e508df4a4E', symObjAddr: 0x51EC, symBinAddr: 0x4DFF0, symSize: 0xAC }
  - { offset: 0xE6A89, size: 0x8, addend: 0x0, symName: '__ZN4core6result19Result$LT$T$C$E$GT$8and_then17he34481e81026a4faE', symObjAddr: 0x5298, symBinAddr: 0x4E09C, symSize: 0xB0 }
  - { offset: 0xE6B29, size: 0x8, addend: 0x0, symName: '__ZN4core6result19Result$LT$T$C$E$GT$8and_then17he41a2635f7f2232aE', symObjAddr: 0x5348, symBinAddr: 0x4E14C, symSize: 0xAC }
  - { offset: 0xE6BBC, size: 0x8, addend: 0x0, symName: '__ZN4core6result19Result$LT$T$C$E$GT$8and_then17hea4b45fd6d0a2287E', symObjAddr: 0x53F4, symBinAddr: 0x4E1F8, symSize: 0xA0 }
  - { offset: 0xE6C4F, size: 0x8, addend: 0x0, symName: '__ZN4core6result19Result$LT$T$C$E$GT$9unwrap_or17h82431aedf9ae558cE', symObjAddr: 0x5494, symBinAddr: 0x4E298, symSize: 0x70 }
  - { offset: 0xE71D6, size: 0x8, addend: 0x0, symName: __ZN4core5slice6memchr6memchr17h35663124d6d905aaE, symObjAddr: 0x0, symBinAddr: 0x51CC4, symSize: 0x114 }
  - { offset: 0xE7227, size: 0x8, addend: 0x0, symName: __ZN4core5slice6memchr6memchr17h35663124d6d905aaE, symObjAddr: 0x0, symBinAddr: 0x51CC4, symSize: 0x114 }
  - { offset: 0xE7351, size: 0x8, addend: 0x0, symName: '__ZN4core7convert3num67_$LT$impl$u20$core..convert..TryFrom$LT$i64$GT$$u20$for$u20$u32$GT$8try_from17ha80e9f798891bd9aE', symObjAddr: 0x0, symBinAddr: 0x51DD8, symSize: 0x74 }
  - { offset: 0xE7372, size: 0x8, addend: 0x0, symName: '__ZN4core7convert3num67_$LT$impl$u20$core..convert..TryFrom$LT$i64$GT$$u20$for$u20$u32$GT$8try_from17ha80e9f798891bd9aE', symObjAddr: 0x0, symBinAddr: 0x51DD8, symSize: 0x74 }
  - { offset: 0xE74BA, size: 0x8, addend: 0x0, symName: __ZN4core4iter6traits8iterator8Iterator3map17h30028b0a9099da5aE, symObjAddr: 0x0, symBinAddr: 0x51E4C, symSize: 0x30 }
  - { offset: 0xE8A46, size: 0x8, addend: 0x0, symName: __ZN4core4iter8adapters3zip27TrustedRandomAccessNoCoerce4size17h16611bc4a5f38c56E, symObjAddr: 0x318, symBinAddr: 0x52164, symSize: 0x2C }
  - { offset: 0xE8D31, size: 0x8, addend: 0x0, symName: __ZN4core4iter6traits8iterator8Iterator3map17h30028b0a9099da5aE, symObjAddr: 0x0, symBinAddr: 0x51E4C, symSize: 0x30 }
  - { offset: 0xE8D9E, size: 0x8, addend: 0x0, symName: __ZN4core4iter6traits8iterator8Iterator3map17h8d13a458946ee7d2E, symObjAddr: 0x30, symBinAddr: 0x51E7C, symSize: 0x1C }
  - { offset: 0xE8DF6, size: 0x8, addend: 0x0, symName: __ZN4core4iter6traits8iterator8Iterator3map17haa16d955089cd3deE, symObjAddr: 0x4C, symBinAddr: 0x51E98, symSize: 0x1C }
  - { offset: 0xE8E4E, size: 0x8, addend: 0x0, symName: __ZN4core4iter6traits8iterator8Iterator3map17hd0e72873723b4553E, symObjAddr: 0x68, symBinAddr: 0x51EB4, symSize: 0x1C }
  - { offset: 0xE8EA6, size: 0x8, addend: 0x0, symName: __ZN4core4iter6traits8iterator8Iterator3map17he2e0c2a2237f849bE, symObjAddr: 0x84, symBinAddr: 0x51ED0, symSize: 0x1C }
  - { offset: 0xE8EFE, size: 0x8, addend: 0x0, symName: __ZN4core4iter6traits8iterator8Iterator3map17hfd5be4c2a3a7fa4eE, symObjAddr: 0xA0, symBinAddr: 0x51EEC, symSize: 0x30 }
  - { offset: 0xE8F6B, size: 0x8, addend: 0x0, symName: __ZN4core4iter6traits8iterator8Iterator3zip17h6be56190b5024976E, symObjAddr: 0xD0, symBinAddr: 0x51F1C, symSize: 0xCC }
  - { offset: 0xE8FE1, size: 0x8, addend: 0x0, symName: __ZN4core4iter6traits8iterator8Iterator4take17h44bc6bd78fae08a1E, symObjAddr: 0x19C, symBinAddr: 0x51FE8, symSize: 0x2C }
  - { offset: 0xE903C, size: 0x8, addend: 0x0, symName: __ZN4core4iter6traits8iterator8Iterator4take17h81f7b1053ee37c37E, symObjAddr: 0x1C8, symBinAddr: 0x52014, symSize: 0x2C }
  - { offset: 0xE9097, size: 0x8, addend: 0x0, symName: __ZN4core4iter6traits8iterator8Iterator4take17h910be6a5221c39e9E, symObjAddr: 0x1F4, symBinAddr: 0x52040, symSize: 0x2C }
  - { offset: 0xE90F2, size: 0x8, addend: 0x0, symName: __ZN4core4iter6traits8iterator8Iterator6copied17hb74a1a1855fdfee7E, symObjAddr: 0x220, symBinAddr: 0x5206C, symSize: 0x1C }
  - { offset: 0xE9132, size: 0x8, addend: 0x0, symName: __ZN4core4iter6traits8iterator8Iterator6filter17hdb7ca99d3e2555b9E, symObjAddr: 0x23C, symBinAddr: 0x52088, symSize: 0x30 }
  - { offset: 0xE9196, size: 0x8, addend: 0x0, symName: __ZN4core4iter6traits8iterator8Iterator8peekable17h8a11d4507bf151adE, symObjAddr: 0x26C, symBinAddr: 0x520B8, symSize: 0x34 }
  - { offset: 0xE91E2, size: 0x8, addend: 0x0, symName: __ZN4core4iter6traits8iterator8Iterator9enumerate17h6dc0479ff72ff668E, symObjAddr: 0x2A0, symBinAddr: 0x520EC, symSize: 0x28 }
  - { offset: 0xE922E, size: 0x8, addend: 0x0, symName: __ZN4core4iter6traits8iterator8Iterator9enumerate17h9ce403c9a9136c32E, symObjAddr: 0x2C8, symBinAddr: 0x52114, symSize: 0x28 }
  - { offset: 0xE927A, size: 0x8, addend: 0x0, symName: __ZN4core4iter6traits8iterator8Iterator9enumerate17hdb824f447ded7807E, symObjAddr: 0x2F0, symBinAddr: 0x5213C, symSize: 0x28 }
  - { offset: 0xE9363, size: 0x8, addend: 0x0, symName: '__ZN63_$LT$I$u20$as$u20$core..iter..traits..collect..IntoIterator$GT$9into_iter17h0cee3c9c6d7d61e9E', symObjAddr: 0x684, symBinAddr: 0x524D0, symSize: 0x1C }
  - { offset: 0xE939A, size: 0x8, addend: 0x0, symName: '__ZN63_$LT$I$u20$as$u20$core..iter..traits..collect..IntoIterator$GT$9into_iter17hec84ab6fe98c53abE', symObjAddr: 0x6A0, symBinAddr: 0x524EC, symSize: 0x18 }
  - { offset: 0xE983E, size: 0x8, addend: 0x0, symName: '__ZN91_$LT$core..slice..iter..Iter$LT$T$GT$$u20$as$u20$core..iter..traits..iterator..Iterator$GT$24__iterator_get_unchecked17h969efa0ca1cb30b3E', symObjAddr: 0x6F4, symBinAddr: 0x52540, symSize: 0x28 }
  - { offset: 0xE9899, size: 0x8, addend: 0x0, symName: '__ZN91_$LT$core..slice..iter..Iter$LT$T$GT$$u20$as$u20$core..iter..traits..iterator..Iterator$GT$3any17h1c93967dcbb3af01E', symObjAddr: 0x71C, symBinAddr: 0x52568, symSize: 0xAC }
  - { offset: 0xE98FE, size: 0x8, addend: 0x0, symName: '__ZN91_$LT$core..slice..iter..Iter$LT$T$GT$$u20$as$u20$core..iter..traits..iterator..Iterator$GT$3any17hb9b1c54b1b7b9bbaE', symObjAddr: 0x7C8, symBinAddr: 0x52614, symSize: 0xAC }
  - { offset: 0xE9963, size: 0x8, addend: 0x0, symName: '__ZN91_$LT$core..slice..iter..Iter$LT$T$GT$$u20$as$u20$core..iter..traits..iterator..Iterator$GT$3any17hc8a72ca06a025133E', symObjAddr: 0x874, symBinAddr: 0x526C0, symSize: 0xAC }
  - { offset: 0xE99C8, size: 0x8, addend: 0x0, symName: '__ZN91_$LT$core..slice..iter..Iter$LT$T$GT$$u20$as$u20$core..iter..traits..iterator..Iterator$GT$3any17he41c052b585e56d0E', symObjAddr: 0x920, symBinAddr: 0x5276C, symSize: 0xAC }
  - { offset: 0xE9A2D, size: 0x8, addend: 0x0, symName: '__ZN91_$LT$core..slice..iter..Iter$LT$T$GT$$u20$as$u20$core..iter..traits..iterator..Iterator$GT$3any17he8c31148ebfd7744E', symObjAddr: 0x9CC, symBinAddr: 0x52818, symSize: 0xAC }
  - { offset: 0xE9A92, size: 0x8, addend: 0x0, symName: '__ZN91_$LT$core..slice..iter..Iter$LT$T$GT$$u20$as$u20$core..iter..traits..iterator..Iterator$GT$3nth17hbcff6b4d7dd69bc1E', symObjAddr: 0xA78, symBinAddr: 0x528C4, symSize: 0x120 }
  - { offset: 0xE9C72, size: 0x8, addend: 0x0, symName: '__ZN91_$LT$core..slice..iter..Iter$LT$T$GT$$u20$as$u20$core..iter..traits..iterator..Iterator$GT$4find17h414d2676ba84685cE', symObjAddr: 0xB98, symBinAddr: 0x529E4, symSize: 0xB0 }
  - { offset: 0xE9CD7, size: 0x8, addend: 0x0, symName: '__ZN91_$LT$core..slice..iter..Iter$LT$T$GT$$u20$as$u20$core..iter..traits..iterator..Iterator$GT$4find17h47ef1f9216d99fc9E', symObjAddr: 0xC48, symBinAddr: 0x52A94, symSize: 0xAC }
  - { offset: 0xE9D3C, size: 0x8, addend: 0x0, symName: '__ZN91_$LT$core..slice..iter..Iter$LT$T$GT$$u20$as$u20$core..iter..traits..iterator..Iterator$GT$4find17h5b389da0af08acf9E', symObjAddr: 0xCF4, symBinAddr: 0x52B40, symSize: 0xAC }
  - { offset: 0xE9DA1, size: 0x8, addend: 0x0, symName: '__ZN91_$LT$core..slice..iter..Iter$LT$T$GT$$u20$as$u20$core..iter..traits..iterator..Iterator$GT$4find17h5bbd326087c3fcb5E', symObjAddr: 0xDA0, symBinAddr: 0x52BEC, symSize: 0xAC }
  - { offset: 0xE9E06, size: 0x8, addend: 0x0, symName: '__ZN91_$LT$core..slice..iter..Iter$LT$T$GT$$u20$as$u20$core..iter..traits..iterator..Iterator$GT$4find17h7c221917c163bb05E', symObjAddr: 0xE4C, symBinAddr: 0x52C98, symSize: 0xAC }
  - { offset: 0xE9E6B, size: 0x8, addend: 0x0, symName: '__ZN91_$LT$core..slice..iter..Iter$LT$T$GT$$u20$as$u20$core..iter..traits..iterator..Iterator$GT$4find17h83eec530f6937ab1E', symObjAddr: 0xEF8, symBinAddr: 0x52D44, symSize: 0xAC }
  - { offset: 0xE9ED0, size: 0x8, addend: 0x0, symName: '__ZN91_$LT$core..slice..iter..Iter$LT$T$GT$$u20$as$u20$core..iter..traits..iterator..Iterator$GT$4find17h86136a8d62320055E', symObjAddr: 0xFA4, symBinAddr: 0x52DF0, symSize: 0xAC }
  - { offset: 0xE9F35, size: 0x8, addend: 0x0, symName: '__ZN91_$LT$core..slice..iter..Iter$LT$T$GT$$u20$as$u20$core..iter..traits..iterator..Iterator$GT$4find17h97c80ac523ee4ac3E', symObjAddr: 0x1050, symBinAddr: 0x52E9C, symSize: 0xAC }
  - { offset: 0xE9F9A, size: 0x8, addend: 0x0, symName: '__ZN91_$LT$core..slice..iter..Iter$LT$T$GT$$u20$as$u20$core..iter..traits..iterator..Iterator$GT$4find17hebb28095d9462336E', symObjAddr: 0x10FC, symBinAddr: 0x52F48, symSize: 0xAC }
  - { offset: 0xE9FFF, size: 0x8, addend: 0x0, symName: '__ZN91_$LT$core..slice..iter..Iter$LT$T$GT$$u20$as$u20$core..iter..traits..iterator..Iterator$GT$4find17hf60b57c7265104f2E', symObjAddr: 0x11A8, symBinAddr: 0x52FF4, symSize: 0xAC }
  - { offset: 0xEA064, size: 0x8, addend: 0x0, symName: '__ZN91_$LT$core..slice..iter..Iter$LT$T$GT$$u20$as$u20$core..iter..traits..iterator..Iterator$GT$4fold17h036f89d73017f1beE', symObjAddr: 0x1254, symBinAddr: 0x530A0, symSize: 0x1C4 }
  - { offset: 0xEA1BD, size: 0x8, addend: 0x0, symName: '__ZN91_$LT$core..slice..iter..Iter$LT$T$GT$$u20$as$u20$core..iter..traits..iterator..Iterator$GT$4fold17h24544230195fd960E', symObjAddr: 0x1418, symBinAddr: 0x53264, symSize: 0x1C0 }
  - { offset: 0xEA312, size: 0x8, addend: 0x0, symName: '__ZN91_$LT$core..slice..iter..Iter$LT$T$GT$$u20$as$u20$core..iter..traits..iterator..Iterator$GT$4fold17h2c2ac1681e8efd4cE', symObjAddr: 0x15D8, symBinAddr: 0x53424, symSize: 0x1C0 }
  - { offset: 0xEA467, size: 0x8, addend: 0x0, symName: '__ZN91_$LT$core..slice..iter..Iter$LT$T$GT$$u20$as$u20$core..iter..traits..iterator..Iterator$GT$4fold17h54500525be9e6528E', symObjAddr: 0x1798, symBinAddr: 0x535E4, symSize: 0x1B8 }
  - { offset: 0xEA5BC, size: 0x8, addend: 0x0, symName: '__ZN91_$LT$core..slice..iter..Iter$LT$T$GT$$u20$as$u20$core..iter..traits..iterator..Iterator$GT$4fold17h662b72b2199b8e05E', symObjAddr: 0x1950, symBinAddr: 0x5379C, symSize: 0x1C0 }
  - { offset: 0xEA711, size: 0x8, addend: 0x0, symName: '__ZN91_$LT$core..slice..iter..Iter$LT$T$GT$$u20$as$u20$core..iter..traits..iterator..Iterator$GT$4fold17hb87d4ea4bd2660d0E', symObjAddr: 0x1B10, symBinAddr: 0x5395C, symSize: 0x1C0 }
  - { offset: 0xEA866, size: 0x8, addend: 0x0, symName: '__ZN91_$LT$core..slice..iter..Iter$LT$T$GT$$u20$as$u20$core..iter..traits..iterator..Iterator$GT$4fold17hd7d49143baa6860aE', symObjAddr: 0x1CD0, symBinAddr: 0x53B1C, symSize: 0x1B8 }
  - { offset: 0xEA9BB, size: 0x8, addend: 0x0, symName: '__ZN91_$LT$core..slice..iter..Iter$LT$T$GT$$u20$as$u20$core..iter..traits..iterator..Iterator$GT$4fold17he35c3a3d5ff5eb6aE', symObjAddr: 0x1E88, symBinAddr: 0x53CD4, symSize: 0x1B8 }
  - { offset: 0xEAB10, size: 0x8, addend: 0x0, symName: '__ZN91_$LT$core..slice..iter..Iter$LT$T$GT$$u20$as$u20$core..iter..traits..iterator..Iterator$GT$4fold17hecf0bb665df62d82E', symObjAddr: 0x2040, symBinAddr: 0x53E8C, symSize: 0x1C4 }
  - { offset: 0xEAC69, size: 0x8, addend: 0x0, symName: '__ZN91_$LT$core..slice..iter..Iter$LT$T$GT$$u20$as$u20$core..iter..traits..iterator..Iterator$GT$4next17h3be306a41c668ad5E', symObjAddr: 0x2204, symBinAddr: 0x54050, symSize: 0xB0 }
  - { offset: 0xEADA3, size: 0x8, addend: 0x0, symName: '__ZN91_$LT$core..slice..iter..Iter$LT$T$GT$$u20$as$u20$core..iter..traits..iterator..Iterator$GT$4next17h3f7305c4f2928d64E', symObjAddr: 0x22B4, symBinAddr: 0x54100, symSize: 0xB0 }
  - { offset: 0xEAEDD, size: 0x8, addend: 0x0, symName: '__ZN91_$LT$core..slice..iter..Iter$LT$T$GT$$u20$as$u20$core..iter..traits..iterator..Iterator$GT$4next17h45b8535154dadc38E', symObjAddr: 0x2364, symBinAddr: 0x541B0, symSize: 0xB0 }
  - { offset: 0xEB017, size: 0x8, addend: 0x0, symName: '__ZN91_$LT$core..slice..iter..Iter$LT$T$GT$$u20$as$u20$core..iter..traits..iterator..Iterator$GT$4next17h4b13e19ea0634b35E', symObjAddr: 0x2414, symBinAddr: 0x54260, symSize: 0xB0 }
  - { offset: 0xEB151, size: 0x8, addend: 0x0, symName: '__ZN91_$LT$core..slice..iter..Iter$LT$T$GT$$u20$as$u20$core..iter..traits..iterator..Iterator$GT$4next17h7d99af3d4a817246E', symObjAddr: 0x24C4, symBinAddr: 0x54310, symSize: 0xB0 }
  - { offset: 0xEB28B, size: 0x8, addend: 0x0, symName: '__ZN91_$LT$core..slice..iter..Iter$LT$T$GT$$u20$as$u20$core..iter..traits..iterator..Iterator$GT$4next17h8f4e7cb9fa6807d0E', symObjAddr: 0x2574, symBinAddr: 0x543C0, symSize: 0xB0 }
  - { offset: 0xEB3C5, size: 0x8, addend: 0x0, symName: '__ZN91_$LT$core..slice..iter..Iter$LT$T$GT$$u20$as$u20$core..iter..traits..iterator..Iterator$GT$4next17h944563e69ba88d14E', symObjAddr: 0x2624, symBinAddr: 0x54470, symSize: 0xB0 }
  - { offset: 0xEB4FF, size: 0x8, addend: 0x0, symName: '__ZN91_$LT$core..slice..iter..Iter$LT$T$GT$$u20$as$u20$core..iter..traits..iterator..Iterator$GT$4next17h9bcc1140655c20afE', symObjAddr: 0x26D4, symBinAddr: 0x54520, symSize: 0xB0 }
  - { offset: 0xEB639, size: 0x8, addend: 0x0, symName: '__ZN91_$LT$core..slice..iter..Iter$LT$T$GT$$u20$as$u20$core..iter..traits..iterator..Iterator$GT$4next17hed0d24d80b475c48E', symObjAddr: 0x2784, symBinAddr: 0x545D0, symSize: 0xB0 }
  - { offset: 0xEB773, size: 0x8, addend: 0x0, symName: '__ZN91_$LT$core..slice..iter..Iter$LT$T$GT$$u20$as$u20$core..iter..traits..iterator..Iterator$GT$8for_each17h4acd6a01dbb070a9E', symObjAddr: 0x2834, symBinAddr: 0x54680, symSize: 0x84 }
  - { offset: 0xEB7D4, size: 0x8, addend: 0x0, symName: '__ZN91_$LT$core..slice..iter..Iter$LT$T$GT$$u20$as$u20$core..iter..traits..iterator..Iterator$GT$8for_each17h568a556bbebffdc8E', symObjAddr: 0x28B8, symBinAddr: 0x54704, symSize: 0x84 }
  - { offset: 0xEB835, size: 0x8, addend: 0x0, symName: '__ZN91_$LT$core..slice..iter..Iter$LT$T$GT$$u20$as$u20$core..iter..traits..iterator..Iterator$GT$8position17h4c31efae21a73110E', symObjAddr: 0x293C, symBinAddr: 0x54788, symSize: 0x188 }
  - { offset: 0xEB8F3, size: 0x8, addend: 0x0, symName: '__ZN91_$LT$core..slice..iter..Iter$LT$T$GT$$u20$as$u20$core..iter..traits..iterator..Iterator$GT$8position17he0f90ddde59bf7daE', symObjAddr: 0x2AC4, symBinAddr: 0x54910, symSize: 0x188 }
  - { offset: 0xEB9B1, size: 0x8, addend: 0x0, symName: '__ZN91_$LT$core..slice..iter..Iter$LT$T$GT$$u20$as$u20$core..iter..traits..iterator..Iterator$GT$9size_hint17h09df3afe437b729dE', symObjAddr: 0x2C4C, symBinAddr: 0x54A98, symSize: 0x70 }
  - { offset: 0xEBA20, size: 0x8, addend: 0x0, symName: '__ZN91_$LT$core..slice..iter..Iter$LT$T$GT$$u20$as$u20$core..iter..traits..iterator..Iterator$GT$9size_hint17h7bfc41f265191016E', symObjAddr: 0x2CBC, symBinAddr: 0x54B08, symSize: 0x70 }
  - { offset: 0xEBA8F, size: 0x8, addend: 0x0, symName: '__ZN91_$LT$core..slice..iter..Iter$LT$T$GT$$u20$as$u20$core..iter..traits..iterator..Iterator$GT$9size_hint17h97945cdea99a6784E', symObjAddr: 0x2D2C, symBinAddr: 0x54B78, symSize: 0x70 }
  - { offset: 0xEBAFE, size: 0x8, addend: 0x0, symName: '__ZN91_$LT$core..slice..iter..Iter$LT$T$GT$$u20$as$u20$core..iter..traits..iterator..Iterator$GT$9size_hint17h9f1413fe6e8506ceE', symObjAddr: 0x2D9C, symBinAddr: 0x54BE8, symSize: 0x70 }
  - { offset: 0xEBB6D, size: 0x8, addend: 0x0, symName: '__ZN91_$LT$core..slice..iter..Iter$LT$T$GT$$u20$as$u20$core..iter..traits..iterator..Iterator$GT$9size_hint17hcb9f9d5439df3415E', symObjAddr: 0x2E0C, symBinAddr: 0x54C58, symSize: 0x70 }
  - { offset: 0xEBBDC, size: 0x8, addend: 0x0, symName: '__ZN91_$LT$core..slice..iter..Iter$LT$T$GT$$u20$as$u20$core..iter..traits..iterator..Iterator$GT$9size_hint17hfe64e0fca6898629E', symObjAddr: 0x2E7C, symBinAddr: 0x54CC8, symSize: 0x70 }
  - { offset: 0xEBC7E, size: 0x8, addend: 0x0, symName: '__ZN93_$LT$core..slice..iter..Chunks$LT$T$GT$$u20$as$u20$core..iter..traits..iterator..Iterator$GT$4next17h017356655cf376cdE', symObjAddr: 0x2EEC, symBinAddr: 0x54D38, symSize: 0x160 }
  - { offset: 0xEBD78, size: 0x8, addend: 0x0, symName: '__ZN93_$LT$core..slice..iter..Chunks$LT$T$GT$$u20$as$u20$core..iter..traits..iterator..Iterator$GT$9size_hint17h6c6cf1a83bcb4163E', symObjAddr: 0x304C, symBinAddr: 0x54E98, symSize: 0x138 }
  - { offset: 0xEBE2D, size: 0x8, addend: 0x0, symName: '__ZN94_$LT$core..slice..iter..IterMut$LT$T$GT$$u20$as$u20$core..iter..traits..iterator..Iterator$GT$3nth17h2cd18cfdf08486b7E', symObjAddr: 0x3184, symBinAddr: 0x54FD0, symSize: 0x120 }
  - { offset: 0xEBFF8, size: 0x8, addend: 0x0, symName: '__ZN94_$LT$core..slice..iter..IterMut$LT$T$GT$$u20$as$u20$core..iter..traits..iterator..Iterator$GT$4next17hbf53d30a4a6a2a5dE', symObjAddr: 0x32A4, symBinAddr: 0x550F0, symSize: 0xB0 }
  - { offset: 0xEC11D, size: 0x8, addend: 0x0, symName: '__ZN94_$LT$core..slice..iter..IterMut$LT$T$GT$$u20$as$u20$core..iter..traits..iterator..Iterator$GT$4next17hf587a047873d9d43E', symObjAddr: 0x3354, symBinAddr: 0x551A0, symSize: 0xB0 }
  - { offset: 0xEFE12, size: 0x8, addend: 0x0, symName: __ZN6zopfli4iter18ToFlagLastIterator9flag_last17ha062bc88b6f23158E, symObjAddr: 0x6B8, symBinAddr: 0x52504, symSize: 0x3C }
  - { offset: 0xF15BB, size: 0x8, addend: 0x0, symName: '__ZN4core5slice4iter13Iter$LT$T$GT$3new17h319fdd564db5ddbcE', symObjAddr: 0x344, symBinAddr: 0x52190, symSize: 0x50 }
  - { offset: 0xF1785, size: 0x8, addend: 0x0, symName: '__ZN4core5slice4iter13Iter$LT$T$GT$3new17h99891bccbee67cccE', symObjAddr: 0x394, symBinAddr: 0x521E0, symSize: 0x58 }
  - { offset: 0xF1A51, size: 0x8, addend: 0x0, symName: '__ZN4core5slice4iter13Iter$LT$T$GT$3new17hb749d100a7e1074cE', symObjAddr: 0x3EC, symBinAddr: 0x52238, symSize: 0x50 }
  - { offset: 0xF1C01, size: 0x8, addend: 0x0, symName: '__ZN4core5slice4iter13Iter$LT$T$GT$3new17hc2e63b8955cc1245E', symObjAddr: 0x43C, symBinAddr: 0x52288, symSize: 0x50 }
  - { offset: 0xF1DB1, size: 0x8, addend: 0x0, symName: '__ZN4core5slice4iter13Iter$LT$T$GT$3new17hcaf7a4bccc6d1301E', symObjAddr: 0x48C, symBinAddr: 0x522D8, symSize: 0x58 }
  - { offset: 0xF1F61, size: 0x8, addend: 0x0, symName: '__ZN4core5slice4iter13Iter$LT$T$GT$3new17hdcfeef1d8e2e94b0E', symObjAddr: 0x4E4, symBinAddr: 0x52330, symSize: 0x58 }
  - { offset: 0xF23A4, size: 0x8, addend: 0x0, symName: '__ZN4core5slice4iter13Iter$LT$T$GT$3new17he282080237a48f95E', symObjAddr: 0x53C, symBinAddr: 0x52388, symSize: 0x58 }
  - { offset: 0xF256E, size: 0x8, addend: 0x0, symName: '__ZN4core5slice4iter13Iter$LT$T$GT$3new17hf0f4c30d67bbbb29E', symObjAddr: 0x594, symBinAddr: 0x523E0, symSize: 0x50 }
  - { offset: 0xF2708, size: 0x8, addend: 0x0, symName: '__ZN4core5slice4iter16IterMut$LT$T$GT$3new17h41701a66905938fbE', symObjAddr: 0x5E4, symBinAddr: 0x52430, symSize: 0x50 }
  - { offset: 0xF28AB, size: 0x8, addend: 0x0, symName: '__ZN4core5slice4iter16IterMut$LT$T$GT$3new17h8956687856497bd4E', symObjAddr: 0x634, symBinAddr: 0x52480, symSize: 0x50 }
  - { offset: 0xF3772, size: 0x8, addend: 0x0, symName: __ZN4core4char7convert18from_u32_unchecked18precondition_check17h45ef77ae741981a0E, symObjAddr: 0x0, symBinAddr: 0x55250, symSize: 0x104 }
  - { offset: 0xF37FB, size: 0x8, addend: 0x0, symName: __ZN4core4char7convert18from_u32_unchecked18precondition_check17h45ef77ae741981a0E, symObjAddr: 0x0, symBinAddr: 0x55250, symSize: 0x104 }
  - { offset: 0xF3E43, size: 0x8, addend: 0x0, symName: '__ZN108_$LT$core..iter..adapters..filter..Filter$LT$I$C$P$GT$$u20$as$u20$core..iter..traits..iterator..Iterator$GT$4next17hea0e9060d2b7150dE', symObjAddr: 0x0, symBinAddr: 0x55354, symSize: 0x2C }
  - { offset: 0xF3F97, size: 0x8, addend: 0x0, symName: '__ZN108_$LT$core..iter..adapters..filter..Filter$LT$I$C$P$GT$$u20$as$u20$core..iter..traits..iterator..Iterator$GT$4next17hea0e9060d2b7150dE', symObjAddr: 0x0, symBinAddr: 0x55354, symSize: 0x2C }
  - { offset: 0xF3FD5, size: 0x8, addend: 0x0, symName: '__ZN108_$LT$core..iter..adapters..filter..Filter$LT$I$C$P$GT$$u20$as$u20$core..iter..traits..iterator..Iterator$GT$8try_fold17h9f21277a8b21dd98E', symObjAddr: 0x2C, symBinAddr: 0x55380, symSize: 0x3C }
  - { offset: 0xF404A, size: 0x8, addend: 0x0, symName: '__ZN108_$LT$core..iter..adapters..filter..Filter$LT$I$C$P$GT$$u20$as$u20$core..iter..traits..iterator..Iterator$GT$9size_hint17h088121baef6dabd4E', symObjAddr: 0x68, symBinAddr: 0x553BC, symSize: 0x4C }
  - { offset: 0xF40A5, size: 0x8, addend: 0x0, symName: '__ZN108_$LT$core..iter..adapters..filter..Filter$LT$I$C$P$GT$$u20$as$u20$core..iter..traits..iterator..Iterator$GT$9size_hint17he99e067d5f9edf56E', symObjAddr: 0xB4, symBinAddr: 0x55408, symSize: 0x4C }
  - { offset: 0xF416C, size: 0x8, addend: 0x0, symName: '__ZN4core4iter8adapters6filter15filter_try_fold28_$u7b$$u7b$closure$u7d$$u7d$17h2fdb12b5e76b2037E', symObjAddr: 0x1F8, symBinAddr: 0x5554C, symSize: 0xE8 }
  - { offset: 0xF42D2, size: 0x8, addend: 0x0, symName: __ZN4core4iter6traits8iterator8Iterator10filter_map17h82a797abc00c6d12E, symObjAddr: 0x100, symBinAddr: 0x55454, symSize: 0x30 }
  - { offset: 0xF4340, size: 0x8, addend: 0x0, symName: __ZN4core4iter6traits8iterator8Iterator3map17hf801c9948e1d6dfaE, symObjAddr: 0x130, symBinAddr: 0x55484, symSize: 0x20 }
  - { offset: 0xF43AD, size: 0x8, addend: 0x0, symName: __ZN4core4iter6traits8iterator8Iterator8find_map17h8a2540c48e2e219aE, symObjAddr: 0x150, symBinAddr: 0x554A4, symSize: 0xA8 }
  - { offset: 0xF5268, size: 0x8, addend: 0x0, symName: __ZN8pyo3_ffi10boolobject7Py_True17h53691f9506928987E, symObjAddr: 0x0, symBinAddr: 0x55634, symSize: 0xC }
  - { offset: 0xF5303, size: 0x8, addend: 0x0, symName: __ZN8pyo3_ffi10boolobject7Py_True17h53691f9506928987E, symObjAddr: 0x0, symBinAddr: 0x55634, symSize: 0xC }
  - { offset: 0xF5320, size: 0x8, addend: 0x0, symName: __ZN8pyo3_ffi10boolobject8Py_False17h18f0baa267468839E, symObjAddr: 0xC, symBinAddr: 0x55640, symSize: 0xC }
  - { offset: 0xF67AE, size: 0x8, addend: 0x0, symName: '__ZN102_$LT$core..str..iter..CharIndices$u20$as$u20$core..iter..traits..double_ended..DoubleEndedIterator$GT$9next_back17h418dd5609c5a98fcE', symObjAddr: 0x0, symBinAddr: 0x5564C, symSize: 0x14C }
  - { offset: 0xF6895, size: 0x8, addend: 0x0, symName: '__ZN102_$LT$core..str..iter..CharIndices$u20$as$u20$core..iter..traits..double_ended..DoubleEndedIterator$GT$9next_back17h418dd5609c5a98fcE', symObjAddr: 0x0, symBinAddr: 0x5564C, symSize: 0x14C }
  - { offset: 0xF6A2D, size: 0x8, addend: 0x0, symName: '__ZN81_$LT$core..str..iter..Chars$u20$as$u20$core..iter..traits..iterator..Iterator$GT$4next17h7b40fe8ef8c04943E', symObjAddr: 0x14C, symBinAddr: 0x55798, symSize: 0x80 }
  - { offset: 0xF6AC4, size: 0x8, addend: 0x0, symName: '__ZN81_$LT$core..str..iter..Chars$u20$as$u20$core..iter..traits..iterator..Iterator$GT$9size_hint17h543141b66b0abd6cE', symObjAddr: 0x1CC, symBinAddr: 0x55818, symSize: 0x74 }
  - { offset: 0xF6B62, size: 0x8, addend: 0x0, symName: '__ZN87_$LT$core..str..iter..CharIndices$u20$as$u20$core..iter..traits..iterator..Iterator$GT$4next17h0260f17ee05a7aedE', symObjAddr: 0x240, symBinAddr: 0x5588C, symSize: 0x130 }
  - { offset: 0xF7366, size: 0x8, addend: 0x0, symName: __ZN10rayon_core8registry12WorkerThread14take_local_job17hb7b0e1b0bf07b9e6E, symObjAddr: 0x0, symBinAddr: 0x559BC, symSize: 0xBC }
  - { offset: 0xF76D0, size: 0x8, addend: 0x0, symName: '__ZN73_$LT$rayon_core..registry..RegistryId$u20$as$u20$core..cmp..PartialEq$GT$2eq17hd9b22a754a99f7b7E', symObjAddr: 0x1B4, symBinAddr: 0x55B70, symSize: 0x2C }
  - { offset: 0xF840B, size: 0x8, addend: 0x0, symName: __ZN10rayon_core8registry12WorkerThread14take_local_job17hb7b0e1b0bf07b9e6E, symObjAddr: 0x0, symBinAddr: 0x559BC, symSize: 0xBC }
  - { offset: 0xF846A, size: 0x8, addend: 0x0, symName: __ZN10rayon_core8registry12WorkerThread4push17he644d7376d74cb1eE, symObjAddr: 0xBC, symBinAddr: 0x55A78, symSize: 0x74 }
  - { offset: 0xF84BA, size: 0x8, addend: 0x0, symName: __ZN10rayon_core8registry12WorkerThread5index17h5a528cb4728c6839E, symObjAddr: 0x130, symBinAddr: 0x55AEC, symSize: 0x18 }
  - { offset: 0xF84EA, size: 0x8, addend: 0x0, symName: __ZN10rayon_core8registry12WorkerThread7current17hab3023746d52e143E, symObjAddr: 0x148, symBinAddr: 0x55B04, symSize: 0x1C }
  - { offset: 0xF84FD, size: 0x8, addend: 0x0, symName: __ZN10rayon_core8registry12WorkerThread7execute17he2164d40d613f7f9E, symObjAddr: 0x164, symBinAddr: 0x55B20, symSize: 0x3C }
  - { offset: 0xF853C, size: 0x8, addend: 0x0, symName: __ZN10rayon_core8registry12WorkerThread8registry17h47f941d1aee96b8eE, symObjAddr: 0x1A0, symBinAddr: 0x55B5C, symSize: 0x14 }
  - { offset: 0xF858A, size: 0x8, addend: 0x0, symName: '__ZN4core5slice29_$LT$impl$u20$$u5b$T$u5d$$GT$3get17hac3d6eb5e5737ae4E', symObjAddr: 0x0, symBinAddr: 0x55B9C, symSize: 0x44 }
  - { offset: 0xF891C, size: 0x8, addend: 0x0, symName: '__ZN4core5slice29_$LT$impl$u20$$u5b$T$u5d$$GT$3get17hac3d6eb5e5737ae4E', symObjAddr: 0x0, symBinAddr: 0x55B9C, symSize: 0x44 }
  - { offset: 0xF896B, size: 0x8, addend: 0x0, symName: '__ZN4core5slice29_$LT$impl$u20$$u5b$T$u5d$$GT$4iter17ha2b3fb488258f1c9E', symObjAddr: 0x44, symBinAddr: 0x55BE0, symSize: 0x28 }
  - { offset: 0xF89A2, size: 0x8, addend: 0x0, symName: '__ZN4core5slice29_$LT$impl$u20$$u5b$T$u5d$$GT$4last17hb89e6947ee406f48E', symObjAddr: 0x6C, symBinAddr: 0x55C08, symSize: 0x50 }
  - { offset: 0xF89EF, size: 0x8, addend: 0x0, symName: '__ZN4core5slice29_$LT$impl$u20$$u5b$T$u5d$$GT$7get_mut17h8ffb8141adac6afcE', symObjAddr: 0xBC, symBinAddr: 0x55C58, symSize: 0x44 }
  - { offset: 0xF8A3E, size: 0x8, addend: 0x0, symName: '__ZN4core5slice29_$LT$impl$u20$$u5b$T$u5d$$GT$8last_mut17h2c05465bc0ef3478E', symObjAddr: 0x100, symBinAddr: 0x55C9C, symSize: 0x50 }
  - { offset: 0xF93A4, size: 0x8, addend: 0x0, symName: '__ZN8indexmap19Bucket$LT$K$C$V$GT$4refs17he2edae2cc259cef4E', symObjAddr: 0x150, symBinAddr: 0x55CEC, symSize: 0x1C }
  - { offset: 0xF9410, size: 0x8, addend: 0x0, symName: '__ZN8indexmap19Bucket$LT$K$C$V$GT$7ref_mut17h98b74fc461be6571E', symObjAddr: 0x16C, symBinAddr: 0x55D08, symSize: 0x1C }
  - { offset: 0xF9444, size: 0x8, addend: 0x0, symName: '__ZN8indexmap19Bucket$LT$K$C$V$GT$9value_ref17he934d4e35d4cba5aE', symObjAddr: 0x188, symBinAddr: 0x55D24, symSize: 0x14 }
  - { offset: 0xF94E8, size: 0x8, addend: 0x0, symName: '__ZN103_$LT$pyo3..instance..Bound$LT$pyo3..types..any..PyAny$GT$$u20$as$u20$pyo3..types..any..PyAnyMethods$GT$7is_none17h5ccf81295bcbe265E', symObjAddr: 0x0, symBinAddr: 0x55D38, symSize: 0x4C }
  - { offset: 0xFB04E, size: 0x8, addend: 0x0, symName: '__ZN103_$LT$pyo3..instance..Bound$LT$pyo3..types..any..PyAny$GT$$u20$as$u20$pyo3..types..any..PyAnyMethods$GT$7is_none17h5ccf81295bcbe265E', symObjAddr: 0x0, symBinAddr: 0x55D38, symSize: 0x4C }
  - { offset: 0xFB0C3, size: 0x8, addend: 0x0, symName: '__ZN119_$LT$pyo3..instance..Bound$LT$pyo3..types..typeobject..PyType$GT$$u20$as$u20$pyo3..types..typeobject..PyTypeMethods$GT$11as_type_ptr17hb2737b0f42860392E', symObjAddr: 0x4C, symBinAddr: 0x55D84, symSize: 0x24 }
  - { offset: 0xFB110, size: 0x8, addend: 0x0, symName: '__ZN123_$LT$pyo3..instance..Bound$LT$pyo3..types..sequence..PySequence$GT$$u20$as$u20$pyo3..types..sequence..PySequenceMethods$GT$3len17h9f0bbb9f1b884604E', symObjAddr: 0x70, symBinAddr: 0x55DA8, symSize: 0xBC }
  - { offset: 0xFB198, size: 0x8, addend: 0x0, symName: '__ZN4pyo35types8iterator131_$LT$impl$u20$core..iter..traits..iterator..Iterator$u20$for$u20$pyo3..instance..Bound$LT$pyo3..types..iterator..PyIterator$GT$$GT$4next17h9d63438695f2ccc8E', symObjAddr: 0x12C, symBinAddr: 0x55E64, symSize: 0x30 }
  - { offset: 0xFB5DD, size: 0x8, addend: 0x0, symName: '__ZN4pyo38instance36Bound$LT$pyo3..types..any..PyAny$GT$14from_owned_ptr17h8e42c888985d0df8E', symObjAddr: 0x15C, symBinAddr: 0x55E94, symSize: 0x2C }
  - { offset: 0xFB625, size: 0x8, addend: 0x0, symName: '__ZN4pyo38instance39Borrowed$LT$pyo3..types..any..PyAny$GT$15from_ptr_or_opt17h432b02be2466d089E', symObjAddr: 0x188, symBinAddr: 0x55EC0, symSize: 0x2C }
  - { offset: 0xFB663, size: 0x8, addend: 0x0, symName: '__ZN4pyo38instance39Borrowed$LT$pyo3..types..any..PyAny$GT$18from_ptr_unchecked17h12ca9f0fe9a687bfE', symObjAddr: 0x1B4, symBinAddr: 0x55EEC, symSize: 0x2C }
  - { offset: 0xFB6A1, size: 0x8, addend: 0x0, symName: '__ZN4pyo38instance39Borrowed$LT$pyo3..types..any..PyAny$GT$8from_ptr17h116870245a0b46f5E', symObjAddr: 0x1E0, symBinAddr: 0x55F18, symSize: 0x34 }
  - { offset: 0xFB91F, size: 0x8, addend: 0x0, symName: __ZN5rayon4iter13from_par_iter16collect_extended17h34dbcf388ea3441eE, symObjAddr: 0x0, symBinAddr: 0x55F4C, symSize: 0xBC }
  - { offset: 0xFC08D, size: 0x8, addend: 0x0, symName: __ZN5rayon4iter13from_par_iter16collect_extended17h34dbcf388ea3441eE, symObjAddr: 0x0, symBinAddr: 0x55F4C, symSize: 0xBC }
  - { offset: 0xFC0E1, size: 0x8, addend: 0x0, symName: __ZN5rayon4iter13from_par_iter16collect_extended17h477b37a58f049fbaE, symObjAddr: 0xBC, symBinAddr: 0x56008, symSize: 0xBC }
  - { offset: 0xFD239, size: 0x8, addend: 0x0, symName: '__ZN5alloc3vec13in_place_drop20InPlaceDrop$LT$T$GT$3len17h2c81d92d1e84d870E', symObjAddr: 0x0, symBinAddr: 0x560C4, symSize: 0x84 }
  - { offset: 0xFD6AB, size: 0x8, addend: 0x0, symName: '__ZN5alloc3vec13in_place_drop20InPlaceDrop$LT$T$GT$3len17h2c81d92d1e84d870E', symObjAddr: 0x0, symBinAddr: 0x560C4, symSize: 0x84 }
  - { offset: 0xFD773, size: 0x8, addend: 0x0, symName: '__ZN5alloc3vec13in_place_drop20InPlaceDrop$LT$T$GT$3len17hbf9af662b7c59bd2E', symObjAddr: 0x84, symBinAddr: 0x56148, symSize: 0x84 }
  - { offset: 0xFD832, size: 0x8, addend: 0x0, symName: '__ZN11_fast_ebook10_read_epub28_$u7b$$u7b$closure$u7d$$u7d$17h1d44ba157c472881E', symObjAddr: 0x0, symBinAddr: 0x561CC, symSize: 0x24 }
  - { offset: 0xFF2DE, size: 0x8, addend: 0x0, symName: '__ZN11_fast_ebook10_read_epub28_$u7b$$u7b$closure$u7d$$u7d$17h1d44ba157c472881E', symObjAddr: 0x0, symBinAddr: 0x561CC, symSize: 0x24 }
  - { offset: 0xFF322, size: 0x8, addend: 0x0, symName: '__ZN11_fast_ebook23__pyfunction__read_epub28_$u7b$$u7b$closure$u7d$$u7d$17hf07e923c5ef6730cE', symObjAddr: 0x24, symBinAddr: 0x561F0, symSize: 0x18 }
  - { offset: 0xFF34A, size: 0x8, addend: 0x0, symName: '__ZN11_fast_ebook23__pyfunction__read_epub28_$u7b$$u7b$closure$u7d$$u7d$17h1a138b4e44f4b4f7E', symObjAddr: 0x3C, symBinAddr: 0x56208, symSize: 0x18 }
  - { offset: 0xFF386, size: 0x8, addend: 0x0, symName: '__ZN11_fast_ebook16_read_epub_bytes28_$u7b$$u7b$closure$u7d$$u7d$17hb58d8d05e2549bd9E', symObjAddr: 0x54, symBinAddr: 0x56220, symSize: 0x24 }
  - { offset: 0xFF3CA, size: 0x8, addend: 0x0, symName: '__ZN11_fast_ebook29__pyfunction__read_epub_bytes28_$u7b$$u7b$closure$u7d$$u7d$17haa9b216579050926E', symObjAddr: 0x78, symBinAddr: 0x56244, symSize: 0x18 }
  - { offset: 0xFF3F2, size: 0x8, addend: 0x0, symName: '__ZN11_fast_ebook29__pyfunction__read_epub_bytes28_$u7b$$u7b$closure$u7d$$u7d$17h80d50855473b056cE', symObjAddr: 0x90, symBinAddr: 0x5625C, symSize: 0x18 }
  - { offset: 0xFF42E, size: 0x8, addend: 0x0, symName: '__ZN11_fast_ebook11_write_epub28_$u7b$$u7b$closure$u7d$$u7d$17h3873bf0924337b46E', symObjAddr: 0xA8, symBinAddr: 0x56274, symSize: 0x24 }
  - { offset: 0xFF472, size: 0x8, addend: 0x0, symName: '__ZN11_fast_ebook17_write_epub_bytes28_$u7b$$u7b$closure$u7d$$u7d$17h28812b3463fec997E', symObjAddr: 0xCC, symBinAddr: 0x56298, symSize: 0x24 }
  - { offset: 0xFF4B6, size: 0x8, addend: 0x0, symName: '__ZN11_fast_ebook11_read_epubs28_$u7b$$u7b$closure$u7d$$u7d$17h8a3b4bbf04056509E', symObjAddr: 0xF0, symBinAddr: 0x562BC, symSize: 0x44 }
  - { offset: 0xFF504, size: 0x8, addend: 0x0, symName: '__ZN11_fast_ebook11_read_epubs28_$u7b$$u7b$closure$u7d$$u7d$17h767d6e61ce865728E', symObjAddr: 0x134, symBinAddr: 0x56300, symSize: 0x24 }
  - { offset: 0xFF548, size: 0x8, addend: 0x0, symName: '__ZN11_fast_ebook24__pyfunction__read_epubs28_$u7b$$u7b$closure$u7d$$u7d$17h094c6c53df3ce5f5E', symObjAddr: 0x158, symBinAddr: 0x56324, symSize: 0x2C }
  - { offset: 0xFF570, size: 0x8, addend: 0x0, symName: '__ZN11_fast_ebook24__pyfunction__read_epubs28_$u7b$$u7b$closure$u7d$$u7d$17h0879e167c53af8f0E', symObjAddr: 0x184, symBinAddr: 0x56350, symSize: 0x18 }
  - { offset: 0xFF598, size: 0x8, addend: 0x0, symName: '__ZN11_fast_ebook24__pyfunction__read_epubs28_$u7b$$u7b$closure$u7d$$u7d$17h08a87f69a31b073fE', symObjAddr: 0x19C, symBinAddr: 0x56368, symSize: 0x18 }
  - { offset: 0x100DE0, size: 0x8, addend: 0x0, symName: __ZN9hashbrown3raw11TableLayout20calculate_layout_for17h1cea558890ea2248E, symObjAddr: 0x0, symBinAddr: 0x56380, symSize: 0x210 }
  - { offset: 0x10274B, size: 0x8, addend: 0x0, symName: __ZN9hashbrown3raw2h117hfbf7985cb7cdb394E, symObjAddr: 0x141C, symBinAddr: 0x5779C, symSize: 0x10 }
  - { offset: 0x102A01, size: 0x8, addend: 0x0, symName: __ZN9hashbrown3raw11TableLayout20calculate_layout_for17h1cea558890ea2248E, symObjAddr: 0x0, symBinAddr: 0x56380, symSize: 0x210 }
  - { offset: 0x102CD3, size: 0x8, addend: 0x0, symName: __ZN9hashbrown3raw13RawTableInner14is_bucket_full17h65042c14921ea218E, symObjAddr: 0x210, symBinAddr: 0x56590, symSize: 0x70 }
  - { offset: 0x102D05, size: 0x8, addend: 0x0, symName: __ZN9hashbrown3raw13RawTableInner14num_ctrl_bytes17hee0948ad6fc45421E, symObjAddr: 0x280, symBinAddr: 0x56600, symSize: 0x6C }
  - { offset: 0x10302B, size: 0x8, addend: 0x0, symName: __ZN9hashbrown3raw13RawTableInner15fix_insert_slot17h01dad01e9b08ba4cE, symObjAddr: 0x2EC, symBinAddr: 0x5666C, symSize: 0x12C }
  - { offset: 0x103414, size: 0x8, addend: 0x0, symName: __ZN9hashbrown3raw13RawTableInner15rehash_in_place17h4f377f4485e9a513E, symObjAddr: 0x418, symBinAddr: 0x56798, symSize: 0x4AC }
  - { offset: 0x103C29, size: 0x8, addend: 0x0, symName: __ZN9hashbrown3raw13RawTableInner16find_insert_slot17h96f2b5f9b98666aaE, symObjAddr: 0x8C4, symBinAddr: 0x56C44, symSize: 0x11C }
  - { offset: 0x103E24, size: 0x8, addend: 0x0, symName: __ZN9hashbrown3raw13RawTableInner19prepare_insert_slot17hb6854cf299764a44E, symObjAddr: 0x9E0, symBinAddr: 0x56D60, symSize: 0x74 }
  - { offset: 0x104115, size: 0x8, addend: 0x0, symName: __ZN9hashbrown3raw13RawTableInner23prepare_rehash_in_place17h901aa96f96913ee8E, symObjAddr: 0xA54, symBinAddr: 0x56DD4, symSize: 0x258 }
  - { offset: 0x104821, size: 0x8, addend: 0x0, symName: __ZN9hashbrown3raw13RawTableInner25find_insert_slot_in_group17h2c4f97a824ea40a1E, symObjAddr: 0xCAC, symBinAddr: 0x5702C, symSize: 0x15C }
  - { offset: 0x104B14, size: 0x8, addend: 0x0, symName: __ZN9hashbrown3raw13RawTableInner30find_or_find_insert_slot_inner17h67d6b6dd0d3c2316E, symObjAddr: 0xE08, symBinAddr: 0x57188, symSize: 0x2C0 }
  - { offset: 0x104ECD, size: 0x8, addend: 0x0, symName: __ZN9hashbrown3raw13RawTableInner4ctrl17h1ea87f2eb5a0a31bE, symObjAddr: 0x10C8, symBinAddr: 0x57448, symSize: 0x7C }
  - { offset: 0x104F32, size: 0x8, addend: 0x0, symName: __ZN9hashbrown3raw13RawTableInner5erase17hcc03945b0450de27E, symObjAddr: 0x1144, symBinAddr: 0x574C4, symSize: 0x1B0 }
  - { offset: 0x104FE6, size: 0x8, addend: 0x0, symName: __ZN9hashbrown3raw13RawTableInner7buckets17ha1b96415b0205a8fE, symObjAddr: 0x12F4, symBinAddr: 0x57674, symSize: 0x48 }
  - { offset: 0x105009, size: 0x8, addend: 0x0, symName: __ZN9hashbrown3raw13RawTableInner8set_ctrl17h08124de13d78f0d2E, symObjAddr: 0x133C, symBinAddr: 0x576BC, symSize: 0xA0 }
  - { offset: 0x10508E, size: 0x8, addend: 0x0, symName: __ZN9hashbrown3raw13RawTableInner9probe_seq17h7d1fcf686c1fb47aE, symObjAddr: 0x13DC, symBinAddr: 0x5775C, symSize: 0x40 }
  - { offset: 0x1050CD, size: 0x8, addend: 0x0, symName: __ZN9hashbrown3raw8ProbeSeq9move_next17h077adcbde19df800E, symObjAddr: 0x142C, symBinAddr: 0x577AC, symSize: 0xD8 }
  - { offset: 0x10511B, size: 0x8, addend: 0x0, symName: __ZN4core4sync6atomic11AtomicUsize3new17ha8ef75d5a75a674aE, symObjAddr: 0x0, symBinAddr: 0x57884, symSize: 0x18 }
  - { offset: 0x10525A, size: 0x8, addend: 0x0, symName: __ZN4core4sync6atomic11AtomicUsize3new17ha8ef75d5a75a674aE, symObjAddr: 0x0, symBinAddr: 0x57884, symSize: 0x18 }
  - { offset: 0x10528A, size: 0x8, addend: 0x0, symName: __ZN4core4sync6atomic11AtomicUsize4load17h6e826c114fafaf6eE, symObjAddr: 0x18, symBinAddr: 0x5789C, symSize: 0x30 }
  - { offset: 0x1052F2, size: 0x8, addend: 0x0, symName: __ZN4core4sync6atomic11AtomicUsize4swap17h8256293d1d02b24eE, symObjAddr: 0x48, symBinAddr: 0x578CC, symSize: 0xE0 }
  - { offset: 0x10539F, size: 0x8, addend: 0x0, symName: '__ZN69_$LT$_fast_ebook..errors..EpubError$u20$as$u20$core..fmt..Display$GT$3fmt17hac2cc9a2c626ece1E', symObjAddr: 0x0, symBinAddr: 0x579AC, symSize: 0x418 }
  - { offset: 0x105620, size: 0x8, addend: 0x0, symName: '__ZN69_$LT$_fast_ebook..errors..EpubError$u20$as$u20$core..fmt..Display$GT$3fmt17hac2cc9a2c626ece1E', symObjAddr: 0x0, symBinAddr: 0x579AC, symSize: 0x418 }
  - { offset: 0x105840, size: 0x8, addend: 0x0, symName: '__ZN99_$LT$_fast_ebook..errors..EpubError$u20$as$u20$core..convert..From$LT$zip..result..ZipError$GT$$GT$4from17h7b3a56916cd6b520E', symObjAddr: 0x418, symBinAddr: 0x57DC4, symSize: 0x24 }
  - { offset: 0x105872, size: 0x8, addend: 0x0, symName: '__ZN101_$LT$_fast_ebook..errors..EpubError$u20$as$u20$core..convert..From$LT$roxmltree..parse..Error$GT$$GT$4from17ha29c3bbdeaae4d86E', symObjAddr: 0x43C, symBinAddr: 0x57DE8, symSize: 0x30 }
  - { offset: 0x1058A5, size: 0x8, addend: 0x0, symName: '__ZN99_$LT$_fast_ebook..errors..EpubError$u20$as$u20$core..convert..From$LT$std..io..error..Error$GT$$GT$4from17hbd9bbcf3dab22cf3E', symObjAddr: 0x46C, symBinAddr: 0x57E18, symSize: 0x28 }
  - { offset: 0x106670, size: 0x8, addend: 0x0, symName: '__ZN10rayon_core5latch17LatchRef$LT$L$GT$3new17hfa759bb16e76b80fE', symObjAddr: 0x0, symBinAddr: 0x57E40, symSize: 0x14 }
  - { offset: 0x1066F6, size: 0x8, addend: 0x0, symName: '__ZN80_$LT$rayon_core..latch..LatchRef$LT$L$GT$$u20$as$u20$core..ops..deref..Deref$GT$5deref17h49cb1bff98e94bc9E', symObjAddr: 0x14, symBinAddr: 0x57E54, symSize: 0x70 }
  - { offset: 0x106733, size: 0x8, addend: 0x0, symName: '__ZN81_$LT$rayon_core..latch..LatchRef$LT$L$GT$$u20$as$u20$rayon_core..latch..Latch$GT$3set17h740fb8d0a29a61cfE', symObjAddr: 0x84, symBinAddr: 0x57EC4, symSize: 0x78 }
  - { offset: 0x106AFE, size: 0x8, addend: 0x0, symName: '__ZN10rayon_core5latch17LatchRef$LT$L$GT$3new17hfa759bb16e76b80fE', symObjAddr: 0x0, symBinAddr: 0x57E40, symSize: 0x14 }
  - { offset: 0x106B62, size: 0x8, addend: 0x0, symName: __ZN3zip12extra_fields14aex_encryption13AexEncryption3new17he213d32349a0be74E, symObjAddr: 0x0, symBinAddr: 0x57F3C, symSize: 0x1A0 }
  - { offset: 0x106CCD, size: 0x8, addend: 0x0, symName: __ZN3zip12extra_fields14aex_encryption13AexEncryption3new17he213d32349a0be74E, symObjAddr: 0x0, symBinAddr: 0x57F3C, symSize: 0x1A0 }
  - { offset: 0x106D46, size: 0x8, addend: 0x0, symName: '__ZN49_$LT$F$u20$as$u20$core..str..pattern..Pattern$GT$13into_searcher17hef51c1dfb575cab6E', symObjAddr: 0x0, symBinAddr: 0x580DC, symSize: 0x48 }
  - { offset: 0x106D67, size: 0x8, addend: 0x0, symName: '__ZN49_$LT$F$u20$as$u20$core..str..pattern..Pattern$GT$13into_searcher17hef51c1dfb575cab6E', symObjAddr: 0x0, symBinAddr: 0x580DC, symSize: 0x48 }
  - { offset: 0x106DB3, size: 0x8, addend: 0x0, symName: '__ZN53_$LT$F$u20$as$u20$core..str..pattern..MultiCharEq$GT$7matches17hdb275b8ea09ac76bE', symObjAddr: 0x48, symBinAddr: 0x58124, symSize: 0x28 }
  - { offset: 0x106FB1, size: 0x8, addend: 0x0, symName: __ZN5alloc3vec16in_place_collect18from_iter_in_place17h122a236671caaab2E, symObjAddr: 0x0, symBinAddr: 0x5814C, symSize: 0x268 }
  - { offset: 0x107AC8, size: 0x8, addend: 0x0, symName: __ZN5alloc3vec16in_place_collect18from_iter_in_place17h122a236671caaab2E, symObjAddr: 0x0, symBinAddr: 0x5814C, symSize: 0x268 }
  - { offset: 0x107F56, size: 0x8, addend: 0x0, symName: __ZN5alloc3vec16in_place_collect18from_iter_in_place17h510b4c0f772512ecE, symObjAddr: 0x268, symBinAddr: 0x583B4, symSize: 0x268 }
  - { offset: 0x1083E4, size: 0x8, addend: 0x0, symName: __ZN5alloc3vec16in_place_collect18from_iter_in_place17h97527fe16709269eE, symObjAddr: 0x4D0, symBinAddr: 0x5861C, symSize: 0x264 }
  - { offset: 0x10883E, size: 0x8, addend: 0x0, symName: '__ZN5alloc3vec16in_place_collect24write_in_place_with_drop28_$u7b$$u7b$closure$u7d$$u7d$17h264f58b98516f98aE', symObjAddr: 0x734, symBinAddr: 0x58880, symSize: 0x50 }
  - { offset: 0x1088BF, size: 0x8, addend: 0x0, symName: '__ZN5alloc3vec16in_place_collect24write_in_place_with_drop28_$u7b$$u7b$closure$u7d$$u7d$17he2bb7e50923876f6E', symObjAddr: 0x784, symBinAddr: 0x588D0, symSize: 0x60 }
  - { offset: 0x109396, size: 0x8, addend: 0x0, symName: '__ZN53_$LT$Q$u20$as$u20$equivalent..Equivalent$LT$K$GT$$GT$10equivalent17hc4533726859b1aefE', symObjAddr: 0x0, symBinAddr: 0x58930, symSize: 0x50 }
  - { offset: 0x1093AD, size: 0x8, addend: 0x0, symName: '__ZN53_$LT$Q$u20$as$u20$equivalent..Equivalent$LT$K$GT$$GT$10equivalent17hc4533726859b1aefE', symObjAddr: 0x0, symBinAddr: 0x58930, symSize: 0x50 }
  - { offset: 0x10940F, size: 0x8, addend: 0x0, symName: '__ZN77_$LT$crc32fast..specialized..aarch64..State$u20$as$u20$core..clone..Clone$GT$5clone17h6a75c424b861cadcE', symObjAddr: 0x50, symBinAddr: 0x58980, symSize: 0x18 }
  - { offset: 0x1094ED, size: 0x8, addend: 0x0, symName: '__ZN100_$LT$core..iter..adapters..skip..Skip$LT$I$GT$$u20$as$u20$core..iter..traits..iterator..Iterator$GT$4next17h25c2accc1be5c238E', symObjAddr: 0x0, symBinAddr: 0x58998, symSize: 0x78 }
  - { offset: 0x109611, size: 0x8, addend: 0x0, symName: '__ZN100_$LT$core..iter..adapters..skip..Skip$LT$I$GT$$u20$as$u20$core..iter..traits..iterator..Iterator$GT$4next17h25c2accc1be5c238E', symObjAddr: 0x0, symBinAddr: 0x58998, symSize: 0x78 }
  - { offset: 0x109696, size: 0x8, addend: 0x0, symName: '__ZN100_$LT$core..iter..adapters..skip..Skip$LT$I$GT$$u20$as$u20$core..iter..traits..iterator..Iterator$GT$4next17h9a7bc526acdf0a1eE', symObjAddr: 0x78, symBinAddr: 0x58A10, symSize: 0x84 }
  - { offset: 0x10980B, size: 0x8, addend: 0x0, symName: '__ZN63_$LT$I$u20$as$u20$core..iter..traits..collect..IntoIterator$GT$9into_iter17h17fd85a833d8aedcE', symObjAddr: 0xFC, symBinAddr: 0x58A94, symSize: 0x30 }
  - { offset: 0x109843, size: 0x8, addend: 0x0, symName: '__ZN63_$LT$I$u20$as$u20$core..iter..traits..collect..IntoIterator$GT$9into_iter17h212431f7c0e89890E', symObjAddr: 0x12C, symBinAddr: 0x58AC4, symSize: 0x14 }
  - { offset: 0x109AF8, size: 0x8, addend: 0x0, symName: __ZN4core4iter6traits8iterator8Iterator3any17h58615e5a93f4fcd8E, symObjAddr: 0x0, symBinAddr: 0x58AD8, symSize: 0x3C }
  - { offset: 0x109B1E, size: 0x8, addend: 0x0, symName: __ZN4core4iter6traits8iterator8Iterator3any17h58615e5a93f4fcd8E, symObjAddr: 0x0, symBinAddr: 0x58AD8, symSize: 0x3C }
  - { offset: 0x109B6D, size: 0x8, addend: 0x0, symName: __ZN4core4iter6traits8iterator8Iterator4find17h0c6fad609557ac8bE, symObjAddr: 0x3C, symBinAddr: 0x58B14, symSize: 0x8C }
  - { offset: 0x109BE8, size: 0x8, addend: 0x0, symName: __ZN4core4iter6traits8iterator8Iterator4find17h1df55e685445fd20E, symObjAddr: 0xC8, symBinAddr: 0x58BA0, symSize: 0x8C }
  - { offset: 0x109C63, size: 0x8, addend: 0x0, symName: __ZN4core4iter6traits8iterator8Iterator4find17h35a5b3adbf47b0bcE, symObjAddr: 0x154, symBinAddr: 0x58C2C, symSize: 0x8C }
  - { offset: 0x109CDE, size: 0x8, addend: 0x0, symName: __ZN4core4iter6traits8iterator8Iterator4find17h4a5ca93342cafa37E, symObjAddr: 0x1E0, symBinAddr: 0x58CB8, symSize: 0x8C }
  - { offset: 0x109D59, size: 0x8, addend: 0x0, symName: __ZN4core4iter6traits8iterator8Iterator4find17h53e87bfe50bd10f7E, symObjAddr: 0x26C, symBinAddr: 0x58D44, symSize: 0x8C }
  - { offset: 0x109DD4, size: 0x8, addend: 0x0, symName: __ZN4core4iter6traits8iterator8Iterator4find17h54816959b5c058f9E, symObjAddr: 0x2F8, symBinAddr: 0x58DD0, symSize: 0x8C }
  - { offset: 0x109E4F, size: 0x8, addend: 0x0, symName: __ZN4core4iter6traits8iterator8Iterator4find17h6a3cc0f20fce252aE, symObjAddr: 0x384, symBinAddr: 0x58E5C, symSize: 0x8C }
  - { offset: 0x109ECA, size: 0x8, addend: 0x0, symName: __ZN4core4iter6traits8iterator8Iterator4find17h792bcb881155fb8cE, symObjAddr: 0x410, symBinAddr: 0x58EE8, symSize: 0x8C }
  - { offset: 0x109F45, size: 0x8, addend: 0x0, symName: __ZN4core4iter6traits8iterator8Iterator4find17h7a7edc47043f559aE, symObjAddr: 0x49C, symBinAddr: 0x58F74, symSize: 0x94 }
  - { offset: 0x109FC0, size: 0x8, addend: 0x0, symName: __ZN4core4iter6traits8iterator8Iterator4find17h7c826fd7031164aeE, symObjAddr: 0x530, symBinAddr: 0x59008, symSize: 0x94 }
  - { offset: 0x10A03B, size: 0x8, addend: 0x0, symName: __ZN4core4iter6traits8iterator8Iterator4find17h9167b1ccbc0681d1E, symObjAddr: 0x5C4, symBinAddr: 0x5909C, symSize: 0x8C }
  - { offset: 0x10A0B6, size: 0x8, addend: 0x0, symName: __ZN4core4iter6traits8iterator8Iterator4find17h9bb5237089b851daE, symObjAddr: 0x650, symBinAddr: 0x59128, symSize: 0x8C }
  - { offset: 0x10A131, size: 0x8, addend: 0x0, symName: __ZN4core4iter6traits8iterator8Iterator4find17ha620e527638df155E, symObjAddr: 0x6DC, symBinAddr: 0x591B4, symSize: 0x8C }
  - { offset: 0x10A1AC, size: 0x8, addend: 0x0, symName: __ZN4core4iter6traits8iterator8Iterator4find17ha87c3d6ef8546dc5E, symObjAddr: 0x768, symBinAddr: 0x59240, symSize: 0x8C }
  - { offset: 0x10A227, size: 0x8, addend: 0x0, symName: __ZN4core4iter6traits8iterator8Iterator4find17ha8f9c2aca8c9dca1E, symObjAddr: 0x7F4, symBinAddr: 0x592CC, symSize: 0x8C }
  - { offset: 0x10A2A2, size: 0x8, addend: 0x0, symName: __ZN4core4iter6traits8iterator8Iterator4find17hbcee4c68ed6f9153E, symObjAddr: 0x880, symBinAddr: 0x59358, symSize: 0x8C }
  - { offset: 0x10A31D, size: 0x8, addend: 0x0, symName: __ZN4core4iter6traits8iterator8Iterator4find17hcb8c9ae51ab614aaE, symObjAddr: 0x90C, symBinAddr: 0x593E4, symSize: 0x8C }
  - { offset: 0x10A398, size: 0x8, addend: 0x0, symName: __ZN4core4iter6traits8iterator8Iterator4find17hd9c2f30e0e960c37E, symObjAddr: 0x998, symBinAddr: 0x59470, symSize: 0x8C }
  - { offset: 0x10A413, size: 0x8, addend: 0x0, symName: __ZN4core4iter6traits8iterator8Iterator4find17heeb091529f5af1d6E, symObjAddr: 0xA24, symBinAddr: 0x594FC, symSize: 0x8C }
  - { offset: 0x10A48E, size: 0x8, addend: 0x0, symName: __ZN4core4iter6traits8iterator8Iterator6filter17haf742fcc3af96745E, symObjAddr: 0xAB0, symBinAddr: 0x59588, symSize: 0x30 }
  - { offset: 0x10A4F3, size: 0x8, addend: 0x0, symName: __ZN4core4iter6traits8iterator8Iterator8try_fold17h09f23bacd59c7953E, symObjAddr: 0xAE0, symBinAddr: 0x595B8, symSize: 0x168 }
  - { offset: 0x10A5AF, size: 0x8, addend: 0x0, symName: __ZN4core4iter6traits8iterator8Iterator8try_fold17h28105f1baf676528E, symObjAddr: 0xC48, symBinAddr: 0x59720, symSize: 0x168 }
  - { offset: 0x10A66B, size: 0x8, addend: 0x0, symName: __ZN4core4iter6traits8iterator8Iterator8try_fold17h319148c72ced175aE, symObjAddr: 0xDB0, symBinAddr: 0x59888, symSize: 0x168 }
  - { offset: 0x10A727, size: 0x8, addend: 0x0, symName: __ZN4core4iter6traits8iterator8Iterator8try_fold17h35e189a273b771adE, symObjAddr: 0xF18, symBinAddr: 0x599F0, symSize: 0x168 }
  - { offset: 0x10A7E3, size: 0x8, addend: 0x0, symName: __ZN4core4iter6traits8iterator8Iterator8try_fold17h39e61621602e523dE, symObjAddr: 0x1080, symBinAddr: 0x59B58, symSize: 0x198 }
  - { offset: 0x10A899, size: 0x8, addend: 0x0, symName: __ZN4core4iter6traits8iterator8Iterator8try_fold17h4282bc54241f7af1E, symObjAddr: 0x1218, symBinAddr: 0x59CF0, symSize: 0x168 }
  - { offset: 0x10A955, size: 0x8, addend: 0x0, symName: __ZN4core4iter6traits8iterator8Iterator8try_fold17h488af27a93e8ea1dE, symObjAddr: 0x1380, symBinAddr: 0x59E58, symSize: 0x168 }
  - { offset: 0x10AA11, size: 0x8, addend: 0x0, symName: __ZN4core4iter6traits8iterator8Iterator8try_fold17h54842c5ec601474eE, symObjAddr: 0x14E8, symBinAddr: 0x59FC0, symSize: 0x168 }
  - { offset: 0x10AACD, size: 0x8, addend: 0x0, symName: __ZN4core4iter6traits8iterator8Iterator8try_fold17h5af81f55339e5e5fE, symObjAddr: 0x1650, symBinAddr: 0x5A128, symSize: 0x168 }
  - { offset: 0x10AB89, size: 0x8, addend: 0x0, symName: __ZN4core4iter6traits8iterator8Iterator8try_fold17h6d820aa974238040E, symObjAddr: 0x17B8, symBinAddr: 0x5A290, symSize: 0x168 }
  - { offset: 0x10AC45, size: 0x8, addend: 0x0, symName: __ZN4core4iter6traits8iterator8Iterator8try_fold17h721f662f8a9e8e60E, symObjAddr: 0x1920, symBinAddr: 0x5A3F8, symSize: 0x168 }
  - { offset: 0x10AD01, size: 0x8, addend: 0x0, symName: __ZN4core4iter6traits8iterator8Iterator8try_fold17h79d03c0dd873bbceE, symObjAddr: 0x1A88, symBinAddr: 0x5A560, symSize: 0x168 }
  - { offset: 0x10ADBD, size: 0x8, addend: 0x0, symName: __ZN4core4iter6traits8iterator8Iterator8try_fold17h8dda4e9f6318d421E, symObjAddr: 0x1BF0, symBinAddr: 0x5A6C8, symSize: 0x168 }
  - { offset: 0x10AE79, size: 0x8, addend: 0x0, symName: __ZN4core4iter6traits8iterator8Iterator8try_fold17h90b03665449a2261E, symObjAddr: 0x1D58, symBinAddr: 0x5A830, symSize: 0x168 }
  - { offset: 0x10AF35, size: 0x8, addend: 0x0, symName: __ZN4core4iter6traits8iterator8Iterator8try_fold17h9411fbcc9b0ce6d0E, symObjAddr: 0x1EC0, symBinAddr: 0x5A998, symSize: 0x168 }
  - { offset: 0x10AFF1, size: 0x8, addend: 0x0, symName: __ZN4core4iter6traits8iterator8Iterator8try_fold17h9f675a9d1815484bE, symObjAddr: 0x2028, symBinAddr: 0x5AB00, symSize: 0x168 }
  - { offset: 0x10B0AD, size: 0x8, addend: 0x0, symName: __ZN4core4iter6traits8iterator8Iterator8try_fold17ha254f79705b13911E, symObjAddr: 0x2190, symBinAddr: 0x5AC68, symSize: 0x168 }
  - { offset: 0x10B169, size: 0x8, addend: 0x0, symName: __ZN4core4iter6traits8iterator8Iterator8try_fold17hc174c9b15f5f1f0fE, symObjAddr: 0x22F8, symBinAddr: 0x5ADD0, symSize: 0x198 }
  - { offset: 0x10B21F, size: 0x8, addend: 0x0, symName: __ZN4core4iter6traits8iterator8Iterator8try_fold17hce2570398ab62103E, symObjAddr: 0x2490, symBinAddr: 0x5AF68, symSize: 0x168 }
  - { offset: 0x10B2DB, size: 0x8, addend: 0x0, symName: __ZN4core4iter6traits8iterator8Iterator8try_fold17hdf75aec8f5f721ceE, symObjAddr: 0x25F8, symBinAddr: 0x5B0D0, symSize: 0x168 }
  - { offset: 0x10B397, size: 0x8, addend: 0x0, symName: __ZN4core4iter6traits8iterator8Iterator8try_fold17he7b73ebeca732869E, symObjAddr: 0x2760, symBinAddr: 0x5B238, symSize: 0x13C }
  - { offset: 0x10B44A, size: 0x8, addend: 0x0, symName: __ZN4core4iter6traits8iterator8Iterator9size_hint17hb882e472980d973eE, symObjAddr: 0x289C, symBinAddr: 0x5B374, symSize: 0x34 }
  - { offset: 0x10B63E, size: 0x8, addend: 0x0, symName: '__ZN63_$LT$I$u20$as$u20$core..iter..traits..collect..IntoIterator$GT$9into_iter17hc333c0c40b0c5ec1E', symObjAddr: 0x28F8, symBinAddr: 0x5B3D0, symSize: 0x30 }
  - { offset: 0x10BFD4, size: 0x8, addend: 0x0, symName: '__ZN4core5slice29_$LT$impl$u20$$u5b$T$u5d$$GT$4iter17hcee8a690899a2a29E', symObjAddr: 0x28D0, symBinAddr: 0x5B3A8, symSize: 0x28 }
  - { offset: 0x10C432, size: 0x8, addend: 0x0, symName: '__ZN81_$LT$roxmltree..Descendants$u20$as$u20$core..iter..traits..iterator..Iterator$GT$4next28_$u7b$$u7b$closure$u7d$$u7d$17hea9d2756ba0c3b38E', symObjAddr: 0x2928, symBinAddr: 0x5B400, symSize: 0x84 }
  - { offset: 0x10C4B2, size: 0x8, addend: 0x0, symName: '__ZN9roxmltree4Node4text28_$u7b$$u7b$closure$u7d$$u7d$17h8d9f47fc66c584f7E', symObjAddr: 0x29AC, symBinAddr: 0x5B484, symSize: 0x24 }
  - { offset: 0x10C4F8, size: 0x8, addend: 0x0, symName: '__ZN9roxmltree4Node9attribute28_$u7b$$u7b$closure$u7d$$u7d$17h1571775c2df0d3dbE', symObjAddr: 0x2AA8, symBinAddr: 0x5B580, symSize: 0x54 }
  - { offset: 0x10C555, size: 0x8, addend: 0x0, symName: '__ZN9roxmltree4Node9attribute28_$u7b$$u7b$closure$u7d$$u7d$17h20e29e321ad16e77E', symObjAddr: 0x2AFC, symBinAddr: 0x5B5D4, symSize: 0x2C }
  - { offset: 0x10C597, size: 0x8, addend: 0x0, symName: '__ZN9roxmltree4Node9attribute28_$u7b$$u7b$closure$u7d$$u7d$17h25a5627db86d531dE', symObjAddr: 0x2B28, symBinAddr: 0x5B600, symSize: 0x2C }
  - { offset: 0x10C5D9, size: 0x8, addend: 0x0, symName: '__ZN9roxmltree4Node9attribute28_$u7b$$u7b$closure$u7d$$u7d$17hf617d0baf4ee0176E', symObjAddr: 0x2B54, symBinAddr: 0x5B62C, symSize: 0x54 }
  - { offset: 0x10CF8E, size: 0x8, addend: 0x0, symName: __ZN9roxmltree4Node9attribute17ha90dd5ce0166c9d9E, symObjAddr: 0x29D0, symBinAddr: 0x5B4A8, symSize: 0x64 }
  - { offset: 0x10CFE8, size: 0x8, addend: 0x0, symName: __ZN9roxmltree4Node9attribute17hbb1abff6c6e5dce1E, symObjAddr: 0x2A34, symBinAddr: 0x5B50C, symSize: 0x74 }
  - { offset: 0x10D158, size: 0x8, addend: 0x0, symName: '__ZN67_$LT$flate2..zio..Writer$LT$W$C$D$GT$$u20$as$u20$std..io..Write$GT$5flush17h1c65331c4f7d421aE', symObjAddr: 0x0, symBinAddr: 0x5B680, symSize: 0x1EC }
  - { offset: 0x10EA7A, size: 0x8, addend: 0x0, symName: '__ZN67_$LT$flate2..zio..Writer$LT$W$C$D$GT$$u20$as$u20$std..io..Write$GT$5flush17h1c65331c4f7d421aE', symObjAddr: 0x0, symBinAddr: 0x5B680, symSize: 0x1EC }
  - { offset: 0x10EB52, size: 0x8, addend: 0x0, symName: '__ZN67_$LT$flate2..zio..Writer$LT$W$C$D$GT$$u20$as$u20$std..io..Write$GT$5flush17hb4964c547f21784eE', symObjAddr: 0x1EC, symBinAddr: 0x5B86C, symSize: 0x1DC }
  - { offset: 0x10EC2A, size: 0x8, addend: 0x0, symName: '__ZN67_$LT$flate2..zio..Writer$LT$W$C$D$GT$$u20$as$u20$std..io..Write$GT$5write17h45fb5560011fb6f5E', symObjAddr: 0x3C8, symBinAddr: 0x5BA48, symSize: 0x40 }
  - { offset: 0x10EC79, size: 0x8, addend: 0x0, symName: '__ZN67_$LT$flate2..zio..Writer$LT$W$C$D$GT$$u20$as$u20$std..io..Write$GT$5write17hb29014e29d313d95E', symObjAddr: 0x408, symBinAddr: 0x5BA88, symSize: 0x40 }
  - { offset: 0x10ECCD, size: 0x8, addend: 0x0, symName: '__ZN67_$LT$flate2..zio..Writer$LT$W$C$D$GT$$u20$as$u20$std..io..Write$GT$5write28_$u7b$$u7b$closure$u7d$$u7d$17h8221b127d35fddabE', symObjAddr: 0x448, symBinAddr: 0x5BAC8, symSize: 0x14 }
  - { offset: 0x10ED18, size: 0x8, addend: 0x0, symName: '__ZN67_$LT$flate2..zio..Writer$LT$W$C$D$GT$$u20$as$u20$std..io..Write$GT$5write28_$u7b$$u7b$closure$u7d$$u7d$17hdb3a0ce4da5a0b4dE', symObjAddr: 0x45C, symBinAddr: 0x5BADC, symSize: 0x14 }
  - { offset: 0x10EF8E, size: 0x8, addend: 0x0, symName: __ZN6flate23zio4read17ha8c65150db5a0949E, symObjAddr: 0x1154, symBinAddr: 0x5C7D4, symSize: 0x3BC }
  - { offset: 0x10F099, size: 0x8, addend: 0x0, symName: __ZN6flate23zio4read17hc5414f61fa397239E, symObjAddr: 0x1510, symBinAddr: 0x5CB90, symSize: 0x3BC }
  - { offset: 0x10F8CA, size: 0x8, addend: 0x0, symName: '__ZN6flate23zio19Writer$LT$W$C$D$GT$10take_inner17ha0a0f68aa3dad579E', symObjAddr: 0x470, symBinAddr: 0x5BAF0, symSize: 0x78 }
  - { offset: 0x10F953, size: 0x8, addend: 0x0, symName: '__ZN6flate23zio19Writer$LT$W$C$D$GT$10take_inner17haeb1b1b85cfe82b8E', symObjAddr: 0x4E8, symBinAddr: 0x5BB68, symSize: 0x78 }
  - { offset: 0x10FA4F, size: 0x8, addend: 0x0, symName: '__ZN6flate23zio19Writer$LT$W$C$D$GT$17write_with_status17h16c40719f12fa1a4E', symObjAddr: 0x560, symBinAddr: 0x5BBE0, symSize: 0x278 }
  - { offset: 0x10FB23, size: 0x8, addend: 0x0, symName: '__ZN6flate23zio19Writer$LT$W$C$D$GT$17write_with_status17hb062afdcbded1303E', symObjAddr: 0x7D8, symBinAddr: 0x5BE58, symSize: 0x268 }
  - { offset: 0x10FBF7, size: 0x8, addend: 0x0, symName: '__ZN6flate23zio19Writer$LT$W$C$D$GT$3new17h7c4e8bc6aacfc13cE', symObjAddr: 0xA40, symBinAddr: 0x5C0C0, symSize: 0x14C }
  - { offset: 0x10FC3B, size: 0x8, addend: 0x0, symName: '__ZN6flate23zio19Writer$LT$W$C$D$GT$3new17hb2cb90fa37383ff8E', symObjAddr: 0xB8C, symBinAddr: 0x5C20C, symSize: 0x130 }
  - { offset: 0x10FC7F, size: 0x8, addend: 0x0, symName: '__ZN6flate23zio19Writer$LT$W$C$D$GT$4dump17h93bdaca8f6645dacE', symObjAddr: 0xCBC, symBinAddr: 0x5C33C, symSize: 0x124 }
  - { offset: 0x10FD0A, size: 0x8, addend: 0x0, symName: '__ZN6flate23zio19Writer$LT$W$C$D$GT$4dump17hd4532912f2c9ea02E', symObjAddr: 0xDE0, symBinAddr: 0x5C460, symSize: 0x124 }
  - { offset: 0x10FD95, size: 0x8, addend: 0x0, symName: '__ZN6flate23zio19Writer$LT$W$C$D$GT$6finish17hb9a1eb9d6568f5beE', symObjAddr: 0xF04, symBinAddr: 0x5C584, symSize: 0x130 }
  - { offset: 0x10FE20, size: 0x8, addend: 0x0, symName: '__ZN6flate23zio19Writer$LT$W$C$D$GT$6finish17hf5596756c786ebbcE', symObjAddr: 0x1034, symBinAddr: 0x5C6B4, symSize: 0x120 }
  - { offset: 0x10FF7A, size: 0x8, addend: 0x0, symName: __ZN10rayon_core3job6JobRef2id17h48c563e293cdc8e1E, symObjAddr: 0x0, symBinAddr: 0x5CF4C, symSize: 0x20 }
  - { offset: 0x11002D, size: 0x8, addend: 0x0, symName: __ZN10rayon_core3job6JobRef2id17h48c563e293cdc8e1E, symObjAddr: 0x0, symBinAddr: 0x5CF4C, symSize: 0x20 }
  - { offset: 0x11004F, size: 0x8, addend: 0x0, symName: __ZN10rayon_core3job6JobRef7execute17h30352bb2654ed3a7E, symObjAddr: 0x20, symBinAddr: 0x5CF6C, symSize: 0x30 }
  - { offset: 0x11008F, size: 0x8, addend: 0x0, symName: __ZN4core3any9type_name17h5993e5ea3d1a539cE, symObjAddr: 0x0, symBinAddr: 0x5CF9C, symSize: 0x28 }
  - { offset: 0x1100A6, size: 0x8, addend: 0x0, symName: __ZN4core3any9type_name17h5993e5ea3d1a539cE, symObjAddr: 0x0, symBinAddr: 0x5CF9C, symSize: 0x28 }
  - { offset: 0x1100CE, size: 0x8, addend: 0x0, symName: __ZN4core3any9type_name17h62a9cef2fab5193cE, symObjAddr: 0x28, symBinAddr: 0x5CFC4, symSize: 0x28 }
  - { offset: 0x1100F6, size: 0x8, addend: 0x0, symName: __ZN4core3any9type_name17haa060f9f2ba3ad99E, symObjAddr: 0x50, symBinAddr: 0x5CFEC, symSize: 0x28 }
  - { offset: 0x11011E, size: 0x8, addend: 0x0, symName: __ZN4core3any9type_name17hdf15d7ab884d2fd0E, symObjAddr: 0x78, symBinAddr: 0x5D014, symSize: 0x28 }
  - { offset: 0x110146, size: 0x8, addend: 0x0, symName: __ZN4core3any9type_name17he8b63e4fa374f56eE, symObjAddr: 0xA0, symBinAddr: 0x5D03C, symSize: 0x28 }
  - { offset: 0x11042D, size: 0x8, addend: 0x0, symName: '__ZN4core3str4iter29MatchIndicesInternal$LT$P$GT$4next28_$u7b$$u7b$closure$u7d$$u7d$17h1bb36a2d11404a53E', symObjAddr: 0x0, symBinAddr: 0x5D064, symSize: 0xA8 }
  - { offset: 0x1104DD, size: 0x8, addend: 0x0, symName: '__ZN4core3str4iter29MatchIndicesInternal$LT$P$GT$4next28_$u7b$$u7b$closure$u7d$$u7d$17h1bb36a2d11404a53E', symObjAddr: 0x0, symBinAddr: 0x5D064, symSize: 0xA8 }
  - { offset: 0x110635, size: 0x8, addend: 0x0, symName: '__ZN91_$LT$core..str..iter..RSplit$LT$P$GT$$u20$as$u20$core..iter..traits..iterator..Iterator$GT$4next17hb0294258d7a769ceE', symObjAddr: 0x190, symBinAddr: 0x5D1F4, symSize: 0x24 }
  - { offset: 0x1108D1, size: 0x8, addend: 0x0, symName: __ZN4core4iter6traits8iterator8Iterator10filter_map17h11141b75ac449be1E, symObjAddr: 0xA8, symBinAddr: 0x5D10C, symSize: 0x30 }
  - { offset: 0x11093E, size: 0x8, addend: 0x0, symName: __ZN4core4iter6traits8iterator8Iterator4fold17h7632e72f6f19a22eE, symObjAddr: 0xD8, symBinAddr: 0x5D13C, symSize: 0xB8 }
  - { offset: 0x110D55, size: 0x8, addend: 0x0, symName: '__ZN76_$LT$zip..compression..CompressionMethod$u20$as$u20$core..cmp..PartialEq$GT$2eq17hef6e145eb1dbf3d1E', symObjAddr: 0x0, symBinAddr: 0x5D218, symSize: 0xCC }
  - { offset: 0x110D71, size: 0x8, addend: 0x0, symName: '__ZN76_$LT$zip..compression..CompressionMethod$u20$as$u20$core..cmp..PartialEq$GT$2eq17hef6e145eb1dbf3d1E', symObjAddr: 0x0, symBinAddr: 0x5D218, symSize: 0xCC }
  - { offset: 0x110EB6, size: 0x8, addend: 0x0, symName: __ZN3std2io4Read11read_to_end17h86a4e03d91832c11E, symObjAddr: 0x0, symBinAddr: 0x5D2E4, symSize: 0x40 }
  - { offset: 0x111124, size: 0x8, addend: 0x0, symName: __ZN3std2io4Read11read_to_end17h86a4e03d91832c11E, symObjAddr: 0x0, symBinAddr: 0x5D2E4, symSize: 0x40 }
  - { offset: 0x11116A, size: 0x8, addend: 0x0, symName: __ZN3std2io4Read11read_to_end17hef35525d2c7b16c3E, symObjAddr: 0x40, symBinAddr: 0x5D324, symSize: 0x40 }
  - { offset: 0x1111B0, size: 0x8, addend: 0x0, symName: __ZN3std2io4Read14read_to_string17h3a6f613d92dd3a14E, symObjAddr: 0x80, symBinAddr: 0x5D364, symSize: 0x58 }
  - { offset: 0x111224, size: 0x8, addend: 0x0, symName: __ZN3std2io4Read14read_to_string17he104e3c449571ad2E, symObjAddr: 0xD8, symBinAddr: 0x5D3BC, symSize: 0x58 }
  - { offset: 0x111298, size: 0x8, addend: 0x0, symName: __ZN3std2io4Read8read_buf17h05a34972cb80edbaE, symObjAddr: 0x130, symBinAddr: 0x5D414, symSize: 0x30 }
  - { offset: 0x1112DE, size: 0x8, addend: 0x0, symName: __ZN3std2io4Read8read_buf17hedb9d7ce02080e87E, symObjAddr: 0x160, symBinAddr: 0x5D444, symSize: 0x30 }
  - { offset: 0x1123D9, size: 0x8, addend: 0x0, symName: '__ZN73_$LT$zip..compression..Decompressor$LT$R$GT$$u20$as$u20$std..io..Read$GT$4read17heae3c2cc77fa571dE', symObjAddr: 0x598, symBinAddr: 0x5D87C, symSize: 0x9C }
  - { offset: 0x11245B, size: 0x8, addend: 0x0, symName: '__ZN73_$LT$zip..compression..Decompressor$LT$R$GT$$u20$as$u20$std..io..Read$GT$4read17hff0e0387bed3d3f8E', symObjAddr: 0x634, symBinAddr: 0x5D918, symSize: 0x9C }
  - { offset: 0x112BCB, size: 0x8, addend: 0x0, symName: '__ZN3zip11compression21Decompressor$LT$R$GT$10into_inner17h4a6c0a6faab5cdefE', symObjAddr: 0x190, symBinAddr: 0x5D474, symSize: 0xC4 }
  - { offset: 0x112C55, size: 0x8, addend: 0x0, symName: '__ZN3zip11compression21Decompressor$LT$R$GT$10into_inner17hcc350f43f5ac5eccE', symObjAddr: 0x254, symBinAddr: 0x5D538, symSize: 0xC4 }
  - { offset: 0x112CDF, size: 0x8, addend: 0x0, symName: '__ZN3zip11compression21Decompressor$LT$R$GT$3new17h504da41e76c6acd8E', symObjAddr: 0x318, symBinAddr: 0x5D5FC, symSize: 0x140 }
  - { offset: 0x112D39, size: 0x8, addend: 0x0, symName: '__ZN3zip11compression21Decompressor$LT$R$GT$3new17hb2808bd1a4576087E', symObjAddr: 0x458, symBinAddr: 0x5D73C, symSize: 0x140 }
  - { offset: 0x112DFF, size: 0x8, addend: 0x0, symName: '__ZN6flate27deflate7bufread23DeflateDecoder$LT$R$GT$10into_inner17h4047581358f91547E', symObjAddr: 0x0, symBinAddr: 0x5D9B4, symSize: 0x40 }
  - { offset: 0x113BE8, size: 0x8, addend: 0x0, symName: '__ZN83_$LT$flate2..deflate..bufread..DeflateDecoder$LT$R$GT$$u20$as$u20$std..io..Read$GT$4read17h06667102badae01eE', symObjAddr: 0x1C0, symBinAddr: 0x5DB74, symSize: 0x44 }
  - { offset: 0x113C2B, size: 0x8, addend: 0x0, symName: '__ZN83_$LT$flate2..deflate..bufread..DeflateDecoder$LT$R$GT$$u20$as$u20$std..io..Read$GT$4read17he853817b4f285e38E', symObjAddr: 0x204, symBinAddr: 0x5DBB8, symSize: 0x44 }
  - { offset: 0x11403D, size: 0x8, addend: 0x0, symName: '__ZN6flate27deflate7bufread23DeflateDecoder$LT$R$GT$10into_inner17h4047581358f91547E', symObjAddr: 0x0, symBinAddr: 0x5D9B4, symSize: 0x40 }
  - { offset: 0x114076, size: 0x8, addend: 0x0, symName: '__ZN6flate27deflate7bufread23DeflateDecoder$LT$R$GT$10into_inner17h4df9a103681dd9b6E', symObjAddr: 0x40, symBinAddr: 0x5D9F4, symSize: 0x40 }
  - { offset: 0x1140A2, size: 0x8, addend: 0x0, symName: '__ZN6flate27deflate7bufread23DeflateDecoder$LT$R$GT$3new17h008a5fa064bacf45E', symObjAddr: 0x80, symBinAddr: 0x5DA34, symSize: 0xA0 }
  - { offset: 0x1140CE, size: 0x8, addend: 0x0, symName: '__ZN6flate27deflate7bufread23DeflateDecoder$LT$R$GT$3new17h75b3f37e40c3d70eE', symObjAddr: 0x120, symBinAddr: 0x5DAD4, symSize: 0xA0 }
  - { offset: 0x1141A1, size: 0x8, addend: 0x0, symName: __ZN3std2io8buffered9bufreader6buffer6Buffer8fill_buf17h263e902bab72b6e7E, symObjAddr: 0x0, symBinAddr: 0x5DBFC, symSize: 0x1D4 }
  - { offset: 0x1150E9, size: 0x8, addend: 0x0, symName: __ZN3std2io8buffered9bufreader6buffer6Buffer8fill_buf17h263e902bab72b6e7E, symObjAddr: 0x0, symBinAddr: 0x5DBFC, symSize: 0x1D4 }
  - { offset: 0x1153C3, size: 0x8, addend: 0x0, symName: __ZN3std2io8buffered9bufreader6buffer6Buffer8fill_buf17hf749ac906d710a08E, symObjAddr: 0x1D4, symBinAddr: 0x5DDD0, symSize: 0x1D4 }
  - { offset: 0x11563C, size: 0x8, addend: 0x0, symName: '__ZN50_$LT$T$u20$as$u20$core..convert..Into$LT$U$GT$$GT$4into17h3862aace665f4abfE', symObjAddr: 0x0, symBinAddr: 0x5DFA4, symSize: 0x14 }
  - { offset: 0x115658, size: 0x8, addend: 0x0, symName: '__ZN50_$LT$T$u20$as$u20$core..convert..Into$LT$U$GT$$GT$4into17h3862aace665f4abfE', symObjAddr: 0x0, symBinAddr: 0x5DFA4, symSize: 0x14 }
  - { offset: 0x115699, size: 0x8, addend: 0x0, symName: '__ZN50_$LT$T$u20$as$u20$core..convert..Into$LT$U$GT$$GT$4into17h4823a9c53c18f686E', symObjAddr: 0x14, symBinAddr: 0x5DFB8, symSize: 0x1C }
  - { offset: 0x1156F7, size: 0x8, addend: 0x0, symName: '__ZN50_$LT$T$u20$as$u20$core..convert..Into$LT$U$GT$$GT$4into17hd98eff9ffa5c0161E', symObjAddr: 0x30, symBinAddr: 0x5DFD4, symSize: 0x28 }
  - { offset: 0x115765, size: 0x8, addend: 0x0, symName: '__ZN53_$LT$T$u20$as$u20$core..convert..TryInto$LT$U$GT$$GT$8try_into17h18d4235efa12e182E', symObjAddr: 0x58, symBinAddr: 0x5DFFC, symSize: 0x20 }
  - { offset: 0x1159A6, size: 0x8, addend: 0x0, symName: __ZN10rayon_core5sleep8counters13select_thread17hd4bcc59ef210b52dE, symObjAddr: 0x0, symBinAddr: 0x5E01C, symSize: 0x54 }
  - { offset: 0x1159C2, size: 0x8, addend: 0x0, symName: __ZN10rayon_core5sleep8counters13select_thread17hd4bcc59ef210b52dE, symObjAddr: 0x0, symBinAddr: 0x5E01C, symSize: 0x54 }
  - { offset: 0x115A5B, size: 0x8, addend: 0x0, symName: __ZN10rayon_core5sleep8counters8Counters16inactive_threads17h6a16a6e703c87daeE, symObjAddr: 0x54, symBinAddr: 0x5E070, symSize: 0x28 }
  - { offset: 0x115A7D, size: 0x8, addend: 0x0, symName: __ZN10rayon_core5sleep8counters8Counters16sleeping_threads17hbec80c6daeeabe82E, symObjAddr: 0x7C, symBinAddr: 0x5E098, symSize: 0x24 }
  - { offset: 0x115AA0, size: 0x8, addend: 0x0, symName: __ZN10rayon_core5sleep8counters8Counters22awake_but_idle_threads17h4ef7a68f52aa6cccE, symObjAddr: 0xA0, symBinAddr: 0x5E0BC, symSize: 0x110 }
  - { offset: 0x115DC2, size: 0x8, addend: 0x0, symName: '__ZN5alloc3str21_$LT$impl$u20$str$GT$6repeat17h1abde3bf42ca358fE', symObjAddr: 0x0, symBinAddr: 0x5E1CC, symSize: 0x48 }
  - { offset: 0x115EC5, size: 0x8, addend: 0x0, symName: '__ZN5alloc3str21_$LT$impl$u20$str$GT$6repeat17h1abde3bf42ca358fE', symObjAddr: 0x0, symBinAddr: 0x5E1CC, symSize: 0x48 }
  - { offset: 0x11602F, size: 0x8, addend: 0x0, symName: '__ZN52_$LT$char$u20$as$u20$core..str..pattern..Pattern$GT$13into_searcher17h101f978dffe2668dE', symObjAddr: 0x0, symBinAddr: 0x5E214, symSize: 0x114 }
  - { offset: 0x11610C, size: 0x8, addend: 0x0, symName: '__ZN52_$LT$char$u20$as$u20$core..str..pattern..Pattern$GT$13into_searcher17h101f978dffe2668dE', symObjAddr: 0x0, symBinAddr: 0x5E214, symSize: 0x114 }
  - { offset: 0x116224, size: 0x8, addend: 0x0, symName: '__ZN52_$LT$char$u20$as$u20$core..str..pattern..Pattern$GT$15as_utf8_pattern17hb94c584629b75fc8E', symObjAddr: 0x114, symBinAddr: 0x5E328, symSize: 0x34 }
  - { offset: 0x116258, size: 0x8, addend: 0x0, symName: '__ZN55_$LT$$RF$str$u20$as$u20$core..str..pattern..Pattern$GT$12is_prefix_of17hfaebcf2c14dfaf37E', symObjAddr: 0x148, symBinAddr: 0x5E35C, symSize: 0x4C }
  - { offset: 0x116302, size: 0x8, addend: 0x0, symName: '__ZN81_$LT$core..str..pattern..CharSearcher$u20$as$u20$core..str..pattern..Searcher$GT$10next_match17hb3158bb7ac6bcedeE', symObjAddr: 0x194, symBinAddr: 0x5E3A8, symSize: 0x380 }
  - { offset: 0x116766, size: 0x8, addend: 0x0, symName: '__ZN81_$LT$core..str..pattern..CharSearcher$u20$as$u20$core..str..pattern..Searcher$GT$8haystack17h7e7fe9ea82983d68E', symObjAddr: 0x514, symBinAddr: 0x5E728, symSize: 0x20 }
  - { offset: 0x11679A, size: 0x8, addend: 0x0, symName: '__ZN88_$LT$core..str..pattern..CharSearcher$u20$as$u20$core..str..pattern..ReverseSearcher$GT$15next_match_back17h117f0e64a8ae60bcE', symObjAddr: 0x534, symBinAddr: 0x5E748, symSize: 0x388 }
  - { offset: 0x11781C, size: 0x8, addend: 0x0, symName: __ZN11_fast_ebook3nav9parse_nav17he926742cb1629304E, symObjAddr: 0x0, symBinAddr: 0x5EAD0, symSize: 0x26C }
  - { offset: 0x117A98, size: 0x8, addend: 0x0, symName: __ZN11_fast_ebook3nav9parse_nav17he926742cb1629304E, symObjAddr: 0x0, symBinAddr: 0x5EAD0, symSize: 0x26C }
  - { offset: 0x117B8D, size: 0x8, addend: 0x0, symName: __ZN11_fast_ebook3nav8parse_ol17h306a9edabc33ddcdE, symObjAddr: 0x26C, symBinAddr: 0x5ED3C, symSize: 0x48C }
  - { offset: 0x117CDC, size: 0x8, addend: 0x0, symName: __ZN11_fast_ebook3nav12collect_text17hefca1148c9f2e2d9E, symObjAddr: 0x6F8, symBinAddr: 0x5F1C8, symSize: 0xC0 }
  - { offset: 0x117D1E, size: 0x8, addend: 0x0, symName: __ZN11_fast_ebook3nav22collect_text_recursive17h55bd13ae934fecf9E, symObjAddr: 0x7B8, symBinAddr: 0x5F288, symSize: 0x128 }
  - { offset: 0x1192E0, size: 0x8, addend: 0x0, symName: '__ZN4core3ops8function5impls79_$LT$impl$u20$core..ops..function..FnMut$LT$A$GT$$u20$for$u20$$RF$mut$u20$F$GT$8call_mut17h9dfe6943b35a072aE', symObjAddr: 0x0, symBinAddr: 0x5F3B0, symSize: 0x40 }
  - { offset: 0x119306, size: 0x8, addend: 0x0, symName: '__ZN4core3ops8function5impls79_$LT$impl$u20$core..ops..function..FnMut$LT$A$GT$$u20$for$u20$$RF$mut$u20$F$GT$8call_mut17h9dfe6943b35a072aE', symObjAddr: 0x0, symBinAddr: 0x5F3B0, symSize: 0x40 }
  - { offset: 0x119393, size: 0x8, addend: 0x0, symName: '__ZN4core5slice29_$LT$impl$u20$$u5b$T$u5d$$GT$4iter17hec30cc042b80df54E', symObjAddr: 0x40, symBinAddr: 0x5F3F0, symSize: 0x28 }
  - { offset: 0x1197C8, size: 0x8, addend: 0x0, symName: '__ZN11_fast_ebook5spine11parse_spine28_$u7b$$u7b$closure$u7d$$u7d$17h820f225019111652E', symObjAddr: 0x68, symBinAddr: 0x5F418, symSize: 0x28 }
  - { offset: 0x1197FE, size: 0x8, addend: 0x0, symName: '__ZN11_fast_ebook5spine11parse_spine28_$u7b$$u7b$closure$u7d$$u7d$17hcd870968353cb4ebE', symObjAddr: 0x90, symBinAddr: 0x5F440, symSize: 0x88 }
  - { offset: 0x119834, size: 0x8, addend: 0x0, symName: '__ZN11_fast_ebook5spine11parse_spine28_$u7b$$u7b$closure$u7d$$u7d$17hbe6f63cef8a3d8acE', symObjAddr: 0x118, symBinAddr: 0x5F4C8, symSize: 0x168 }
  - { offset: 0x11A02A, size: 0x8, addend: 0x0, symName: '__ZN11_fast_ebook3nav9parse_nav28_$u7b$$u7b$closure$u7d$$u7d$17h4cf3fb7cc32039bdE', symObjAddr: 0x0, symBinAddr: 0x5F630, symSize: 0xD0 }
  - { offset: 0x11A046, size: 0x8, addend: 0x0, symName: '__ZN11_fast_ebook3nav9parse_nav28_$u7b$$u7b$closure$u7d$$u7d$17h4cf3fb7cc32039bdE', symObjAddr: 0x0, symBinAddr: 0x5F630, symSize: 0xD0 }
  - { offset: 0x11A07C, size: 0x8, addend: 0x0, symName: '__ZN11_fast_ebook3nav9parse_nav28_$u7b$$u7b$closure$u7d$$u7d$17h0d5d75d13c7e53a7E', symObjAddr: 0xD0, symBinAddr: 0x5F700, symSize: 0x3C }
  - { offset: 0x11A0AF, size: 0x8, addend: 0x0, symName: '__ZN11_fast_ebook3nav9parse_nav28_$u7b$$u7b$closure$u7d$$u7d$28_$u7b$$u7b$closure$u7d$$u7d$17hb50f86d246cdfc84E', symObjAddr: 0x10C, symBinAddr: 0x5F73C, symSize: 0x98 }
  - { offset: 0x11A0EA, size: 0x8, addend: 0x0, symName: '__ZN11_fast_ebook3nav9parse_nav28_$u7b$$u7b$closure$u7d$$u7d$28_$u7b$$u7b$closure$u7d$$u7d$28_$u7b$$u7b$closure$u7d$$u7d$17h4ff55415c18d0343E', symObjAddr: 0x1A4, symBinAddr: 0x5F7D4, symSize: 0x90 }
  - { offset: 0x11A130, size: 0x8, addend: 0x0, symName: '__ZN11_fast_ebook3nav9parse_nav28_$u7b$$u7b$closure$u7d$$u7d$17h370dfc70ac46c593E', symObjAddr: 0x234, symBinAddr: 0x5F864, symSize: 0x88 }
  - { offset: 0x11A17A, size: 0x8, addend: 0x0, symName: '__ZN11_fast_ebook3nav8parse_ol28_$u7b$$u7b$closure$u7d$$u7d$17h18fb07f5bccdf2d7E', symObjAddr: 0x2BC, symBinAddr: 0x5F8EC, symSize: 0x88 }
  - { offset: 0x11A1B0, size: 0x8, addend: 0x0, symName: '__ZN11_fast_ebook3nav8parse_ol28_$u7b$$u7b$closure$u7d$$u7d$17h49db6fd9933db26eE', symObjAddr: 0x344, symBinAddr: 0x5F974, symSize: 0x88 }
  - { offset: 0x11A1E6, size: 0x8, addend: 0x0, symName: '__ZN11_fast_ebook3nav8parse_ol28_$u7b$$u7b$closure$u7d$$u7d$17h30ae3e4b855b6efeE', symObjAddr: 0x3CC, symBinAddr: 0x5F9FC, symSize: 0x88 }
  - { offset: 0x11AC48, size: 0x8, addend: 0x0, symName: '__ZN110_$LT$core..iter..adapters..enumerate..Enumerate$LT$I$GT$$u20$as$u20$core..iter..traits..iterator..Iterator$GT$3nth17hfee5ba696e66e172E', symObjAddr: 0x0, symBinAddr: 0x5FA84, symSize: 0x10C }
  - { offset: 0x11C6FE, size: 0x8, addend: 0x0, symName: '__ZN110_$LT$core..iter..adapters..enumerate..Enumerate$LT$I$GT$$u20$as$u20$core..iter..traits..iterator..Iterator$GT$3nth17hfee5ba696e66e172E', symObjAddr: 0x0, symBinAddr: 0x5FA84, symSize: 0x10C }
  - { offset: 0x11C7EF, size: 0x8, addend: 0x0, symName: '__ZN110_$LT$core..iter..adapters..enumerate..Enumerate$LT$I$GT$$u20$as$u20$core..iter..traits..iterator..Iterator$GT$4next17h712972107e3b90c0E', symObjAddr: 0x10C, symBinAddr: 0x5FB90, symSize: 0xE0 }
  - { offset: 0x11C8D1, size: 0x8, addend: 0x0, symName: '__ZN110_$LT$core..iter..adapters..enumerate..Enumerate$LT$I$GT$$u20$as$u20$core..iter..traits..iterator..Iterator$GT$4next17h723a2193958b1de3E', symObjAddr: 0x1EC, symBinAddr: 0x5FC70, symSize: 0xE0 }
  - { offset: 0x11C9B3, size: 0x8, addend: 0x0, symName: '__ZN110_$LT$core..iter..adapters..enumerate..Enumerate$LT$I$GT$$u20$as$u20$core..iter..traits..iterator..Iterator$GT$4next17hc7466c5b6aeabc13E', symObjAddr: 0x2CC, symBinAddr: 0x5FD50, symSize: 0xE0 }
  - { offset: 0x11CA95, size: 0x8, addend: 0x0, symName: '__ZN110_$LT$core..iter..adapters..enumerate..Enumerate$LT$I$GT$$u20$as$u20$core..iter..traits..iterator..Iterator$GT$4next17he8dc8bdbd3a0cca2E', symObjAddr: 0x3AC, symBinAddr: 0x5FE30, symSize: 0xE0 }
  - { offset: 0x11CB77, size: 0x8, addend: 0x0, symName: '__ZN110_$LT$core..iter..adapters..enumerate..Enumerate$LT$I$GT$$u20$as$u20$core..iter..traits..iterator..Iterator$GT$4next17hf4c3e057fdcbdef9E', symObjAddr: 0x48C, symBinAddr: 0x5FF10, symSize: 0xE0 }
  - { offset: 0x11CDBA, size: 0x8, addend: 0x0, symName: __ZN4core4iter6traits8iterator8Iterator4take17h81b03b389653d4a4E, symObjAddr: 0x56C, symBinAddr: 0x5FFF0, symSize: 0x24 }
  - { offset: 0x11CE21, size: 0x8, addend: 0x0, symName: '__ZN63_$LT$I$u20$as$u20$core..iter..traits..collect..IntoIterator$GT$9into_iter17hbc6e70aeb071dee0E', symObjAddr: 0x590, symBinAddr: 0x60014, symSize: 0x30 }
  - { offset: 0x11CE59, size: 0x8, addend: 0x0, symName: '__ZN63_$LT$I$u20$as$u20$core..iter..traits..collect..IntoIterator$GT$9into_iter17hfd5c69ea59dc6a6cE', symObjAddr: 0x5C0, symBinAddr: 0x60044, symSize: 0x18 }
  - { offset: 0x11DFDD, size: 0x8, addend: 0x0, symName: __ZN4pyo36marker6Python19assume_gil_acquired17hb27ad2297206463dE, symObjAddr: 0x0, symBinAddr: 0x6005C, symSize: 0x4 }
  - { offset: 0x11F25D, size: 0x8, addend: 0x0, symName: __ZN4pyo36marker6Python19assume_gil_acquired17hb27ad2297206463dE, symObjAddr: 0x0, symBinAddr: 0x6005C, symSize: 0x4 }
  - { offset: 0x11F6CE, size: 0x8, addend: 0x0, symName: __ZN4pyo36marker6Python4None17hf4e1816c40476715E, symObjAddr: 0x4, symBinAddr: 0x60060, symSize: 0x28 }
  - { offset: 0x11F71B, size: 0x8, addend: 0x0, symName: '__ZN98_$LT$hashbrown..control..bitmask..BitMask$u20$as$u20$core..iter..traits..collect..IntoIterator$GT$9into_iter17hbc2b52bd192834dcE', symObjAddr: 0x0, symBinAddr: 0x60088, symSize: 0x14 }
  - { offset: 0x11F73C, size: 0x8, addend: 0x0, symName: '__ZN98_$LT$hashbrown..control..bitmask..BitMask$u20$as$u20$core..iter..traits..collect..IntoIterator$GT$9into_iter17hbc2b52bd192834dcE', symObjAddr: 0x0, symBinAddr: 0x60088, symSize: 0x14 }
  - { offset: 0x11F76E, size: 0x8, addend: 0x0, symName: '__ZN99_$LT$hashbrown..control..bitmask..BitMaskIter$u20$as$u20$core..iter..traits..iterator..Iterator$GT$4next17h59fdf4b37df73b0dE', symObjAddr: 0x14, symBinAddr: 0x6009C, symSize: 0x90 }
  - { offset: 0x11F88E, size: 0x8, addend: 0x0, symName: __ZN9hashbrown7control7bitmask7BitMask11any_bit_set17hf0d7e80a9af87985E, symObjAddr: 0xA4, symBinAddr: 0x6012C, symSize: 0x18 }
  - { offset: 0x11FA14, size: 0x8, addend: 0x0, symName: __ZN9hashbrown7control7bitmask7BitMask13leading_zeros17h00c99ecab31080b4E, symObjAddr: 0xBC, symBinAddr: 0x60144, symSize: 0x28 }
  - { offset: 0x11FA53, size: 0x8, addend: 0x0, symName: __ZN9hashbrown7control7bitmask7BitMask14lowest_set_bit17hb13c402d6a078a66E, symObjAddr: 0xE4, symBinAddr: 0x6016C, symSize: 0x64 }
  - { offset: 0x11FA92, size: 0x8, addend: 0x0, symName: __ZN9hashbrown7control7bitmask7BitMask14trailing_zeros17h7daf788e08a5a4caE, symObjAddr: 0x148, symBinAddr: 0x601D0, symSize: 0x2C }
  - { offset: 0x11FAD1, size: 0x8, addend: 0x0, symName: __ZN9hashbrown7control7bitmask7BitMask17remove_lowest_bit17h5808d76a0f5cea67E, symObjAddr: 0x174, symBinAddr: 0x601FC, symSize: 0x4C }
  - { offset: 0x11FAF3, size: 0x8, addend: 0x0, symName: __ZN9hashbrown7control7bitmask7BitMask22nonzero_trailing_zeros17h311d8c6c050862baE, symObjAddr: 0x1C0, symBinAddr: 0x60248, symSize: 0x2C }
  - { offset: 0x11FB40, size: 0x8, addend: 0x0, symName: '__ZN55_$LT$W$u20$as$u20$std..io..copy..BufferedWriterSpec$GT$9copy_from17h589847aff4c096b2E', symObjAddr: 0x0, symBinAddr: 0x60274, symSize: 0x38 }
  - { offset: 0x11FDB3, size: 0x8, addend: 0x0, symName: '__ZN55_$LT$W$u20$as$u20$std..io..copy..BufferedWriterSpec$GT$9copy_from17h589847aff4c096b2E', symObjAddr: 0x0, symBinAddr: 0x60274, symSize: 0x38 }
  - { offset: 0x11FF41, size: 0x8, addend: 0x0, symName: '__ZN11_fast_ebook10validation8validate28_$u7b$$u7b$closure$u7d$$u7d$17hbf2fffe535904515E', symObjAddr: 0x38, symBinAddr: 0x602AC, symSize: 0x40 }
  - { offset: 0x120430, size: 0x8, addend: 0x0, symName: '__ZN4core3str21_$LT$impl$u20$str$GT$11starts_with17hb310f7bc4cab478aE', symObjAddr: 0x0, symBinAddr: 0x602EC, symSize: 0x4C }
  - { offset: 0x12044C, size: 0x8, addend: 0x0, symName: '__ZN4core3str21_$LT$impl$u20$str$GT$11starts_with17hb310f7bc4cab478aE', symObjAddr: 0x0, symBinAddr: 0x602EC, symSize: 0x4C }
  - { offset: 0x1204C6, size: 0x8, addend: 0x0, symName: '__ZN4core3str21_$LT$impl$u20$str$GT$12trim_matches17h9ae63c29062fab26E', symObjAddr: 0x4C, symBinAddr: 0x60338, symSize: 0x130 }
  - { offset: 0x120670, size: 0x8, addend: 0x0, symName: '__ZN4core3str21_$LT$impl$u20$str$GT$5rfind17heb953158311f18b9E', symObjAddr: 0x17C, symBinAddr: 0x60468, symSize: 0xC8 }
  - { offset: 0x12072B, size: 0x8, addend: 0x0, symName: '__ZN4core3str21_$LT$impl$u20$str$GT$6rsplit17ha2d42f7f5c6275a3E', symObjAddr: 0x244, symBinAddr: 0x60530, symSize: 0x98 }
  - { offset: 0x120CD3, size: 0x8, addend: 0x0, symName: '__ZN100_$LT$core..iter..adapters..take..Take$LT$I$GT$$u20$as$u20$core..iter..traits..iterator..Iterator$GT$3nth17h275f4c9883980a97E', symObjAddr: 0x0, symBinAddr: 0x605C8, symSize: 0xA0 }
  - { offset: 0x1214D0, size: 0x8, addend: 0x0, symName: '__ZN100_$LT$core..iter..adapters..take..Take$LT$I$GT$$u20$as$u20$core..iter..traits..iterator..Iterator$GT$3nth17h275f4c9883980a97E', symObjAddr: 0x0, symBinAddr: 0x605C8, symSize: 0xA0 }
  - { offset: 0x121513, size: 0x8, addend: 0x0, symName: '__ZN100_$LT$core..iter..adapters..take..Take$LT$I$GT$$u20$as$u20$core..iter..traits..iterator..Iterator$GT$3nth17he7cea951d98c5d6bE', symObjAddr: 0xA0, symBinAddr: 0x60668, symSize: 0xA8 }
  - { offset: 0x121556, size: 0x8, addend: 0x0, symName: '__ZN100_$LT$core..iter..adapters..take..Take$LT$I$GT$$u20$as$u20$core..iter..traits..iterator..Iterator$GT$4next17h373433f61f755ab7E', symObjAddr: 0x148, symBinAddr: 0x60710, symSize: 0x58 }
  - { offset: 0x12158B, size: 0x8, addend: 0x0, symName: '__ZN100_$LT$core..iter..adapters..take..Take$LT$I$GT$$u20$as$u20$core..iter..traits..iterator..Iterator$GT$4next17hadccdb69d6ef4c1aE', symObjAddr: 0x1A0, symBinAddr: 0x60768, symSize: 0x58 }
  - { offset: 0x1215C0, size: 0x8, addend: 0x0, symName: '__ZN100_$LT$core..iter..adapters..take..Take$LT$I$GT$$u20$as$u20$core..iter..traits..iterator..Iterator$GT$4next17hbc6865e1646407a9E', symObjAddr: 0x1F8, symBinAddr: 0x607C0, symSize: 0x58 }
  - { offset: 0x1215F5, size: 0x8, addend: 0x0, symName: '__ZN100_$LT$core..iter..adapters..take..Take$LT$I$GT$$u20$as$u20$core..iter..traits..iterator..Iterator$GT$4next17hc7e18e2d446dadd2E', symObjAddr: 0x250, symBinAddr: 0x60818, symSize: 0x60 }
  - { offset: 0x12162A, size: 0x8, addend: 0x0, symName: '__ZN100_$LT$core..iter..adapters..take..Take$LT$I$GT$$u20$as$u20$core..iter..traits..iterator..Iterator$GT$4next17hd0c3a2758d23f8ddE', symObjAddr: 0x2B0, symBinAddr: 0x60878, symSize: 0x58 }
  - { offset: 0x12165F, size: 0x8, addend: 0x0, symName: '__ZN100_$LT$core..iter..adapters..take..Take$LT$I$GT$$u20$as$u20$core..iter..traits..iterator..Iterator$GT$4next17hfb79311bb44eb3f6E', symObjAddr: 0x308, symBinAddr: 0x608D0, symSize: 0x60 }
  - { offset: 0x121694, size: 0x8, addend: 0x0, symName: '__ZN100_$LT$core..iter..adapters..take..Take$LT$I$GT$$u20$as$u20$core..iter..traits..iterator..Iterator$GT$8try_fold17h3a19ffcacf17292bE', symObjAddr: 0x368, symBinAddr: 0x60930, symSize: 0x11C }
  - { offset: 0x121759, size: 0x8, addend: 0x0, symName: '__ZN100_$LT$core..iter..adapters..take..Take$LT$I$GT$$u20$as$u20$core..iter..traits..iterator..Iterator$GT$8try_fold17h5919e2a21539a99aE', symObjAddr: 0x484, symBinAddr: 0x60A4C, symSize: 0x11C }
  - { offset: 0x12181E, size: 0x8, addend: 0x0, symName: '__ZN100_$LT$core..iter..adapters..take..Take$LT$I$GT$$u20$as$u20$core..iter..traits..iterator..Iterator$GT$8try_fold17h61f4002b338b6220E', symObjAddr: 0x5A0, symBinAddr: 0x60B68, symSize: 0x11C }
  - { offset: 0x1218E3, size: 0x8, addend: 0x0, symName: '__ZN100_$LT$core..iter..adapters..take..Take$LT$I$GT$$u20$as$u20$core..iter..traits..iterator..Iterator$GT$8try_fold17h63d1ced33b158ee3E', symObjAddr: 0x6BC, symBinAddr: 0x60C84, symSize: 0x11C }
  - { offset: 0x1219A8, size: 0x8, addend: 0x0, symName: '__ZN100_$LT$core..iter..adapters..take..Take$LT$I$GT$$u20$as$u20$core..iter..traits..iterator..Iterator$GT$8try_fold17hbc63ed584b8bc7f9E', symObjAddr: 0x7D8, symBinAddr: 0x60DA0, symSize: 0x11C }
  - { offset: 0x121A6D, size: 0x8, addend: 0x0, symName: '__ZN100_$LT$core..iter..adapters..take..Take$LT$I$GT$$u20$as$u20$core..iter..traits..iterator..Iterator$GT$8try_fold17hfc3807846dff9a19E', symObjAddr: 0x8F4, symBinAddr: 0x60EBC, symSize: 0x11C }
  - { offset: 0x121B3C, size: 0x8, addend: 0x0, symName: '__ZN100_$LT$core..iter..adapters..take..Take$LT$I$GT$$u20$as$u20$core..iter..traits..iterator..Iterator$GT$8try_fold5check28_$u7b$$u7b$closure$u7d$$u7d$17h5daea65d1fc0ef7dE', symObjAddr: 0xA10, symBinAddr: 0x60FD8, symSize: 0x138 }
  - { offset: 0x121C14, size: 0x8, addend: 0x0, symName: '__ZN100_$LT$core..iter..adapters..take..Take$LT$I$GT$$u20$as$u20$core..iter..traits..iterator..Iterator$GT$8try_fold5check28_$u7b$$u7b$closure$u7d$$u7d$17h6be7d60f706288c4E', symObjAddr: 0xB48, symBinAddr: 0x61110, symSize: 0x138 }
  - { offset: 0x121CEC, size: 0x8, addend: 0x0, symName: '__ZN100_$LT$core..iter..adapters..take..Take$LT$I$GT$$u20$as$u20$core..iter..traits..iterator..Iterator$GT$8try_fold5check28_$u7b$$u7b$closure$u7d$$u7d$17h96da87b23365d2e8E', symObjAddr: 0xC80, symBinAddr: 0x61248, symSize: 0x138 }
  - { offset: 0x121DC4, size: 0x8, addend: 0x0, symName: '__ZN100_$LT$core..iter..adapters..take..Take$LT$I$GT$$u20$as$u20$core..iter..traits..iterator..Iterator$GT$8try_fold5check28_$u7b$$u7b$closure$u7d$$u7d$17ha34fcffb1d989444E', symObjAddr: 0xDB8, symBinAddr: 0x61380, symSize: 0x138 }
  - { offset: 0x121E9C, size: 0x8, addend: 0x0, symName: '__ZN100_$LT$core..iter..adapters..take..Take$LT$I$GT$$u20$as$u20$core..iter..traits..iterator..Iterator$GT$8try_fold5check28_$u7b$$u7b$closure$u7d$$u7d$17hd8ddde648a9b3921E', symObjAddr: 0xEF0, symBinAddr: 0x614B8, symSize: 0x138 }
  - { offset: 0x121F74, size: 0x8, addend: 0x0, symName: '__ZN100_$LT$core..iter..adapters..take..Take$LT$I$GT$$u20$as$u20$core..iter..traits..iterator..Iterator$GT$8try_fold5check28_$u7b$$u7b$closure$u7d$$u7d$17he94154edb672c048E', symObjAddr: 0x1028, symBinAddr: 0x615F0, symSize: 0x138 }
  - { offset: 0x122511, size: 0x8, addend: 0x0, symName: __ZN4core4iter6traits8iterator8Iterator4skip17h3339980cdb5eb47cE, symObjAddr: 0x1160, symBinAddr: 0x61728, symSize: 0x24 }
  - { offset: 0x12256C, size: 0x8, addend: 0x0, symName: __ZN4core4iter6traits8iterator8Iterator4skip17h9431573c6673c0bcE, symObjAddr: 0x1184, symBinAddr: 0x6174C, symSize: 0x24 }
  - { offset: 0x1225C7, size: 0x8, addend: 0x0, symName: __ZN4core4iter6traits8iterator8Iterator9enumerate17h1d5fb06562469c8cE, symObjAddr: 0x11A8, symBinAddr: 0x61770, symSize: 0x18 }
  - { offset: 0x1225F8, size: 0x8, addend: 0x0, symName: __ZN4core4iter6traits8iterator8Iterator9enumerate17h1d5fb06562469c8cE, symObjAddr: 0x11A8, symBinAddr: 0x61770, symSize: 0x18 }
  - { offset: 0x12261F, size: 0x8, addend: 0x0, symName: '__ZN63_$LT$I$u20$as$u20$core..iter..traits..collect..IntoIterator$GT$9into_iter17h16deb62e89118cfdE', symObjAddr: 0x11C0, symBinAddr: 0x61788, symSize: 0x30 }
  - { offset: 0x122657, size: 0x8, addend: 0x0, symName: '__ZN63_$LT$I$u20$as$u20$core..iter..traits..collect..IntoIterator$GT$9into_iter17h4c427c3f216c05e1E', symObjAddr: 0x11F0, symBinAddr: 0x617B8, symSize: 0x18 }
  - { offset: 0x12268E, size: 0x8, addend: 0x0, symName: '__ZN63_$LT$I$u20$as$u20$core..iter..traits..collect..IntoIterator$GT$9into_iter17h600c8c5613247112E', symObjAddr: 0x1208, symBinAddr: 0x617D0, symSize: 0x18 }
  - { offset: 0x125989, size: 0x8, addend: 0x0, symName: '__ZN87_$LT$$BP$mut$u20$pyo3_ffi..object..PyObject$u20$as$u20$pyo3..ffi_ptr_ext..FfiPtrExt$GT$12assume_owned17ha265a82bbef2188dE', symObjAddr: 0x0, symBinAddr: 0x617E8, symSize: 0x24 }
  - { offset: 0x1259DC, size: 0x8, addend: 0x0, symName: __ZN8pyo3_ffi6object10Py_IS_TYPE17he348bef85b2fb8c2E, symObjAddr: 0x90, symBinAddr: 0x61878, symSize: 0x38 }
  - { offset: 0x125A16, size: 0x8, addend: 0x0, symName: __ZN8pyo3_ffi6object17PyType_HasFeature17h71e5cedfc9cfd109E, symObjAddr: 0xC8, symBinAddr: 0x618B0, symSize: 0x8C }
  - { offset: 0x125A71, size: 0x8, addend: 0x0, symName: __ZN8pyo3_ffi6object18PyObject_TypeCheck17h7a829401aad3e62fE, symObjAddr: 0x154, symBinAddr: 0x6193C, symSize: 0x70 }
  - { offset: 0x125AAE, size: 0x8, addend: 0x0, symName: __ZN8pyo3_ffi6object19PyType_FastSubclass17ha5b452b8385254a9E, symObjAddr: 0x1C4, symBinAddr: 0x619AC, symSize: 0x28 }
  - { offset: 0x125AEB, size: 0x8, addend: 0x0, symName: __ZN8pyo3_ffi6object7Py_None17h782b0f4cb2fe62c7E, symObjAddr: 0x1EC, symBinAddr: 0x619D4, symSize: 0xC }
  - { offset: 0x125B09, size: 0x8, addend: 0x0, symName: __ZN8pyo3_ffi6object7Py_TYPE17h63f91caa6ef1aac2E, symObjAddr: 0x1F8, symBinAddr: 0x619E0, symSize: 0x74 }
  - { offset: 0x126CCD, size: 0x8, addend: 0x0, symName: '__ZN87_$LT$$BP$mut$u20$pyo3_ffi..object..PyObject$u20$as$u20$pyo3..ffi_ptr_ext..FfiPtrExt$GT$12assume_owned17ha265a82bbef2188dE', symObjAddr: 0x0, symBinAddr: 0x617E8, symSize: 0x24 }
  - { offset: 0x126D12, size: 0x8, addend: 0x0, symName: '__ZN87_$LT$$BP$mut$u20$pyo3_ffi..object..PyObject$u20$as$u20$pyo3..ffi_ptr_ext..FfiPtrExt$GT$15assume_borrowed17hc34f47cb9107495cE', symObjAddr: 0x24, symBinAddr: 0x6180C, symSize: 0x24 }
  - { offset: 0x126D57, size: 0x8, addend: 0x0, symName: '__ZN87_$LT$$BP$mut$u20$pyo3_ffi..object..PyObject$u20$as$u20$pyo3..ffi_ptr_ext..FfiPtrExt$GT$22assume_borrowed_or_opt17ha29d1761ce58be43E', symObjAddr: 0x48, symBinAddr: 0x61830, symSize: 0x24 }
  - { offset: 0x126D9C, size: 0x8, addend: 0x0, symName: '__ZN87_$LT$$BP$mut$u20$pyo3_ffi..object..PyObject$u20$as$u20$pyo3..ffi_ptr_ext..FfiPtrExt$GT$25assume_borrowed_unchecked17h501ef7e0bdd7e2c2E', symObjAddr: 0x6C, symBinAddr: 0x61854, symSize: 0x24 }
  - { offset: 0x1273E6, size: 0x8, addend: 0x0, symName: '__ZN100_$LT$core..ops..range..RangeInclusive$LT$T$GT$$u20$as$u20$core..ops..range..RangeBounds$LT$T$GT$$GT$11start_bound17h35d842e2f26e566eE', symObjAddr: 0x0, symBinAddr: 0x61A54, symSize: 0x24 }
  - { offset: 0x127BDE, size: 0x8, addend: 0x0, symName: '__ZN100_$LT$core..ops..range..RangeInclusive$LT$T$GT$$u20$as$u20$core..ops..range..RangeBounds$LT$T$GT$$GT$11start_bound17h35d842e2f26e566eE', symObjAddr: 0x0, symBinAddr: 0x61A54, symSize: 0x24 }
  - { offset: 0x127C15, size: 0x8, addend: 0x0, symName: '__ZN100_$LT$core..ops..range..RangeInclusive$LT$T$GT$$u20$as$u20$core..ops..range..RangeBounds$LT$T$GT$$GT$11start_bound17h611d1e2126e7212dE', symObjAddr: 0x24, symBinAddr: 0x61A78, symSize: 0x24 }
  - { offset: 0x127C4C, size: 0x8, addend: 0x0, symName: '__ZN100_$LT$core..ops..range..RangeInclusive$LT$T$GT$$u20$as$u20$core..ops..range..RangeBounds$LT$T$GT$$GT$9end_bound17h0a8b25b12fe17432E', symObjAddr: 0x48, symBinAddr: 0x61A9C, symSize: 0x58 }
  - { offset: 0x127C83, size: 0x8, addend: 0x0, symName: '__ZN100_$LT$core..ops..range..RangeInclusive$LT$T$GT$$u20$as$u20$core..ops..range..RangeBounds$LT$T$GT$$GT$9end_bound17h41264ebfd3a4ee34E', symObjAddr: 0xA0, symBinAddr: 0x61AF4, symSize: 0x58 }
  - { offset: 0x127D81, size: 0x8, addend: 0x0, symName: __ZN4core3ops5range11RangeBounds8contains17h56d6a4df9ca48d81E, symObjAddr: 0x3FC, symBinAddr: 0x61E50, symSize: 0x204 }
  - { offset: 0x127F8F, size: 0x8, addend: 0x0, symName: __ZN4core3ops5range11RangeBounds8contains17hadf18799a09dfcc4E, symObjAddr: 0x600, symBinAddr: 0x62054, symSize: 0x204 }
  - { offset: 0x128206, size: 0x8, addend: 0x0, symName: '__ZN93_$LT$core..ops..range..RangeTo$LT$T$GT$$u20$as$u20$core..ops..range..RangeBounds$LT$T$GT$$GT$11start_bound17hb44ecce0b7199c0aE', symObjAddr: 0x85C, symBinAddr: 0x622B0, symSize: 0x24 }
  - { offset: 0x12823D, size: 0x8, addend: 0x0, symName: '__ZN93_$LT$core..ops..range..RangeTo$LT$T$GT$$u20$as$u20$core..ops..range..RangeBounds$LT$T$GT$$GT$9end_bound17hd81dd0484b00dbf0E', symObjAddr: 0x880, symBinAddr: 0x622D4, symSize: 0x28 }
  - { offset: 0x128DB1, size: 0x8, addend: 0x0, symName: '__ZN106_$LT$core..ops..range..Range$LT$usize$GT$$u20$as$u20$core..slice..index..SliceIndex$LT$$u5b$T$u5d$$GT$$GT$9index_mut17hf2e726569932bfdfE', symObjAddr: 0xF8, symBinAddr: 0x61B4C, symSize: 0xC0 }
  - { offset: 0x128EEE, size: 0x8, addend: 0x0, symName: '__ZN108_$LT$core..ops..range..RangeTo$LT$usize$GT$$u20$as$u20$core..slice..index..SliceIndex$LT$$u5b$T$u5d$$GT$$GT$9index_mut17h7d84b7a783854187E', symObjAddr: 0x1B8, symBinAddr: 0x61C0C, symSize: 0x54 }
  - { offset: 0x128F6E, size: 0x8, addend: 0x0, symName: '__ZN110_$LT$core..ops..range..RangeFrom$LT$usize$GT$$u20$as$u20$core..slice..index..SliceIndex$LT$$u5b$T$u5d$$GT$$GT$5index17hc70b7256dee67fcfE', symObjAddr: 0x20C, symBinAddr: 0x61C60, symSize: 0x90 }
  - { offset: 0x12906E, size: 0x8, addend: 0x0, symName: '__ZN110_$LT$core..ops..range..RangeFrom$LT$usize$GT$$u20$as$u20$core..slice..index..SliceIndex$LT$$u5b$T$u5d$$GT$$GT$9index_mut17hf9095f6ab1ad6a29E', symObjAddr: 0x29C, symBinAddr: 0x61CF0, symSize: 0xA0 }
  - { offset: 0x1291B6, size: 0x8, addend: 0x0, symName: '__ZN115_$LT$core..ops..range..RangeInclusive$LT$usize$GT$$u20$as$u20$core..slice..index..SliceIndex$LT$$u5b$T$u5d$$GT$$GT$9index_mut17h623ca543e9dfe5f5E', symObjAddr: 0x33C, symBinAddr: 0x61D90, symSize: 0xC0 }
  - { offset: 0x129C2A, size: 0x8, addend: 0x0, symName: '__ZN4core3ops5range25RangeInclusive$LT$Idx$GT$8contains17h46095e756ccf8359E', symObjAddr: 0x804, symBinAddr: 0x62258, symSize: 0x2C }
  - { offset: 0x129C7B, size: 0x8, addend: 0x0, symName: '__ZN4core3ops5range25RangeInclusive$LT$Idx$GT$8contains17heb50ef1377bf771bE', symObjAddr: 0x830, symBinAddr: 0x62284, symSize: 0x2C }
  - { offset: 0x12B186, size: 0x8, addend: 0x0, symName: '__ZN50_$LT$T$u20$as$u20$core..convert..Into$LT$U$GT$$GT$4into17hf41e7011946d44a9E', symObjAddr: 0x70, symBinAddr: 0x62328, symSize: 0x28 }
  - { offset: 0x12B7C0, size: 0x8, addend: 0x0, symName: __ZN4pyo35types4none6PyNone3get17h19c0a832e4405259E, symObjAddr: 0x44, symBinAddr: 0x622FC, symSize: 0x2C }
  - { offset: 0x12B8F8, size: 0x8, addend: 0x0, symName: __ZN10rayon_core6unwind14halt_unwinding17h005579f64739a515E, symObjAddr: 0x0, symBinAddr: 0x62350, symSize: 0x40 }
  - { offset: 0x12C07F, size: 0x8, addend: 0x0, symName: __ZN10rayon_core6unwind14halt_unwinding17h005579f64739a515E, symObjAddr: 0x0, symBinAddr: 0x62350, symSize: 0x40 }
  - { offset: 0x12C0BE, size: 0x8, addend: 0x0, symName: __ZN10rayon_core6unwind14halt_unwinding17h0e28b0171b3f68eaE, symObjAddr: 0x40, symBinAddr: 0x62390, symSize: 0x40 }
  - { offset: 0x12C0FD, size: 0x8, addend: 0x0, symName: __ZN10rayon_core6unwind14halt_unwinding17h0f80747db139c740E, symObjAddr: 0x80, symBinAddr: 0x623D0, symSize: 0x40 }
  - { offset: 0x12C13C, size: 0x8, addend: 0x0, symName: __ZN10rayon_core6unwind14halt_unwinding17h12a36fbf4de1fbc2E, symObjAddr: 0xC0, symBinAddr: 0x62410, symSize: 0x40 }
  - { offset: 0x12C17B, size: 0x8, addend: 0x0, symName: __ZN10rayon_core6unwind14halt_unwinding17h3975b03089b1306cE, symObjAddr: 0x100, symBinAddr: 0x62450, symSize: 0x40 }
  - { offset: 0x12C1BA, size: 0x8, addend: 0x0, symName: __ZN10rayon_core6unwind14halt_unwinding17h444a215453f08a4cE, symObjAddr: 0x140, symBinAddr: 0x62490, symSize: 0x40 }
  - { offset: 0x12C1F9, size: 0x8, addend: 0x0, symName: __ZN10rayon_core6unwind14halt_unwinding17h58614252b41fceb2E, symObjAddr: 0x180, symBinAddr: 0x624D0, symSize: 0x40 }
  - { offset: 0x12C238, size: 0x8, addend: 0x0, symName: __ZN10rayon_core6unwind14halt_unwinding17h78770c3c9450b41bE, symObjAddr: 0x1C0, symBinAddr: 0x62510, symSize: 0x40 }
  - { offset: 0x12C277, size: 0x8, addend: 0x0, symName: __ZN10rayon_core6unwind14halt_unwinding17h7a36ab87202ee479E, symObjAddr: 0x200, symBinAddr: 0x62550, symSize: 0x40 }
  - { offset: 0x12C2B6, size: 0x8, addend: 0x0, symName: __ZN10rayon_core6unwind14halt_unwinding17h83b345f80dea390cE, symObjAddr: 0x240, symBinAddr: 0x62590, symSize: 0x40 }
  - { offset: 0x12C2F5, size: 0x8, addend: 0x0, symName: __ZN10rayon_core6unwind14halt_unwinding17h8fb1c9994293ce8bE, symObjAddr: 0x280, symBinAddr: 0x625D0, symSize: 0x40 }
  - { offset: 0x12C334, size: 0x8, addend: 0x0, symName: __ZN10rayon_core6unwind14halt_unwinding17h922e56656d902610E, symObjAddr: 0x2C0, symBinAddr: 0x62610, symSize: 0x40 }
  - { offset: 0x12C373, size: 0x8, addend: 0x0, symName: __ZN10rayon_core6unwind14halt_unwinding17hbc0329823f92e989E, symObjAddr: 0x300, symBinAddr: 0x62650, symSize: 0x40 }
  - { offset: 0x12C3B2, size: 0x8, addend: 0x0, symName: __ZN10rayon_core6unwind14halt_unwinding17hbd4a3aed9742ebabE, symObjAddr: 0x340, symBinAddr: 0x62690, symSize: 0x40 }
  - { offset: 0x12C3F1, size: 0x8, addend: 0x0, symName: __ZN10rayon_core6unwind14halt_unwinding17hbde7f644e0390b7cE, symObjAddr: 0x380, symBinAddr: 0x626D0, symSize: 0x34 }
  - { offset: 0x12C430, size: 0x8, addend: 0x0, symName: __ZN10rayon_core6unwind14halt_unwinding17hf21502452c2bb3ecE, symObjAddr: 0x3B4, symBinAddr: 0x62704, symSize: 0x40 }
  - { offset: 0x12C46F, size: 0x8, addend: 0x0, symName: __ZN10rayon_core6unwind14halt_unwinding17hf34b055f9006fcc6E, symObjAddr: 0x3F4, symBinAddr: 0x62744, symSize: 0x34 }
  - { offset: 0x12C4AE, size: 0x8, addend: 0x0, symName: __ZN10rayon_core6unwind14halt_unwinding17hffbdbab3951a1d7cE, symObjAddr: 0x428, symBinAddr: 0x62778, symSize: 0x40 }
  - { offset: 0x12E191, size: 0x8, addend: 0x0, symName: '__ZN4core7convert3num18ptr_try_from_impls69_$LT$impl$u20$core..convert..TryFrom$LT$usize$GT$$u20$for$u20$u16$GT$8try_from17h59d8a364088ae417E', symObjAddr: 0x0, symBinAddr: 0x627B8, symSize: 0x58 }
  - { offset: 0x12E1B7, size: 0x8, addend: 0x0, symName: '__ZN4core7convert3num18ptr_try_from_impls69_$LT$impl$u20$core..convert..TryFrom$LT$usize$GT$$u20$for$u20$u16$GT$8try_from17h59d8a364088ae417E', symObjAddr: 0x0, symBinAddr: 0x627B8, symSize: 0x58 }
  - { offset: 0x12E2C4, size: 0x8, addend: 0x0, symName: '__ZN115_$LT$core..iter..adapters..filter_map..FilterMap$LT$I$C$F$GT$$u20$as$u20$core..iter..traits..iterator..Iterator$GT$4fold17h5faaa822d4855991E', symObjAddr: 0x0, symBinAddr: 0x62810, symSize: 0x3C }
  - { offset: 0x12E2EA, size: 0x8, addend: 0x0, symName: '__ZN115_$LT$core..iter..adapters..filter_map..FilterMap$LT$I$C$F$GT$$u20$as$u20$core..iter..traits..iterator..Iterator$GT$4fold17h5faaa822d4855991E', symObjAddr: 0x0, symBinAddr: 0x62810, symSize: 0x3C }
  - { offset: 0x12E35C, size: 0x8, addend: 0x0, symName: '__ZN115_$LT$core..iter..adapters..filter_map..FilterMap$LT$I$C$F$GT$$u20$as$u20$core..iter..traits..iterator..Iterator$GT$4next17h4a11566d22466863E', symObjAddr: 0x3C, symBinAddr: 0x6284C, symSize: 0x2C }
  - { offset: 0x12E3A3, size: 0x8, addend: 0x0, symName: '__ZN115_$LT$core..iter..adapters..filter_map..FilterMap$LT$I$C$F$GT$$u20$as$u20$core..iter..traits..iterator..Iterator$GT$9size_hint17h41380fddfc1c884dE', symObjAddr: 0x68, symBinAddr: 0x62878, symSize: 0x4C }
  - { offset: 0x12E407, size: 0x8, addend: 0x0, symName: '__ZN115_$LT$core..iter..adapters..filter_map..FilterMap$LT$I$C$F$GT$$u20$as$u20$core..iter..traits..iterator..Iterator$GT$9size_hint17h8b1ef167830b077fE', symObjAddr: 0xB4, symBinAddr: 0x628C4, symSize: 0x4C }
  - { offset: 0x12E471, size: 0x8, addend: 0x0, symName: '__ZN4core4iter8adapters10filter_map15filter_map_fold28_$u7b$$u7b$closure$u7d$$u7d$17h0c4b66935545dc27E', symObjAddr: 0x1F8, symBinAddr: 0x62A08, symSize: 0xA0 }
  - { offset: 0x12E5C4, size: 0x8, addend: 0x0, symName: __ZN4core4iter6traits8iterator8Iterator7collect17h89c86829b9ede436E, symObjAddr: 0x100, symBinAddr: 0x62910, symSize: 0x60 }
  - { offset: 0x12E65A, size: 0x8, addend: 0x0, symName: __ZN4core4iter6traits8iterator8Iterator7collect17hb2b2cf6b12dfb625E, symObjAddr: 0x160, symBinAddr: 0x62970, symSize: 0x74 }
  - { offset: 0x12E6F0, size: 0x8, addend: 0x0, symName: __ZN4core4iter6traits8iterator8Iterator8for_each17h715ba559158fb1a5E, symObjAddr: 0x1D4, symBinAddr: 0x629E4, symSize: 0x24 }
  - { offset: 0x12E767, size: 0x8, addend: 0x0, symName: '__ZN63_$LT$I$u20$as$u20$core..iter..traits..collect..IntoIterator$GT$9into_iter17h3c6ed46394febfc3E', symObjAddr: 0x298, symBinAddr: 0x62AA8, symSize: 0x18 }
  - { offset: 0x12E79E, size: 0x8, addend: 0x0, symName: '__ZN63_$LT$I$u20$as$u20$core..iter..traits..collect..IntoIterator$GT$9into_iter17hc11ccba5f540007bE', symObjAddr: 0x2B0, symBinAddr: 0x62AC0, symSize: 0x30 }
  - { offset: 0x12F910, size: 0x8, addend: 0x0, symName: '__ZN4core5array4iter10iter_inner78PolymorphicIter$LT$$u5b$core..mem..maybe_uninit..MaybeUninit$LT$T$GT$$u5d$$GT$4next17h01e0229758f25609E', symObjAddr: 0x0, symBinAddr: 0x62AF0, symSize: 0x1A4 }
  - { offset: 0x12FF99, size: 0x8, addend: 0x0, symName: '__ZN4core5array4iter10iter_inner78PolymorphicIter$LT$$u5b$core..mem..maybe_uninit..MaybeUninit$LT$T$GT$$u5d$$GT$4next17h01e0229758f25609E', symObjAddr: 0x0, symBinAddr: 0x62AF0, symSize: 0x1A4 }
  - { offset: 0x1301ED, size: 0x8, addend: 0x0, symName: __ZN10rayon_core4join12join_context17h55eb462b25b23157E, symObjAddr: 0x0, symBinAddr: 0x62C94, symSize: 0x58 }
  - { offset: 0x130C95, size: 0x8, addend: 0x0, symName: __ZN10rayon_core4join12join_context17h55eb462b25b23157E, symObjAddr: 0x0, symBinAddr: 0x62C94, symSize: 0x58 }
  - { offset: 0x130CF5, size: 0x8, addend: 0x0, symName: __ZN10rayon_core4join12join_context17ha8a8daddb6f2101bE, symObjAddr: 0x58, symBinAddr: 0x62CEC, symSize: 0x58 }
  - { offset: 0x130D55, size: 0x8, addend: 0x0, symName: __ZN10rayon_core4join12join_context17hb780230d6fc0d5e5E, symObjAddr: 0xB0, symBinAddr: 0x62D44, symSize: 0x58 }
  - { offset: 0x130DB5, size: 0x8, addend: 0x0, symName: __ZN10rayon_core4join12join_context17hf593e866106d43eaE, symObjAddr: 0x108, symBinAddr: 0x62D9C, symSize: 0x58 }
  - { offset: 0x130E1A, size: 0x8, addend: 0x0, symName: '__ZN10rayon_core4join12join_context28_$u7b$$u7b$closure$u7d$$u7d$17h84989b4afdc3da00E', symObjAddr: 0x160, symBinAddr: 0x62DF4, symSize: 0x4B8 }
  - { offset: 0x130F75, size: 0x8, addend: 0x0, symName: '__ZN10rayon_core4join12join_context28_$u7b$$u7b$closure$u7d$$u7d$17hdd032b35724ced22E', symObjAddr: 0x618, symBinAddr: 0x632AC, symSize: 0x4B8 }
  - { offset: 0x1310D0, size: 0x8, addend: 0x0, symName: '__ZN10rayon_core4join12join_context28_$u7b$$u7b$closure$u7d$$u7d$17he4f8c017e49bdb38E', symObjAddr: 0xAD0, symBinAddr: 0x63764, symSize: 0x4B8 }
  - { offset: 0x13122B, size: 0x8, addend: 0x0, symName: '__ZN10rayon_core4join12join_context28_$u7b$$u7b$closure$u7d$$u7d$17hf0c5c8c7965a3139E', symObjAddr: 0xF88, symBinAddr: 0x63C1C, symSize: 0x4B8 }
  - { offset: 0x131386, size: 0x8, addend: 0x0, symName: __ZN10rayon_core4join12join_context6call_a17h223027f090467348E, symObjAddr: 0x1440, symBinAddr: 0x640D4, symSize: 0x50 }
  - { offset: 0x1313D3, size: 0x8, addend: 0x0, symName: __ZN10rayon_core4join12join_context6call_a17h9e06dc9a3e42aa1dE, symObjAddr: 0x1490, symBinAddr: 0x64124, symSize: 0x50 }
  - { offset: 0x131420, size: 0x8, addend: 0x0, symName: __ZN10rayon_core4join12join_context6call_a17hd02b62782ead3e1fE, symObjAddr: 0x14E0, symBinAddr: 0x64174, symSize: 0x50 }
  - { offset: 0x13146D, size: 0x8, addend: 0x0, symName: __ZN10rayon_core4join12join_context6call_a17hec9b66f73d0a8161E, symObjAddr: 0x1530, symBinAddr: 0x641C4, symSize: 0x50 }
  - { offset: 0x1314BF, size: 0x8, addend: 0x0, symName: '__ZN10rayon_core4join12join_context6call_a28_$u7b$$u7b$closure$u7d$$u7d$17h0c2719300290d445E', symObjAddr: 0x1580, symBinAddr: 0x64214, symSize: 0x9C }
  - { offset: 0x13150F, size: 0x8, addend: 0x0, symName: '__ZN10rayon_core4join12join_context6call_a28_$u7b$$u7b$closure$u7d$$u7d$17hbfa41387a5085d05E', symObjAddr: 0x161C, symBinAddr: 0x642B0, symSize: 0x9C }
  - { offset: 0x13155F, size: 0x8, addend: 0x0, symName: '__ZN10rayon_core4join12join_context6call_a28_$u7b$$u7b$closure$u7d$$u7d$17hf7e745dafdfa5701E', symObjAddr: 0x16B8, symBinAddr: 0x6434C, symSize: 0x9C }
  - { offset: 0x1315AF, size: 0x8, addend: 0x0, symName: '__ZN10rayon_core4join12join_context6call_a28_$u7b$$u7b$closure$u7d$$u7d$17hfd85bbbe4d469bdeE', symObjAddr: 0x1754, symBinAddr: 0x643E8, symSize: 0x9C }
  - { offset: 0x131678, size: 0x8, addend: 0x0, symName: __ZN10rayon_core4join12join_context6call_b17h07b49b6b17d2b24fE, symObjAddr: 0x17F0, symBinAddr: 0x64484, symSize: 0x30 }
  - { offset: 0x1316B7, size: 0x8, addend: 0x0, symName: __ZN10rayon_core4join12join_context6call_b17h8f53b569ca1afdf5E, symObjAddr: 0x1820, symBinAddr: 0x644B4, symSize: 0x30 }
  - { offset: 0x1316F6, size: 0x8, addend: 0x0, symName: __ZN10rayon_core4join12join_context6call_b17hb7a411ea449a5d16E, symObjAddr: 0x1850, symBinAddr: 0x644E4, symSize: 0x30 }
  - { offset: 0x131735, size: 0x8, addend: 0x0, symName: __ZN10rayon_core4join12join_context6call_b17hd14d21ea9a1c4a1bE, symObjAddr: 0x1880, symBinAddr: 0x64514, symSize: 0x30 }
  - { offset: 0x131779, size: 0x8, addend: 0x0, symName: '__ZN10rayon_core4join12join_context6call_b28_$u7b$$u7b$closure$u7d$$u7d$17h0b69479a59a1ccdbE', symObjAddr: 0x18B0, symBinAddr: 0x64544, symSize: 0xA0 }
  - { offset: 0x1317C7, size: 0x8, addend: 0x0, symName: '__ZN10rayon_core4join12join_context6call_b28_$u7b$$u7b$closure$u7d$$u7d$17ha419ae3f52f346f1E', symObjAddr: 0x1950, symBinAddr: 0x645E4, symSize: 0xA0 }
  - { offset: 0x131815, size: 0x8, addend: 0x0, symName: '__ZN10rayon_core4join12join_context6call_b28_$u7b$$u7b$closure$u7d$$u7d$17hb5725c31426cd827E', symObjAddr: 0x19F0, symBinAddr: 0x64684, symSize: 0xA0 }
  - { offset: 0x131863, size: 0x8, addend: 0x0, symName: '__ZN10rayon_core4join12join_context6call_b28_$u7b$$u7b$closure$u7d$$u7d$17hb816bedc869ee992E', symObjAddr: 0x1A90, symBinAddr: 0x64724, symSize: 0xA0 }
  - { offset: 0x134014, size: 0x8, addend: 0x0, symName: __ZN4core9ub_checks23maybe_is_nonoverlapping7runtime17h621c98ef4ed9b1b8E, symObjAddr: 0x0, symBinAddr: 0x647C4, symSize: 0xD8 }
  - { offset: 0x134199, size: 0x8, addend: 0x0, symName: __ZN4core9ub_checks23maybe_is_nonoverlapping7runtime17h621c98ef4ed9b1b8E, symObjAddr: 0x0, symBinAddr: 0x647C4, symSize: 0xD8 }
  - { offset: 0x1343A8, size: 0x8, addend: 0x0, symName: '__ZN4core3cmp5impls69_$LT$impl$u20$core..cmp..PartialEq$LT$$RF$B$GT$$u20$for$u20$$RF$A$GT$2eq17hfeb9909c7bfcafcdE', symObjAddr: 0x0, symBinAddr: 0x6489C, symSize: 0x34 }
  - { offset: 0x1343C9, size: 0x8, addend: 0x0, symName: '__ZN4core3cmp5impls69_$LT$impl$u20$core..cmp..PartialEq$LT$$RF$B$GT$$u20$for$u20$$RF$A$GT$2eq17hfeb9909c7bfcafcdE', symObjAddr: 0x0, symBinAddr: 0x6489C, symSize: 0x34 }
  - { offset: 0x13444E, size: 0x8, addend: 0x0, symName: '__ZN4core3cmp5impls70_$LT$impl$u20$core..cmp..PartialOrd$LT$$RF$B$GT$$u20$for$u20$$RF$A$GT$2lt17h0f9400be0d8fa60dE', symObjAddr: 0x34, symBinAddr: 0x648D0, symSize: 0x44 }
  - { offset: 0x13452E, size: 0x8, addend: 0x0, symName: __ZN3std2io5error14repr_bitpacked4Repr10new_simple17hcb10a4bc43e91301E, symObjAddr: 0x0, symBinAddr: 0x64914, symSize: 0x7C }
  - { offset: 0x134EB8, size: 0x8, addend: 0x0, symName: __ZN3std2io5error14repr_bitpacked4Repr10new_simple17hcb10a4bc43e91301E, symObjAddr: 0x0, symBinAddr: 0x64914, symSize: 0x7C }
  - { offset: 0x134FC6, size: 0x8, addend: 0x0, symName: '__ZN3zip4read11zip_archive19ZipArchive$LT$R$GT$11with_config17h0ad043d1e8cf5c8eE', symObjAddr: 0x0, symBinAddr: 0x64990, symSize: 0x1E0 }
  - { offset: 0x1354A1, size: 0x8, addend: 0x0, symName: '__ZN3zip4read11zip_archive19ZipArchive$LT$R$GT$12get_metadata28_$u7b$$u7b$closure$u7d$$u7d$17h93da52d903fefab7E', symObjAddr: 0xC74, symBinAddr: 0x65604, symSize: 0x3C }
  - { offset: 0x1354F7, size: 0x8, addend: 0x0, symName: '__ZN3zip4read11zip_archive19ZipArchive$LT$R$GT$12get_metadata28_$u7b$$u7b$closure$u7d$$u7d$17h992a987346f70448E', symObjAddr: 0xCB0, symBinAddr: 0x65640, symSize: 0x3C }
  - { offset: 0x137676, size: 0x8, addend: 0x0, symName: '__ZN50_$LT$T$u20$as$u20$core..convert..Into$LT$U$GT$$GT$4into17hbf429609f094dbddE', symObjAddr: 0x2064, symBinAddr: 0x669F4, symSize: 0x14 }
  - { offset: 0x137DF6, size: 0x8, addend: 0x0, symName: '__ZN3zip4read11zip_archive19ZipArchive$LT$R$GT$11with_config17h0ad043d1e8cf5c8eE', symObjAddr: 0x0, symBinAddr: 0x64990, symSize: 0x1E0 }
  - { offset: 0x137EAD, size: 0x8, addend: 0x0, symName: '__ZN3zip4read11zip_archive19ZipArchive$LT$R$GT$11with_config17hbd2dba529498f65fE', symObjAddr: 0x1E0, symBinAddr: 0x64B70, symSize: 0x1C4 }
  - { offset: 0x137F4B, size: 0x8, addend: 0x0, symName: '__ZN3zip4read11zip_archive19ZipArchive$LT$R$GT$12get_metadata17h53d268ac26b61f8aE', symObjAddr: 0x3A4, symBinAddr: 0x64D34, symSize: 0x468 }
  - { offset: 0x13809A, size: 0x8, addend: 0x0, symName: '__ZN3zip4read11zip_archive19ZipArchive$LT$R$GT$12get_metadata17h5d6494306ab8f4b5E', symObjAddr: 0x80C, symBinAddr: 0x6519C, symSize: 0x468 }
  - { offset: 0x1381E9, size: 0x8, addend: 0x0, symName: '__ZN3zip4read11zip_archive19ZipArchive$LT$R$GT$19read_central_header17h5eb3436cfeacf97eE', symObjAddr: 0xCEC, symBinAddr: 0x6567C, symSize: 0x3E4 }
  - { offset: 0x1382E3, size: 0x8, addend: 0x0, symName: '__ZN3zip4read11zip_archive19ZipArchive$LT$R$GT$19read_central_header17h9260c5da2f55cd60E', symObjAddr: 0x10D0, symBinAddr: 0x65A60, symSize: 0x3E4 }
  - { offset: 0x1386C2, size: 0x8, addend: 0x0, symName: '__ZN3zip4read11zip_archive19ZipArchive$LT$R$GT$21by_index_with_options17h7af885daefefc29fE', symObjAddr: 0x14B4, symBinAddr: 0x65E44, symSize: 0x428 }
  - { offset: 0x13880D, size: 0x8, addend: 0x0, symName: '__ZN3zip4read11zip_archive19ZipArchive$LT$R$GT$21by_index_with_options17h8b4fb3d478f3cea8E', symObjAddr: 0x18DC, symBinAddr: 0x6626C, symSize: 0x428 }
  - { offset: 0x138931, size: 0x8, addend: 0x0, symName: '__ZN3zip4read11zip_archive19ZipArchive$LT$R$GT$30by_name_with_optional_password17h46386ee45f124503E', symObjAddr: 0x1D04, symBinAddr: 0x66694, symSize: 0xE4 }
  - { offset: 0x138999, size: 0x8, addend: 0x0, symName: '__ZN3zip4read11zip_archive19ZipArchive$LT$R$GT$30by_name_with_optional_password17had4ce00d7d15ecefE', symObjAddr: 0x1DE8, symBinAddr: 0x66778, symSize: 0xE4 }
  - { offset: 0x138A01, size: 0x8, addend: 0x0, symName: '__ZN3zip4read11zip_archive19ZipArchive$LT$R$GT$3new17h6385bd15db46d107E', symObjAddr: 0x1ECC, symBinAddr: 0x6685C, symSize: 0x94 }
  - { offset: 0x138A2E, size: 0x8, addend: 0x0, symName: '__ZN3zip4read11zip_archive19ZipArchive$LT$R$GT$3new17h8165b8208d06134eE', symObjAddr: 0x1F60, symBinAddr: 0x668F0, symSize: 0x8C }
  - { offset: 0x138A5A, size: 0x8, addend: 0x0, symName: '__ZN3zip4read11zip_archive19ZipArchive$LT$R$GT$7by_name17h12cf529f0d7833b1E', symObjAddr: 0x1FEC, symBinAddr: 0x6697C, symSize: 0x3C }
  - { offset: 0x138A95, size: 0x8, addend: 0x0, symName: '__ZN3zip4read11zip_archive19ZipArchive$LT$R$GT$7by_name17he60f66f701fc48e6E', symObjAddr: 0x2028, symBinAddr: 0x669B8, symSize: 0x3C }
  - { offset: 0x138AEE, size: 0x8, addend: 0x0, symName: __ZN4core4hash11BuildHasher8hash_one17h9eb9b72756df96a1E, symObjAddr: 0x0, symBinAddr: 0x66A08, symSize: 0x84 }
  - { offset: 0x138B0A, size: 0x8, addend: 0x0, symName: __ZN4core4hash11BuildHasher8hash_one17h9eb9b72756df96a1E, symObjAddr: 0x0, symBinAddr: 0x66A08, symSize: 0x84 }
  - { offset: 0x138B6F, size: 0x8, addend: 0x0, symName: __ZN4core4hash11BuildHasher8hash_one17hc2e552b24ea2eab5E, symObjAddr: 0x84, symBinAddr: 0x66A8C, symSize: 0x84 }
  - { offset: 0x138BD4, size: 0x8, addend: 0x0, symName: __ZN4core4hash11BuildHasher8hash_one17hce8aa35f02bf1195E, symObjAddr: 0x108, symBinAddr: 0x66B10, symSize: 0x88 }
  - { offset: 0x138F50, size: 0x8, addend: 0x0, symName: __ZN11_fast_ebook10_read_epub17h6cc38d94080477dfE, symObjAddr: 0x0, symBinAddr: 0x66B98, symSize: 0x10C }
  - { offset: 0x138FBC, size: 0x8, addend: 0x0, symName: __ZN11_fast_ebook10_read_epub17h6cc38d94080477dfE, symObjAddr: 0x0, symBinAddr: 0x66B98, symSize: 0x10C }
  - { offset: 0x139068, size: 0x8, addend: 0x0, symName: '__ZN11_fast_ebook50_$LT$impl$u20$_fast_ebook.._read_epub..MakeDef$GT$9_PYO3_DEF10trampoline17h1cca72d4d4e02fc9E', symObjAddr: 0x10C, symBinAddr: 0x66CA4, symSize: 0x50 }
  - { offset: 0x1390C0, size: 0x8, addend: 0x0, symName: __ZN11_fast_ebook23__pyfunction__read_epub17hd86a0f01c9ac9ecdE, symObjAddr: 0x15C, symBinAddr: 0x66CF4, symSize: 0x484 }
  - { offset: 0x13929A, size: 0x8, addend: 0x0, symName: __ZN11_fast_ebook16_read_epub_bytes17h26e1fb7a78bfe8feE, symObjAddr: 0x5E0, symBinAddr: 0x67178, symSize: 0x10C }
  - { offset: 0x139346, size: 0x8, addend: 0x0, symName: '__ZN11_fast_ebook56_$LT$impl$u20$_fast_ebook.._read_epub_bytes..MakeDef$GT$9_PYO3_DEF10trampoline17hffdccf75715a22eaE', symObjAddr: 0x6EC, symBinAddr: 0x67284, symSize: 0x50 }
  - { offset: 0x13939E, size: 0x8, addend: 0x0, symName: __ZN11_fast_ebook29__pyfunction__read_epub_bytes17hc0a4f982fe977f4dE, symObjAddr: 0x73C, symBinAddr: 0x672D4, symSize: 0x484 }
  - { offset: 0x139578, size: 0x8, addend: 0x0, symName: __ZN11_fast_ebook11_write_epub17h9b7df9a1fa125fecE, symObjAddr: 0xBC0, symBinAddr: 0x67758, symSize: 0x48 }
  - { offset: 0x1395BC, size: 0x8, addend: 0x0, symName: '__ZN11_fast_ebook51_$LT$impl$u20$_fast_ebook.._write_epub..MakeDef$GT$9_PYO3_DEF10trampoline17h96c894b8dddb2920E', symObjAddr: 0xC08, symBinAddr: 0x677A0, symSize: 0x50 }
  - { offset: 0x139614, size: 0x8, addend: 0x0, symName: __ZN11_fast_ebook24__pyfunction__write_epub17h5998d1aa28690817E, symObjAddr: 0xC58, symBinAddr: 0x677F0, symSize: 0x438 }
  - { offset: 0x1397AC, size: 0x8, addend: 0x0, symName: __ZN11_fast_ebook17_write_epub_bytes17h603011e2053f3a00E, symObjAddr: 0x1090, symBinAddr: 0x67C28, symSize: 0x124 }
  - { offset: 0x13984D, size: 0x8, addend: 0x0, symName: '__ZN11_fast_ebook57_$LT$impl$u20$_fast_ebook.._write_epub_bytes..MakeDef$GT$9_PYO3_DEF10trampoline17ha2f4519d3ac48976E', symObjAddr: 0x11B4, symBinAddr: 0x67D4C, symSize: 0x50 }
  - { offset: 0x1398A5, size: 0x8, addend: 0x0, symName: __ZN11_fast_ebook30__pyfunction__write_epub_bytes17h3f3114255cfd19d8E, symObjAddr: 0x1204, symBinAddr: 0x67D9C, symSize: 0x338 }
  - { offset: 0x139A18, size: 0x8, addend: 0x0, symName: __ZN11_fast_ebook11_read_epubs17hfd92a7334c4ffd65E, symObjAddr: 0x153C, symBinAddr: 0x680D4, symSize: 0x354 }
  - { offset: 0x139B5B, size: 0x8, addend: 0x0, symName: '__ZN11_fast_ebook51_$LT$impl$u20$_fast_ebook.._read_epubs..MakeDef$GT$9_PYO3_DEF10trampoline17h492326ac79e5f765E', symObjAddr: 0x1890, symBinAddr: 0x68428, symSize: 0x50 }
  - { offset: 0x139BB3, size: 0x8, addend: 0x0, symName: __ZN11_fast_ebook24__pyfunction__read_epubs17hdd30afae8065c632E, symObjAddr: 0x18E0, symBinAddr: 0x68478, symSize: 0x62C }
  - { offset: 0x139DDF, size: 0x8, addend: 0x0, symName: __ZN11_fast_ebook11_fast_ebook17h103ce10d1067301cE, symObjAddr: 0x1F0C, symBinAddr: 0x68AA4, symSize: 0x538 }
  - { offset: 0x139F9C, size: 0x8, addend: 0x0, symName: '__ZN11_fast_ebook51_$LT$impl$u20$_fast_ebook.._fast_ebook..MakeDef$GT$8make_def15__pyo3_pymodule17hef7a73dd377f59baE', symObjAddr: 0x2444, symBinAddr: 0x68FDC, symSize: 0x38 }
  - { offset: 0x13DB55, size: 0x8, addend: 0x0, symName: __ZN4core4time8Duration7as_secs17h8980c6bf8217f7e3E, symObjAddr: 0x0, symBinAddr: 0x69014, symSize: 0x18 }
  - { offset: 0x13E37F, size: 0x8, addend: 0x0, symName: '__ZN63_$LT$core..time..Duration$u20$as$u20$core..default..Default$GT$7default17he82e20748117adfdE', symObjAddr: 0x18, symBinAddr: 0x6902C, symSize: 0xC }
  - { offset: 0x13ECC9, size: 0x8, addend: 0x0, symName: __ZN4core4time8Duration7as_secs17h8980c6bf8217f7e3E, symObjAddr: 0x0, symBinAddr: 0x69014, symSize: 0x18 }
  - { offset: 0x13ED00, size: 0x8, addend: 0x0, symName: '__ZN73_$LT$pyo3..types..any..PyAny$u20$as$u20$pyo3..type_object..PyTypeInfo$GT$15type_object_raw17hc9d5b47f51fe7d6bE', symObjAddr: 0x24, symBinAddr: 0x69038, symSize: 0x24 }
  - { offset: 0x13F26B, size: 0x8, addend: 0x0, symName: __ZN11_fast_ebook9item_type8ItemType15from_media_type17hf6f7094064029922E, symObjAddr: 0x0, symBinAddr: 0x6905C, symSize: 0x3C4 }
  - { offset: 0x13F305, size: 0x8, addend: 0x0, symName: __ZN11_fast_ebook9item_type16guess_media_type17haace23bf65051798E, symObjAddr: 0x558, symBinAddr: 0x695B4, symSize: 0x5E4 }
  - { offset: 0x13F34C, size: 0x8, addend: 0x0, symName: '__ZN73_$LT$_fast_ebook..item_type..ItemType$u20$as$u20$core..cmp..PartialEq$GT$2eq17hb58b9d162ab54219E', symObjAddr: 0xB3C, symBinAddr: 0x69B98, symSize: 0x34 }
  - { offset: 0x13F4FF, size: 0x8, addend: 0x0, symName: __ZN11_fast_ebook9item_type8ItemType15from_media_type17hf6f7094064029922E, symObjAddr: 0x0, symBinAddr: 0x6905C, symSize: 0x3C4 }
  - { offset: 0x13F5F9, size: 0x8, addend: 0x0, symName: __ZN11_fast_ebook9item_type8ItemType7from_u817h8b5d2a04cddaca18E, symObjAddr: 0x3C4, symBinAddr: 0x69420, symSize: 0x194 }
  - { offset: 0x13F73E, size: 0x8, addend: 0x0, symName: __ZN4pyo35types4list17try_new_from_iter17h62ca36e7881e9ba0E, symObjAddr: 0x0, symBinAddr: 0x69BCC, symSize: 0x2A8 }
  - { offset: 0x141302, size: 0x8, addend: 0x0, symName: __ZN4pyo35types4list17try_new_from_iter17h62ca36e7881e9ba0E, symObjAddr: 0x0, symBinAddr: 0x69BCC, symSize: 0x2A8 }
  - { offset: 0x14141E, size: 0x8, addend: 0x0, symName: __ZN4pyo35types4list17try_new_from_iter17h93258938df404b26E, symObjAddr: 0x2A8, symBinAddr: 0x69E74, symSize: 0x2A8 }
  - { offset: 0x14153A, size: 0x8, addend: 0x0, symName: __ZN4pyo35types4list17try_new_from_iter17hb34e5bfd33e938d0E, symObjAddr: 0x550, symBinAddr: 0x6A11C, symSize: 0x2A8 }
  - { offset: 0x141656, size: 0x8, addend: 0x0, symName: __ZN4pyo35types4list17try_new_from_iter17hc591ec7615c57185E, symObjAddr: 0x7F8, symBinAddr: 0x6A3C4, symSize: 0x2A8 }
  - { offset: 0x141772, size: 0x8, addend: 0x0, symName: __ZN4pyo35types4list17try_new_from_iter17hea2df03eaf2e8963E, symObjAddr: 0xAA0, symBinAddr: 0x6A66C, symSize: 0x2A8 }
  - { offset: 0x14188E, size: 0x8, addend: 0x0, symName: __ZN4pyo35types4list17try_new_from_iter17hfa64068cf71648d9E, symObjAddr: 0xD48, symBinAddr: 0x6A914, symSize: 0x2A8 }
  - { offset: 0x1419AF, size: 0x8, addend: 0x0, symName: '__ZN4pyo35types4list17try_new_from_iter28_$u7b$$u7b$closure$u7d$$u7d$17h03e707011e7835c3E', symObjAddr: 0xFF0, symBinAddr: 0x6ABBC, symSize: 0xDC }
  - { offset: 0x141A22, size: 0x8, addend: 0x0, symName: '__ZN4pyo35types4list17try_new_from_iter28_$u7b$$u7b$closure$u7d$$u7d$17h38bd86823bb28ce5E', symObjAddr: 0x10CC, symBinAddr: 0x6AC98, symSize: 0xDC }
  - { offset: 0x141A95, size: 0x8, addend: 0x0, symName: '__ZN4pyo35types4list17try_new_from_iter28_$u7b$$u7b$closure$u7d$$u7d$17h7cb2b7c28f300381E', symObjAddr: 0x11A8, symBinAddr: 0x6AD74, symSize: 0xDC }
  - { offset: 0x141B08, size: 0x8, addend: 0x0, symName: '__ZN4pyo35types4list17try_new_from_iter28_$u7b$$u7b$closure$u7d$$u7d$17ha41a4f1a430fc366E', symObjAddr: 0x1284, symBinAddr: 0x6AE50, symSize: 0xDC }
  - { offset: 0x141B7B, size: 0x8, addend: 0x0, symName: '__ZN4pyo35types4list17try_new_from_iter28_$u7b$$u7b$closure$u7d$$u7d$17ha5cc02eaeebb8825E', symObjAddr: 0x1360, symBinAddr: 0x6AF2C, symSize: 0xDC }
  - { offset: 0x141BEE, size: 0x8, addend: 0x0, symName: '__ZN4pyo35types4list17try_new_from_iter28_$u7b$$u7b$closure$u7d$$u7d$17hc23112cb7bd3abddE', symObjAddr: 0x143C, symBinAddr: 0x6B008, symSize: 0xDC }
  - { offset: 0x143089, size: 0x8, addend: 0x0, symName: __ZN5rayon4iter8plumbing14LengthSplitter3new17h3736ebe63f10601cE, symObjAddr: 0x0, symBinAddr: 0x6B0E4, symSize: 0xBC }
  - { offset: 0x143150, size: 0x8, addend: 0x0, symName: __ZN5rayon4iter8plumbing14LengthSplitter3new17h3736ebe63f10601cE, symObjAddr: 0x0, symBinAddr: 0x6B0E4, symSize: 0xBC }
  - { offset: 0x1431D1, size: 0x8, addend: 0x0, symName: __ZN5rayon4iter8plumbing14LengthSplitter9try_split17h0f645bbec5eaa334E, symObjAddr: 0xBC, symBinAddr: 0x6B1A0, symSize: 0x6C }
  - { offset: 0x143212, size: 0x8, addend: 0x0, symName: __ZN5rayon4iter8plumbing8Splitter3new17hf886d56c53a5734cE, symObjAddr: 0x128, symBinAddr: 0x6B20C, symSize: 0x14 }
  - { offset: 0x143232, size: 0x8, addend: 0x0, symName: __ZN5rayon4iter8plumbing8Splitter9try_split17h3d875b99971b5e77E, symObjAddr: 0x13C, symBinAddr: 0x6B220, symSize: 0xA8 }
  - { offset: 0x1432A0, size: 0x8, addend: 0x0, symName: __ZN4core4iter7sources4once4once17h1c947fc2ee556a5dE, symObjAddr: 0x0, symBinAddr: 0x6B2C8, symSize: 0x50 }
  - { offset: 0x1433E6, size: 0x8, addend: 0x0, symName: __ZN4core4iter7sources4once4once17h1c947fc2ee556a5dE, symObjAddr: 0x0, symBinAddr: 0x6B2C8, symSize: 0x50 }
  - { offset: 0x143434, size: 0x8, addend: 0x0, symName: '__ZN99_$LT$core..iter..sources..once..Once$LT$T$GT$$u20$as$u20$core..iter..traits..iterator..Iterator$GT$4next17hf9acb658662aeff7E', symObjAddr: 0x68, symBinAddr: 0x6B330, symSize: 0x40 }
  - { offset: 0x1434EF, size: 0x8, addend: 0x0, symName: '__ZN63_$LT$I$u20$as$u20$core..iter..traits..collect..IntoIterator$GT$9into_iter17h799351424b538644E', symObjAddr: 0x50, symBinAddr: 0x6B318, symSize: 0x18 }
  - { offset: 0x1435EE, size: 0x8, addend: 0x0, symName: '__ZN11_fast_ebook5model8EpubBook14get_item_by_id28_$u7b$$u7b$closure$u7d$$u7d$17h85c578f2389ae421E', symObjAddr: 0x0, symBinAddr: 0x6B370, symSize: 0x40 }
  - { offset: 0x143669, size: 0x8, addend: 0x0, symName: '__ZN11_fast_ebook5model8EpubBook14get_item_by_id28_$u7b$$u7b$closure$u7d$$u7d$17h85c578f2389ae421E', symObjAddr: 0x0, symBinAddr: 0x6B370, symSize: 0x40 }
  - { offset: 0x1436C4, size: 0x8, addend: 0x0, symName: '__ZN11_fast_ebook5model8EpubBook16get_item_by_href28_$u7b$$u7b$closure$u7d$$u7d$17he534f0774aa2e60dE', symObjAddr: 0x40, symBinAddr: 0x6B3B0, symSize: 0x40 }
  - { offset: 0x14371F, size: 0x8, addend: 0x0, symName: '__ZN11_fast_ebook5model8EpubBook18get_metadata_value28_$u7b$$u7b$closure$u7d$$u7d$17he6a2e5fbcf3cd48eE', symObjAddr: 0x80, symBinAddr: 0x6B3F0, symSize: 0x3C }
  - { offset: 0x14375B, size: 0x8, addend: 0x0, symName: '__ZN11_fast_ebook5model8EpubBook18get_metadata_value28_$u7b$$u7b$closure$u7d$$u7d$17h2898a11ce89601a8E', symObjAddr: 0xBC, symBinAddr: 0x6B42C, symSize: 0x28 }
  - { offset: 0x143791, size: 0x8, addend: 0x0, symName: '__ZN11_fast_ebook5model8EpubBook18get_metadata_value28_$u7b$$u7b$closure$u7d$$u7d$17hd695cde26a4e69deE', symObjAddr: 0xE4, symBinAddr: 0x6B454, symSize: 0x24 }
  - { offset: 0x1442C7, size: 0x8, addend: 0x0, symName: __ZN3std2io5Write18write_all_vectored17h2029d22ccc1dd199E, symObjAddr: 0x0, symBinAddr: 0x6B478, symSize: 0x250 }
  - { offset: 0x1446F7, size: 0x8, addend: 0x0, symName: __ZN3std2io5Write18write_all_vectored17h2029d22ccc1dd199E, symObjAddr: 0x0, symBinAddr: 0x6B478, symSize: 0x250 }
  - { offset: 0x144867, size: 0x8, addend: 0x0, symName: __ZN3std2io5Write18write_all_vectored17h60fc9b2d936a2e93E, symObjAddr: 0x250, symBinAddr: 0x6B6C8, symSize: 0x250 }
  - { offset: 0x1449D7, size: 0x8, addend: 0x0, symName: __ZN3std2io5Write9write_fmt17h1b0302fca7ba6c4fE, symObjAddr: 0x4A0, symBinAddr: 0x6B918, symSize: 0x154 }
  - { offset: 0x144A89, size: 0x8, addend: 0x0, symName: __ZN3std2io5Write9write_fmt17h2180df6bdb0fc28bE, symObjAddr: 0x5F4, symBinAddr: 0x6BA6C, symSize: 0x154 }
  - { offset: 0x144F0E, size: 0x8, addend: 0x0, symName: '__ZN83_$LT$std..io..buffered..bufwriter..BufWriter$LT$W$GT$$u20$as$u20$std..io..Write$GT$14write_vectored17h84ab22f0548ae942E', symObjAddr: 0x1BA0, symBinAddr: 0x6CB20, symSize: 0x7E8 }
  - { offset: 0x145AF2, size: 0x8, addend: 0x0, symName: '__ZN83_$LT$std..io..buffered..bufwriter..BufWriter$LT$W$GT$$u20$as$u20$std..io..Write$GT$14write_vectored17hc3d6a8dc06786ef5E', symObjAddr: 0x2388, symBinAddr: 0x6D308, symSize: 0x7E8 }
  - { offset: 0x1466DB, size: 0x8, addend: 0x0, symName: '__ZN83_$LT$std..io..buffered..bufwriter..BufWriter$LT$W$GT$$u20$as$u20$std..io..Write$GT$14write_vectored28_$u7b$$u7b$closure$u7d$$u7d$17h9cfda59afda6884bE', symObjAddr: 0x2B70, symBinAddr: 0x6DAF0, symSize: 0x90 }
  - { offset: 0x1467F9, size: 0x8, addend: 0x0, symName: '__ZN83_$LT$std..io..buffered..bufwriter..BufWriter$LT$W$GT$$u20$as$u20$std..io..Write$GT$14write_vectored28_$u7b$$u7b$closure$u7d$$u7d$17ha514a52c30fc3e01E', symObjAddr: 0x2C00, symBinAddr: 0x6DB80, symSize: 0x88 }
  - { offset: 0x14689F, size: 0x8, addend: 0x0, symName: '__ZN83_$LT$std..io..buffered..bufwriter..BufWriter$LT$W$GT$$u20$as$u20$std..io..Write$GT$14write_vectored28_$u7b$$u7b$closure$u7d$$u7d$17hbba3d0a409e29bceE', symObjAddr: 0x2C88, symBinAddr: 0x6DC08, symSize: 0x90 }
  - { offset: 0x1469BD, size: 0x8, addend: 0x0, symName: '__ZN83_$LT$std..io..buffered..bufwriter..BufWriter$LT$W$GT$$u20$as$u20$std..io..Write$GT$14write_vectored28_$u7b$$u7b$closure$u7d$$u7d$17hc4da5194e0a74e9fE', symObjAddr: 0x2D18, symBinAddr: 0x6DC98, symSize: 0x88 }
  - { offset: 0x146A72, size: 0x8, addend: 0x0, symName: '__ZN83_$LT$std..io..buffered..bufwriter..BufWriter$LT$W$GT$$u20$as$u20$std..io..Write$GT$17is_write_vectored17h369871c38027d4b7E', symObjAddr: 0x2DA0, symBinAddr: 0x6DD20, symSize: 0x18 }
  - { offset: 0x146AA9, size: 0x8, addend: 0x0, symName: '__ZN83_$LT$std..io..buffered..bufwriter..BufWriter$LT$W$GT$$u20$as$u20$std..io..Write$GT$17is_write_vectored17hb6f187912b9dc091E', symObjAddr: 0x2DB8, symBinAddr: 0x6DD38, symSize: 0x18 }
  - { offset: 0x146B5C, size: 0x8, addend: 0x0, symName: '__ZN83_$LT$std..io..buffered..bufwriter..BufWriter$LT$W$GT$$u20$as$u20$std..io..Write$GT$5flush17h537279230f9548b5E', symObjAddr: 0x2DD0, symBinAddr: 0x6DD50, symSize: 0x68 }
  - { offset: 0x146C22, size: 0x8, addend: 0x0, symName: '__ZN83_$LT$std..io..buffered..bufwriter..BufWriter$LT$W$GT$$u20$as$u20$std..io..Write$GT$5flush17hfc22d4f9bf5e4926E', symObjAddr: 0x2E38, symBinAddr: 0x6DDB8, symSize: 0x68 }
  - { offset: 0x146CE8, size: 0x8, addend: 0x0, symName: '__ZN83_$LT$std..io..buffered..bufwriter..BufWriter$LT$W$GT$$u20$as$u20$std..io..Write$GT$5write17h5b7942e816f793dcE', symObjAddr: 0x2EA0, symBinAddr: 0x6DE20, symSize: 0x90 }
  - { offset: 0x146DA2, size: 0x8, addend: 0x0, symName: '__ZN83_$LT$std..io..buffered..bufwriter..BufWriter$LT$W$GT$$u20$as$u20$std..io..Write$GT$5write17h7bd44bd912c6cdbfE', symObjAddr: 0x2F30, symBinAddr: 0x6DEB0, symSize: 0x90 }
  - { offset: 0x146E5C, size: 0x8, addend: 0x0, symName: '__ZN83_$LT$std..io..buffered..bufwriter..BufWriter$LT$W$GT$$u20$as$u20$std..io..Write$GT$9write_all17h6001279dd2337819E', symObjAddr: 0x2FC0, symBinAddr: 0x6DF40, symSize: 0x80 }
  - { offset: 0x146F16, size: 0x8, addend: 0x0, symName: '__ZN83_$LT$std..io..buffered..bufwriter..BufWriter$LT$W$GT$$u20$as$u20$std..io..Write$GT$9write_all17he9ac5b2e9708300cE', symObjAddr: 0x3040, symBinAddr: 0x6DFC0, symSize: 0x80 }
  - { offset: 0x149374, size: 0x8, addend: 0x0, symName: '__ZN3std2io8buffered9bufwriter18BufWriter$LT$W$GT$10into_inner17h6e6731fc00a79f22E', symObjAddr: 0x748, symBinAddr: 0x6BBC0, symSize: 0x300 }
  - { offset: 0x1495DB, size: 0x8, addend: 0x0, symName: '__ZN3std2io8buffered9bufwriter18BufWriter$LT$W$GT$10into_inner17hbf492a44c997cf8bE', symObjAddr: 0xA48, symBinAddr: 0x6BEC0, symSize: 0x2E8 }
  - { offset: 0x1498A1, size: 0x8, addend: 0x0, symName: '__ZN3std2io8buffered9bufwriter18BufWriter$LT$W$GT$10write_cold17hc6b98dd36a3ca88dE', symObjAddr: 0xD30, symBinAddr: 0x21AF14, symSize: 0x14C }
  - { offset: 0x149B47, size: 0x8, addend: 0x0, symName: '__ZN3std2io8buffered9bufwriter18BufWriter$LT$W$GT$10write_cold17he6ecae033a822f83E', symObjAddr: 0xE7C, symBinAddr: 0x21B060, symSize: 0x14C }
  - { offset: 0x149D8D, size: 0x8, addend: 0x0, symName: '__ZN3std2io8buffered9bufwriter18BufWriter$LT$W$GT$13with_capacity17h2b57ddd0446e6efbE', symObjAddr: 0xFC8, symBinAddr: 0x6C1A8, symSize: 0xD8 }
  - { offset: 0x149E9E, size: 0x8, addend: 0x0, symName: '__ZN3std2io8buffered9bufwriter18BufWriter$LT$W$GT$13with_capacity17hc2d6c8ef79b0b4bfE', symObjAddr: 0x10A0, symBinAddr: 0x6C280, symSize: 0xD8 }
  - { offset: 0x149FF5, size: 0x8, addend: 0x0, symName: '__ZN3std2io8buffered9bufwriter18BufWriter$LT$W$GT$14write_all_cold17h3936ebfdef61d3d2E', symObjAddr: 0x1178, symBinAddr: 0x21B1AC, symSize: 0x130 }
  - { offset: 0x14A273, size: 0x8, addend: 0x0, symName: '__ZN3std2io8buffered9bufwriter18BufWriter$LT$W$GT$14write_all_cold17h9805013301e97e9fE', symObjAddr: 0x12A8, symBinAddr: 0x21B2DC, symSize: 0x130 }
  - { offset: 0x14A510, size: 0x8, addend: 0x0, symName: '__ZN3std2io8buffered9bufwriter18BufWriter$LT$W$GT$25write_to_buffer_unchecked17h4c3b610af76994b2E', symObjAddr: 0x13D8, symBinAddr: 0x6C358, symSize: 0xE0 }
  - { offset: 0x14A7AC, size: 0x8, addend: 0x0, symName: '__ZN3std2io8buffered9bufwriter18BufWriter$LT$W$GT$25write_to_buffer_unchecked17hbf3ae918c939fbffE', symObjAddr: 0x14B8, symBinAddr: 0x6C438, symSize: 0xE0 }
  - { offset: 0x14AA94, size: 0x8, addend: 0x0, symName: '__ZN3std2io8buffered9bufwriter18BufWriter$LT$W$GT$9flush_buf17h45f8b598ca181740E', symObjAddr: 0x1598, symBinAddr: 0x6C518, symSize: 0x304 }
  - { offset: 0x14ADCF, size: 0x8, addend: 0x0, symName: '__ZN3std2io8buffered9bufwriter18BufWriter$LT$W$GT$9flush_buf17hc4e2a43e663ed4fbE', symObjAddr: 0x189C, symBinAddr: 0x6C81C, symSize: 0x304 }
  - { offset: 0x14B8D3, size: 0x8, addend: 0x0, symName: __ZN4core5slice3raw14from_raw_parts18precondition_check17h545621d216f9d099E, symObjAddr: 0x0, symBinAddr: 0x6E040, symSize: 0x1DC }
  - { offset: 0x14BE36, size: 0x8, addend: 0x0, symName: __ZN4core5slice3raw14from_raw_parts18precondition_check17h545621d216f9d099E, symObjAddr: 0x0, symBinAddr: 0x6E040, symSize: 0x1DC }
  - { offset: 0x14BFBA, size: 0x8, addend: 0x0, symName: __ZN4core5slice3raw18from_raw_parts_mut18precondition_check17h91b495e5dcd79c38E, symObjAddr: 0x1DC, symBinAddr: 0x6E21C, symSize: 0x1DC }
  - { offset: 0x14C31D, size: 0x8, addend: 0x0, symName: '__ZN68_$LT$zip..read..config..Config$u20$as$u20$core..default..Default$GT$7default17hf7ff59c9e67ef4aaE', symObjAddr: 0x0, symBinAddr: 0x6E3F8, symSize: 0x14 }
  - { offset: 0x14C33E, size: 0x8, addend: 0x0, symName: '__ZN68_$LT$zip..read..config..Config$u20$as$u20$core..default..Default$GT$7default17hf7ff59c9e67ef4aaE', symObjAddr: 0x0, symBinAddr: 0x6E3F8, symSize: 0x14 }
  - { offset: 0x14C361, size: 0x8, addend: 0x0, symName: '__ZN75_$LT$zip..read..config..ArchiveOffset$u20$as$u20$core..default..Default$GT$7default17h1ef74736671c597eE', symObjAddr: 0x14, symBinAddr: 0x6E40C, symSize: 0x18 }
  - { offset: 0x14C40B, size: 0x8, addend: 0x0, symName: '__ZN11_fast_ebook8manifest14parse_manifest28_$u7b$$u7b$closure$u7d$$u7d$17h94ad38b20c8aeb2aE', symObjAddr: 0x2C, symBinAddr: 0x6E424, symSize: 0x28 }
  - { offset: 0x14C622, size: 0x8, addend: 0x0, symName: __ZN10rayon_core11thread_pool10ThreadPool7install17h46aea0d1a718a8f2E, symObjAddr: 0x0, symBinAddr: 0x6E44C, symSize: 0x94 }
  - { offset: 0x14D107, size: 0x8, addend: 0x0, symName: '__ZN10rayon_core11thread_pool10ThreadPool7install28_$u7b$$u7b$closure$u7d$$u7d$17h88ec968e41831a87E', symObjAddr: 0x94, symBinAddr: 0x6E4E0, symSize: 0x3C }
  - { offset: 0x14EC48, size: 0x8, addend: 0x0, symName: __ZN10rayon_core11thread_pool10ThreadPool7install17h46aea0d1a718a8f2E, symObjAddr: 0x0, symBinAddr: 0x6E44C, symSize: 0x94 }
  - { offset: 0x14ECB6, size: 0x8, addend: 0x0, symName: __ZN4pyo35types10typeobject6PyType22from_borrowed_type_ptr17h196b3a4bcf7c1d41E, symObjAddr: 0x0, symBinAddr: 0x6E51C, symSize: 0x34 }
  - { offset: 0x1503FB, size: 0x8, addend: 0x0, symName: __ZN4pyo35types10typeobject6PyType22from_borrowed_type_ptr17h196b3a4bcf7c1d41E, symObjAddr: 0x0, symBinAddr: 0x6E51C, symSize: 0x34 }
  - { offset: 0x150454, size: 0x8, addend: 0x0, symName: '__ZN4pyo35impl_4wrap30IntoPyObjectConverter$LT$T$GT$4wrap17h036782c63a7b7ef1E', symObjAddr: 0x0, symBinAddr: 0x6E550, symSize: 0x24 }
  - { offset: 0x153BAF, size: 0x8, addend: 0x0, symName: '__ZN4pyo35impl_4wrap62IntoPyObjectConverter$LT$core..result..Result$LT$T$C$E$GT$$GT$12map_into_ptr28_$u7b$$u7b$closure$u7d$$u7d$17h03b9edf90080ef7bE', symObjAddr: 0x500, symBinAddr: 0x6EA50, symSize: 0x38 }
  - { offset: 0x153C06, size: 0x8, addend: 0x0, symName: '__ZN4pyo35impl_4wrap62IntoPyObjectConverter$LT$core..result..Result$LT$T$C$E$GT$$GT$12map_into_ptr28_$u7b$$u7b$closure$u7d$$u7d$17h14aa0b1e2fa49f9eE', symObjAddr: 0x538, symBinAddr: 0x6EA88, symSize: 0x30 }
  - { offset: 0x153C5D, size: 0x8, addend: 0x0, symName: '__ZN4pyo35impl_4wrap62IntoPyObjectConverter$LT$core..result..Result$LT$T$C$E$GT$$GT$12map_into_ptr28_$u7b$$u7b$closure$u7d$$u7d$17h1985a3665640df59E', symObjAddr: 0x568, symBinAddr: 0x6EAB8, symSize: 0x28 }
  - { offset: 0x153CB5, size: 0x8, addend: 0x0, symName: '__ZN4pyo35impl_4wrap62IntoPyObjectConverter$LT$core..result..Result$LT$T$C$E$GT$$GT$12map_into_ptr28_$u7b$$u7b$closure$u7d$$u7d$17h26531d6ce769dea7E', symObjAddr: 0x590, symBinAddr: 0x6EAE0, symSize: 0x30 }
  - { offset: 0x153D0C, size: 0x8, addend: 0x0, symName: '__ZN4pyo35impl_4wrap62IntoPyObjectConverter$LT$core..result..Result$LT$T$C$E$GT$$GT$12map_into_ptr28_$u7b$$u7b$closure$u7d$$u7d$17h849963b5194a02d4E', symObjAddr: 0x5C0, symBinAddr: 0x6EB10, symSize: 0x2C }
  - { offset: 0x153D63, size: 0x8, addend: 0x0, symName: '__ZN4pyo35impl_4wrap62IntoPyObjectConverter$LT$core..result..Result$LT$T$C$E$GT$$GT$12map_into_ptr28_$u7b$$u7b$closure$u7d$$u7d$17h90d785ab72da4211E', symObjAddr: 0x5EC, symBinAddr: 0x6EB3C, symSize: 0x28 }
  - { offset: 0x153DBB, size: 0x8, addend: 0x0, symName: '__ZN4pyo35impl_4wrap62IntoPyObjectConverter$LT$core..result..Result$LT$T$C$E$GT$$GT$12map_into_ptr28_$u7b$$u7b$closure$u7d$$u7d$17h9fae6e2ab102a4c8E', symObjAddr: 0x614, symBinAddr: 0x6EB64, symSize: 0x28 }
  - { offset: 0x153E13, size: 0x8, addend: 0x0, symName: '__ZN4pyo35impl_4wrap62IntoPyObjectConverter$LT$core..result..Result$LT$T$C$E$GT$$GT$12map_into_ptr28_$u7b$$u7b$closure$u7d$$u7d$17hb3ead799cb22dbb3E', symObjAddr: 0x63C, symBinAddr: 0x6EB8C, symSize: 0x28 }
  - { offset: 0x153E6B, size: 0x8, addend: 0x0, symName: '__ZN4pyo35impl_4wrap62IntoPyObjectConverter$LT$core..result..Result$LT$T$C$E$GT$$GT$12map_into_ptr28_$u7b$$u7b$closure$u7d$$u7d$17hbbb69b23cd6168bbE', symObjAddr: 0x664, symBinAddr: 0x6EBB4, symSize: 0x28 }
  - { offset: 0x153EC3, size: 0x8, addend: 0x0, symName: '__ZN4pyo35impl_4wrap62IntoPyObjectConverter$LT$core..result..Result$LT$T$C$E$GT$$GT$12map_into_ptr28_$u7b$$u7b$closure$u7d$$u7d$17hc22bcc65a3cdfbbfE', symObjAddr: 0x68C, symBinAddr: 0x6EBDC, symSize: 0x30 }
  - { offset: 0x153F1A, size: 0x8, addend: 0x0, symName: '__ZN4pyo35impl_4wrap62IntoPyObjectConverter$LT$core..result..Result$LT$T$C$E$GT$$GT$12map_into_ptr28_$u7b$$u7b$closure$u7d$$u7d$17hc26c51e593d653f2E', symObjAddr: 0x6BC, symBinAddr: 0x6EC0C, symSize: 0x28 }
  - { offset: 0x153F72, size: 0x8, addend: 0x0, symName: '__ZN4pyo35impl_4wrap62IntoPyObjectConverter$LT$core..result..Result$LT$T$C$E$GT$$GT$12map_into_ptr28_$u7b$$u7b$closure$u7d$$u7d$17hcff21dcad0ce7f18E', symObjAddr: 0x6E4, symBinAddr: 0x6EC34, symSize: 0x2C }
  - { offset: 0x153FC9, size: 0x8, addend: 0x0, symName: '__ZN4pyo35impl_4wrap62IntoPyObjectConverter$LT$core..result..Result$LT$T$C$E$GT$$GT$12map_into_ptr28_$u7b$$u7b$closure$u7d$$u7d$17hd59fc0c7a4bab245E', symObjAddr: 0x710, symBinAddr: 0x6EC60, symSize: 0x28 }
  - { offset: 0x1541C8, size: 0x8, addend: 0x0, symName: '__ZN4pyo35impl_4wrap82EmptyTupleConverter$LT$core..result..Result$LT$$LP$$RP$$C$pyo3..err..PyErr$GT$$GT$12map_into_ptr28_$u7b$$u7b$closure$u7d$$u7d$17h97d36fb159e1c209E', symObjAddr: 0x808, symBinAddr: 0x6ED58, symSize: 0x28 }
  - { offset: 0x15421E, size: 0x8, addend: 0x0, symName: __ZN4pyo35impl_4wrap9converter17h078cadd7e71ca687E, symObjAddr: 0x830, symBinAddr: 0x6ED80, symSize: 0x10 }
  - { offset: 0x15424B, size: 0x8, addend: 0x0, symName: __ZN4pyo35impl_4wrap9converter17h0bc3e24af0cce00dE, symObjAddr: 0x840, symBinAddr: 0x6ED90, symSize: 0x10 }
  - { offset: 0x154278, size: 0x8, addend: 0x0, symName: __ZN4pyo35impl_4wrap9converter17h12a6a551ce91db2fE, symObjAddr: 0x850, symBinAddr: 0x6EDA0, symSize: 0x10 }
  - { offset: 0x1542A5, size: 0x8, addend: 0x0, symName: __ZN4pyo35impl_4wrap9converter17h136cdee8472f9217E, symObjAddr: 0x860, symBinAddr: 0x6EDB0, symSize: 0x10 }
  - { offset: 0x1542D2, size: 0x8, addend: 0x0, symName: __ZN4pyo35impl_4wrap9converter17h18abff32f95f3bf5E, symObjAddr: 0x870, symBinAddr: 0x6EDC0, symSize: 0x10 }
  - { offset: 0x1542FF, size: 0x8, addend: 0x0, symName: __ZN4pyo35impl_4wrap9converter17h2354c668bc03d336E, symObjAddr: 0x880, symBinAddr: 0x6EDD0, symSize: 0x10 }
  - { offset: 0x15432C, size: 0x8, addend: 0x0, symName: __ZN4pyo35impl_4wrap9converter17h2592a98fb2262336E, symObjAddr: 0x890, symBinAddr: 0x6EDE0, symSize: 0x10 }
  - { offset: 0x154359, size: 0x8, addend: 0x0, symName: __ZN4pyo35impl_4wrap9converter17h361d4da78f5322a9E, symObjAddr: 0x8A0, symBinAddr: 0x6EDF0, symSize: 0x10 }
  - { offset: 0x154386, size: 0x8, addend: 0x0, symName: __ZN4pyo35impl_4wrap9converter17h36766e089f8f174dE, symObjAddr: 0x8B0, symBinAddr: 0x6EE00, symSize: 0x10 }
  - { offset: 0x1543B3, size: 0x8, addend: 0x0, symName: __ZN4pyo35impl_4wrap9converter17h373b73978be04ff3E, symObjAddr: 0x8C0, symBinAddr: 0x6EE10, symSize: 0x10 }
  - { offset: 0x1543E0, size: 0x8, addend: 0x0, symName: __ZN4pyo35impl_4wrap9converter17h44137e86cff848d2E, symObjAddr: 0x8D0, symBinAddr: 0x6EE20, symSize: 0x10 }
  - { offset: 0x15440D, size: 0x8, addend: 0x0, symName: __ZN4pyo35impl_4wrap9converter17h49e5778aeef46901E, symObjAddr: 0x8E0, symBinAddr: 0x6EE30, symSize: 0x10 }
  - { offset: 0x15443A, size: 0x8, addend: 0x0, symName: __ZN4pyo35impl_4wrap9converter17h559d8d34deeb716aE, symObjAddr: 0x8F0, symBinAddr: 0x6EE40, symSize: 0x10 }
  - { offset: 0x154467, size: 0x8, addend: 0x0, symName: __ZN4pyo35impl_4wrap9converter17h76d35041d4f4808dE, symObjAddr: 0x900, symBinAddr: 0x6EE50, symSize: 0x10 }
  - { offset: 0x154494, size: 0x8, addend: 0x0, symName: __ZN4pyo35impl_4wrap9converter17h7f3d198ae65818f6E, symObjAddr: 0x910, symBinAddr: 0x6EE60, symSize: 0x10 }
  - { offset: 0x1544C1, size: 0x8, addend: 0x0, symName: __ZN4pyo35impl_4wrap9converter17h8fb09f793248067dE, symObjAddr: 0x920, symBinAddr: 0x6EE70, symSize: 0x10 }
  - { offset: 0x1544EE, size: 0x8, addend: 0x0, symName: __ZN4pyo35impl_4wrap9converter17ha4f24fe18aec7b2eE, symObjAddr: 0x930, symBinAddr: 0x6EE80, symSize: 0x10 }
  - { offset: 0x15451B, size: 0x8, addend: 0x0, symName: __ZN4pyo35impl_4wrap9converter17ha81894a1fb00839dE, symObjAddr: 0x940, symBinAddr: 0x6EE90, symSize: 0x10 }
  - { offset: 0x154548, size: 0x8, addend: 0x0, symName: __ZN4pyo35impl_4wrap9converter17hb830dc8acbcf7edfE, symObjAddr: 0x950, symBinAddr: 0x6EEA0, symSize: 0x10 }
  - { offset: 0x154575, size: 0x8, addend: 0x0, symName: __ZN4pyo35impl_4wrap9converter17hc83835706337e59cE, symObjAddr: 0x960, symBinAddr: 0x6EEB0, symSize: 0x10 }
  - { offset: 0x1545A2, size: 0x8, addend: 0x0, symName: __ZN4pyo35impl_4wrap9converter17hd84968d35a607a88E, symObjAddr: 0x970, symBinAddr: 0x6EEC0, symSize: 0x10 }
  - { offset: 0x1545CF, size: 0x8, addend: 0x0, symName: __ZN4pyo35impl_4wrap9converter17hdd01202e46049ce0E, symObjAddr: 0x980, symBinAddr: 0x6EED0, symSize: 0x10 }
  - { offset: 0x1545FC, size: 0x8, addend: 0x0, symName: __ZN4pyo35impl_4wrap9converter17hde4fd72a8fff280eE, symObjAddr: 0x990, symBinAddr: 0x6EEE0, symSize: 0x10 }
  - { offset: 0x154629, size: 0x8, addend: 0x0, symName: __ZN4pyo35impl_4wrap9converter17he915420a78a9e350E, symObjAddr: 0x9A0, symBinAddr: 0x6EEF0, symSize: 0x10 }
  - { offset: 0x154656, size: 0x8, addend: 0x0, symName: __ZN4pyo35impl_4wrap9converter17heaa56ba0861b77d2E, symObjAddr: 0x9B0, symBinAddr: 0x6EF00, symSize: 0x10 }
  - { offset: 0x154683, size: 0x8, addend: 0x0, symName: __ZN4pyo35impl_4wrap9converter17hf4afe65282e1db6bE, symObjAddr: 0x9C0, symBinAddr: 0x6EF10, symSize: 0x10 }
  - { offset: 0x1546B5, size: 0x8, addend: 0x0, symName: '__ZN81_$LT$pyo3..impl_..wrap..Converter$LT$T$GT$$u20$as$u20$core..ops..deref..Deref$GT$5deref17h023f67709115da9fE', symObjAddr: 0x9D0, symBinAddr: 0x6EF20, symSize: 0x14 }
  - { offset: 0x1546EA, size: 0x8, addend: 0x0, symName: '__ZN81_$LT$pyo3..impl_..wrap..Converter$LT$T$GT$$u20$as$u20$core..ops..deref..Deref$GT$5deref17h06cb91acd8082f88E', symObjAddr: 0x9E4, symBinAddr: 0x6EF34, symSize: 0x14 }
  - { offset: 0x15471F, size: 0x8, addend: 0x0, symName: '__ZN81_$LT$pyo3..impl_..wrap..Converter$LT$T$GT$$u20$as$u20$core..ops..deref..Deref$GT$5deref17h0a7a7e7fc5555f52E', symObjAddr: 0x9F8, symBinAddr: 0x6EF48, symSize: 0x14 }
  - { offset: 0x154754, size: 0x8, addend: 0x0, symName: '__ZN81_$LT$pyo3..impl_..wrap..Converter$LT$T$GT$$u20$as$u20$core..ops..deref..Deref$GT$5deref17h0a8ce28412a8d704E', symObjAddr: 0xA0C, symBinAddr: 0x6EF5C, symSize: 0x14 }
  - { offset: 0x154789, size: 0x8, addend: 0x0, symName: '__ZN81_$LT$pyo3..impl_..wrap..Converter$LT$T$GT$$u20$as$u20$core..ops..deref..Deref$GT$5deref17h172f7fed092df8a6E', symObjAddr: 0xA20, symBinAddr: 0x6EF70, symSize: 0x14 }
  - { offset: 0x1547BE, size: 0x8, addend: 0x0, symName: '__ZN81_$LT$pyo3..impl_..wrap..Converter$LT$T$GT$$u20$as$u20$core..ops..deref..Deref$GT$5deref17h26fe181f58d48e55E', symObjAddr: 0xA34, symBinAddr: 0x6EF84, symSize: 0x14 }
  - { offset: 0x1547F3, size: 0x8, addend: 0x0, symName: '__ZN81_$LT$pyo3..impl_..wrap..Converter$LT$T$GT$$u20$as$u20$core..ops..deref..Deref$GT$5deref17h33f77cf331b6ddceE', symObjAddr: 0xA48, symBinAddr: 0x6EF98, symSize: 0x14 }
  - { offset: 0x154828, size: 0x8, addend: 0x0, symName: '__ZN81_$LT$pyo3..impl_..wrap..Converter$LT$T$GT$$u20$as$u20$core..ops..deref..Deref$GT$5deref17h3e4dfd9a7b65cc36E', symObjAddr: 0xA5C, symBinAddr: 0x6EFAC, symSize: 0x14 }
  - { offset: 0x15485D, size: 0x8, addend: 0x0, symName: '__ZN81_$LT$pyo3..impl_..wrap..Converter$LT$T$GT$$u20$as$u20$core..ops..deref..Deref$GT$5deref17h432c8cf6fcdcc9edE', symObjAddr: 0xA70, symBinAddr: 0x6EFC0, symSize: 0x14 }
  - { offset: 0x154892, size: 0x8, addend: 0x0, symName: '__ZN81_$LT$pyo3..impl_..wrap..Converter$LT$T$GT$$u20$as$u20$core..ops..deref..Deref$GT$5deref17h4607f174d4ba294fE', symObjAddr: 0xA84, symBinAddr: 0x6EFD4, symSize: 0x14 }
  - { offset: 0x1548C7, size: 0x8, addend: 0x0, symName: '__ZN81_$LT$pyo3..impl_..wrap..Converter$LT$T$GT$$u20$as$u20$core..ops..deref..Deref$GT$5deref17h5f2a0a39f3860fcdE', symObjAddr: 0xA98, symBinAddr: 0x6EFE8, symSize: 0x14 }
  - { offset: 0x1548FC, size: 0x8, addend: 0x0, symName: '__ZN81_$LT$pyo3..impl_..wrap..Converter$LT$T$GT$$u20$as$u20$core..ops..deref..Deref$GT$5deref17h6384d52823a341aeE', symObjAddr: 0xAAC, symBinAddr: 0x6EFFC, symSize: 0x14 }
  - { offset: 0x154931, size: 0x8, addend: 0x0, symName: '__ZN81_$LT$pyo3..impl_..wrap..Converter$LT$T$GT$$u20$as$u20$core..ops..deref..Deref$GT$5deref17h89ac036ee18f605cE', symObjAddr: 0xAC0, symBinAddr: 0x6F010, symSize: 0x14 }
  - { offset: 0x154966, size: 0x8, addend: 0x0, symName: '__ZN81_$LT$pyo3..impl_..wrap..Converter$LT$T$GT$$u20$as$u20$core..ops..deref..Deref$GT$5deref17h94553076eef6cb12E', symObjAddr: 0xAD4, symBinAddr: 0x6F024, symSize: 0x14 }
  - { offset: 0x15499B, size: 0x8, addend: 0x0, symName: '__ZN81_$LT$pyo3..impl_..wrap..Converter$LT$T$GT$$u20$as$u20$core..ops..deref..Deref$GT$5deref17ha9bdac2ca6cee046E', symObjAddr: 0xAE8, symBinAddr: 0x6F038, symSize: 0x14 }
  - { offset: 0x1549D0, size: 0x8, addend: 0x0, symName: '__ZN81_$LT$pyo3..impl_..wrap..Converter$LT$T$GT$$u20$as$u20$core..ops..deref..Deref$GT$5deref17hace36fe695e6a10cE', symObjAddr: 0xAFC, symBinAddr: 0x6F04C, symSize: 0x14 }
  - { offset: 0x154A05, size: 0x8, addend: 0x0, symName: '__ZN81_$LT$pyo3..impl_..wrap..Converter$LT$T$GT$$u20$as$u20$core..ops..deref..Deref$GT$5deref17hb226f788dbd8dee7E', symObjAddr: 0xB10, symBinAddr: 0x6F060, symSize: 0x14 }
  - { offset: 0x154A3A, size: 0x8, addend: 0x0, symName: '__ZN81_$LT$pyo3..impl_..wrap..Converter$LT$T$GT$$u20$as$u20$core..ops..deref..Deref$GT$5deref17hb4dcc75bc90fa5b2E', symObjAddr: 0xB24, symBinAddr: 0x6F074, symSize: 0x14 }
  - { offset: 0x154A6F, size: 0x8, addend: 0x0, symName: '__ZN81_$LT$pyo3..impl_..wrap..Converter$LT$T$GT$$u20$as$u20$core..ops..deref..Deref$GT$5deref17hb9ae291b7afe293fE', symObjAddr: 0xB38, symBinAddr: 0x6F088, symSize: 0x14 }
  - { offset: 0x154AA4, size: 0x8, addend: 0x0, symName: '__ZN81_$LT$pyo3..impl_..wrap..Converter$LT$T$GT$$u20$as$u20$core..ops..deref..Deref$GT$5deref17hcf902a534b1aacfbE', symObjAddr: 0xB4C, symBinAddr: 0x6F09C, symSize: 0x14 }
  - { offset: 0x154AD9, size: 0x8, addend: 0x0, symName: '__ZN81_$LT$pyo3..impl_..wrap..Converter$LT$T$GT$$u20$as$u20$core..ops..deref..Deref$GT$5deref17hd423df5303672110E', symObjAddr: 0xB60, symBinAddr: 0x6F0B0, symSize: 0x14 }
  - { offset: 0x154B0E, size: 0x8, addend: 0x0, symName: '__ZN81_$LT$pyo3..impl_..wrap..Converter$LT$T$GT$$u20$as$u20$core..ops..deref..Deref$GT$5deref17he3b23e487f2b6d89E', symObjAddr: 0xB74, symBinAddr: 0x6F0C4, symSize: 0x14 }
  - { offset: 0x154B43, size: 0x8, addend: 0x0, symName: '__ZN81_$LT$pyo3..impl_..wrap..Converter$LT$T$GT$$u20$as$u20$core..ops..deref..Deref$GT$5deref17he9129a87021e4abfE', symObjAddr: 0xB88, symBinAddr: 0x6F0D8, symSize: 0x14 }
  - { offset: 0x154B78, size: 0x8, addend: 0x0, symName: '__ZN81_$LT$pyo3..impl_..wrap..Converter$LT$T$GT$$u20$as$u20$core..ops..deref..Deref$GT$5deref17he9c54811db73e1c7E', symObjAddr: 0xB9C, symBinAddr: 0x6F0EC, symSize: 0x14 }
  - { offset: 0x154BAD, size: 0x8, addend: 0x0, symName: '__ZN81_$LT$pyo3..impl_..wrap..Converter$LT$T$GT$$u20$as$u20$core..ops..deref..Deref$GT$5deref17hee882af642af4d35E', symObjAddr: 0xBB0, symBinAddr: 0x6F100, symSize: 0x14 }
  - { offset: 0x154BE2, size: 0x8, addend: 0x0, symName: '__ZN81_$LT$pyo3..impl_..wrap..Converter$LT$T$GT$$u20$as$u20$core..ops..deref..Deref$GT$5deref17hfd71753708841025E', symObjAddr: 0xBC4, symBinAddr: 0x6F114, symSize: 0x14 }
  - { offset: 0x154C1D, size: 0x8, addend: 0x0, symName: '__ZN91_$LT$pyo3..impl_..wrap..EmptyTupleConverter$LT$T$GT$$u20$as$u20$core..ops..deref..Deref$GT$5deref17h0160d0679464919eE', symObjAddr: 0xBD8, symBinAddr: 0x6F128, symSize: 0x14 }
  - { offset: 0x154C52, size: 0x8, addend: 0x0, symName: '__ZN91_$LT$pyo3..impl_..wrap..EmptyTupleConverter$LT$T$GT$$u20$as$u20$core..ops..deref..Deref$GT$5deref17h01ef35b8c68ad136E', symObjAddr: 0xBEC, symBinAddr: 0x6F13C, symSize: 0x14 }
  - { offset: 0x154C87, size: 0x8, addend: 0x0, symName: '__ZN91_$LT$pyo3..impl_..wrap..EmptyTupleConverter$LT$T$GT$$u20$as$u20$core..ops..deref..Deref$GT$5deref17h0fe72fe46509e4f4E', symObjAddr: 0xC00, symBinAddr: 0x6F150, symSize: 0x14 }
  - { offset: 0x154CBC, size: 0x8, addend: 0x0, symName: '__ZN91_$LT$pyo3..impl_..wrap..EmptyTupleConverter$LT$T$GT$$u20$as$u20$core..ops..deref..Deref$GT$5deref17h16395efaceefec68E', symObjAddr: 0xC14, symBinAddr: 0x6F164, symSize: 0x14 }
  - { offset: 0x154CF1, size: 0x8, addend: 0x0, symName: '__ZN91_$LT$pyo3..impl_..wrap..EmptyTupleConverter$LT$T$GT$$u20$as$u20$core..ops..deref..Deref$GT$5deref17h17fdaf34026cf916E', symObjAddr: 0xC28, symBinAddr: 0x6F178, symSize: 0x14 }
  - { offset: 0x154D26, size: 0x8, addend: 0x0, symName: '__ZN91_$LT$pyo3..impl_..wrap..EmptyTupleConverter$LT$T$GT$$u20$as$u20$core..ops..deref..Deref$GT$5deref17h324e205fc92308c9E', symObjAddr: 0xC3C, symBinAddr: 0x6F18C, symSize: 0x14 }
  - { offset: 0x154D5B, size: 0x8, addend: 0x0, symName: '__ZN91_$LT$pyo3..impl_..wrap..EmptyTupleConverter$LT$T$GT$$u20$as$u20$core..ops..deref..Deref$GT$5deref17h4252b6bcfb9a7ab5E', symObjAddr: 0xC50, symBinAddr: 0x6F1A0, symSize: 0x14 }
  - { offset: 0x154D90, size: 0x8, addend: 0x0, symName: '__ZN91_$LT$pyo3..impl_..wrap..EmptyTupleConverter$LT$T$GT$$u20$as$u20$core..ops..deref..Deref$GT$5deref17h44594ac14c5070bcE', symObjAddr: 0xC64, symBinAddr: 0x6F1B4, symSize: 0x14 }
  - { offset: 0x154DC5, size: 0x8, addend: 0x0, symName: '__ZN91_$LT$pyo3..impl_..wrap..EmptyTupleConverter$LT$T$GT$$u20$as$u20$core..ops..deref..Deref$GT$5deref17h461c5271210a07e1E', symObjAddr: 0xC78, symBinAddr: 0x6F1C8, symSize: 0x14 }
  - { offset: 0x154DFA, size: 0x8, addend: 0x0, symName: '__ZN91_$LT$pyo3..impl_..wrap..EmptyTupleConverter$LT$T$GT$$u20$as$u20$core..ops..deref..Deref$GT$5deref17h48105484ab718924E', symObjAddr: 0xC8C, symBinAddr: 0x6F1DC, symSize: 0x14 }
  - { offset: 0x154E2F, size: 0x8, addend: 0x0, symName: '__ZN91_$LT$pyo3..impl_..wrap..EmptyTupleConverter$LT$T$GT$$u20$as$u20$core..ops..deref..Deref$GT$5deref17h4d7ddf335ab50693E', symObjAddr: 0xCA0, symBinAddr: 0x6F1F0, symSize: 0x14 }
  - { offset: 0x154E64, size: 0x8, addend: 0x0, symName: '__ZN91_$LT$pyo3..impl_..wrap..EmptyTupleConverter$LT$T$GT$$u20$as$u20$core..ops..deref..Deref$GT$5deref17h55a47f850b3d92e0E', symObjAddr: 0xCB4, symBinAddr: 0x6F204, symSize: 0x14 }
  - { offset: 0x154E99, size: 0x8, addend: 0x0, symName: '__ZN91_$LT$pyo3..impl_..wrap..EmptyTupleConverter$LT$T$GT$$u20$as$u20$core..ops..deref..Deref$GT$5deref17h7124c4e90ed0c7c6E', symObjAddr: 0xCC8, symBinAddr: 0x6F218, symSize: 0x14 }
  - { offset: 0x154ECE, size: 0x8, addend: 0x0, symName: '__ZN91_$LT$pyo3..impl_..wrap..EmptyTupleConverter$LT$T$GT$$u20$as$u20$core..ops..deref..Deref$GT$5deref17ha05ff26abc51f388E', symObjAddr: 0xCDC, symBinAddr: 0x6F22C, symSize: 0x14 }
  - { offset: 0x154F03, size: 0x8, addend: 0x0, symName: '__ZN91_$LT$pyo3..impl_..wrap..EmptyTupleConverter$LT$T$GT$$u20$as$u20$core..ops..deref..Deref$GT$5deref17hb54d460fbd09acb1E', symObjAddr: 0xCF0, symBinAddr: 0x6F240, symSize: 0x14 }
  - { offset: 0x154F38, size: 0x8, addend: 0x0, symName: '__ZN91_$LT$pyo3..impl_..wrap..EmptyTupleConverter$LT$T$GT$$u20$as$u20$core..ops..deref..Deref$GT$5deref17hb8eb2c3ab48cbd0dE', symObjAddr: 0xD04, symBinAddr: 0x6F254, symSize: 0x14 }
  - { offset: 0x154F6D, size: 0x8, addend: 0x0, symName: '__ZN91_$LT$pyo3..impl_..wrap..EmptyTupleConverter$LT$T$GT$$u20$as$u20$core..ops..deref..Deref$GT$5deref17hbaf12e223d223857E', symObjAddr: 0xD18, symBinAddr: 0x6F268, symSize: 0x14 }
  - { offset: 0x154FA2, size: 0x8, addend: 0x0, symName: '__ZN91_$LT$pyo3..impl_..wrap..EmptyTupleConverter$LT$T$GT$$u20$as$u20$core..ops..deref..Deref$GT$5deref17hc4de51bf8e485d70E', symObjAddr: 0xD2C, symBinAddr: 0x6F27C, symSize: 0x14 }
  - { offset: 0x154FD7, size: 0x8, addend: 0x0, symName: '__ZN91_$LT$pyo3..impl_..wrap..EmptyTupleConverter$LT$T$GT$$u20$as$u20$core..ops..deref..Deref$GT$5deref17hc74e4aa6a91a72e8E', symObjAddr: 0xD40, symBinAddr: 0x6F290, symSize: 0x14 }
  - { offset: 0x15500C, size: 0x8, addend: 0x0, symName: '__ZN91_$LT$pyo3..impl_..wrap..EmptyTupleConverter$LT$T$GT$$u20$as$u20$core..ops..deref..Deref$GT$5deref17hccaf352a2420fbd3E', symObjAddr: 0xD54, symBinAddr: 0x6F2A4, symSize: 0x14 }
  - { offset: 0x155041, size: 0x8, addend: 0x0, symName: '__ZN91_$LT$pyo3..impl_..wrap..EmptyTupleConverter$LT$T$GT$$u20$as$u20$core..ops..deref..Deref$GT$5deref17hd0557eb457a03e10E', symObjAddr: 0xD68, symBinAddr: 0x6F2B8, symSize: 0x14 }
  - { offset: 0x155076, size: 0x8, addend: 0x0, symName: '__ZN91_$LT$pyo3..impl_..wrap..EmptyTupleConverter$LT$T$GT$$u20$as$u20$core..ops..deref..Deref$GT$5deref17hda21e3b88c46fb47E', symObjAddr: 0xD7C, symBinAddr: 0x6F2CC, symSize: 0x14 }
  - { offset: 0x1550AB, size: 0x8, addend: 0x0, symName: '__ZN91_$LT$pyo3..impl_..wrap..EmptyTupleConverter$LT$T$GT$$u20$as$u20$core..ops..deref..Deref$GT$5deref17he3597fca301536a4E', symObjAddr: 0xD90, symBinAddr: 0x6F2E0, symSize: 0x14 }
  - { offset: 0x1550E0, size: 0x8, addend: 0x0, symName: '__ZN91_$LT$pyo3..impl_..wrap..EmptyTupleConverter$LT$T$GT$$u20$as$u20$core..ops..deref..Deref$GT$5deref17hed68a3ff0a73e644E', symObjAddr: 0xDA4, symBinAddr: 0x6F2F4, symSize: 0x14 }
  - { offset: 0x155115, size: 0x8, addend: 0x0, symName: '__ZN91_$LT$pyo3..impl_..wrap..EmptyTupleConverter$LT$T$GT$$u20$as$u20$core..ops..deref..Deref$GT$5deref17hedae7a757810444fE', symObjAddr: 0xDB8, symBinAddr: 0x6F308, symSize: 0x14 }
  - { offset: 0x15514A, size: 0x8, addend: 0x0, symName: '__ZN91_$LT$pyo3..impl_..wrap..EmptyTupleConverter$LT$T$GT$$u20$as$u20$core..ops..deref..Deref$GT$5deref17hfeb431526ad35ad7E', symObjAddr: 0xDCC, symBinAddr: 0x6F31C, symSize: 0x14 }
  - { offset: 0x156468, size: 0x8, addend: 0x0, symName: '__ZN4pyo35impl_4wrap30IntoPyObjectConverter$LT$T$GT$4wrap17h036782c63a7b7ef1E', symObjAddr: 0x0, symBinAddr: 0x6E550, symSize: 0x24 }
  - { offset: 0x1564B5, size: 0x8, addend: 0x0, symName: '__ZN4pyo35impl_4wrap30IntoPyObjectConverter$LT$T$GT$4wrap17h1429ac17f4bef5e1E', symObjAddr: 0x24, symBinAddr: 0x6E574, symSize: 0x20 }
  - { offset: 0x156519, size: 0x8, addend: 0x0, symName: '__ZN4pyo35impl_4wrap30IntoPyObjectConverter$LT$T$GT$4wrap17h32371971de23fcd2E', symObjAddr: 0x44, symBinAddr: 0x6E594, symSize: 0x24 }
  - { offset: 0x156586, size: 0x8, addend: 0x0, symName: '__ZN4pyo35impl_4wrap30IntoPyObjectConverter$LT$T$GT$4wrap17h7115ea1b7338fff5E', symObjAddr: 0x68, symBinAddr: 0x6E5B8, symSize: 0x2C }
  - { offset: 0x1565D9, size: 0x8, addend: 0x0, symName: '__ZN4pyo35impl_4wrap30IntoPyObjectConverter$LT$T$GT$4wrap17h8cc154f20aaf5eceE', symObjAddr: 0x94, symBinAddr: 0x6E5E4, symSize: 0x24 }
  - { offset: 0x15661F, size: 0x8, addend: 0x0, symName: '__ZN4pyo35impl_4wrap30IntoPyObjectConverter$LT$T$GT$4wrap17h9f09762a4749c06aE', symObjAddr: 0xB8, symBinAddr: 0x6E608, symSize: 0x20 }
  - { offset: 0x156AED, size: 0x8, addend: 0x0, symName: '__ZN4pyo35impl_4wrap30IntoPyObjectConverter$LT$T$GT$4wrap17ha116cec18508005bE', symObjAddr: 0xD8, symBinAddr: 0x6E628, symSize: 0x20 }
  - { offset: 0x156B33, size: 0x8, addend: 0x0, symName: '__ZN4pyo35impl_4wrap30IntoPyObjectConverter$LT$T$GT$4wrap17ha9c1e8522c890e28E', symObjAddr: 0xF8, symBinAddr: 0x6E648, symSize: 0x1C }
  - { offset: 0x156B79, size: 0x8, addend: 0x0, symName: '__ZN4pyo35impl_4wrap30IntoPyObjectConverter$LT$T$GT$4wrap17hbf72648f6f162a1fE', symObjAddr: 0x114, symBinAddr: 0x6E664, symSize: 0x24 }
  - { offset: 0x156BC6, size: 0x8, addend: 0x0, symName: '__ZN4pyo35impl_4wrap30IntoPyObjectConverter$LT$T$GT$4wrap17hd25c9b49f098ad53E', symObjAddr: 0x138, symBinAddr: 0x6E688, symSize: 0x10 }
  - { offset: 0x156C0C, size: 0x8, addend: 0x0, symName: '__ZN4pyo35impl_4wrap30IntoPyObjectConverter$LT$T$GT$4wrap17he0e2cfa5e87c6668E', symObjAddr: 0x148, symBinAddr: 0x6E698, symSize: 0x24 }
  - { offset: 0x156CAC, size: 0x8, addend: 0x0, symName: '__ZN4pyo35impl_4wrap30IntoPyObjectConverter$LT$T$GT$4wrap17he40c75eab5d70978E', symObjAddr: 0x16C, symBinAddr: 0x6E6BC, symSize: 0x20 }
  - { offset: 0x156DA1, size: 0x8, addend: 0x0, symName: '__ZN4pyo35impl_4wrap62IntoPyObjectConverter$LT$core..result..Result$LT$T$C$E$GT$$GT$12map_into_ptr17h0082c1b636077799E', symObjAddr: 0x18C, symBinAddr: 0x6E6DC, symSize: 0x44 }
  - { offset: 0x156E0A, size: 0x8, addend: 0x0, symName: '__ZN4pyo35impl_4wrap62IntoPyObjectConverter$LT$core..result..Result$LT$T$C$E$GT$$GT$12map_into_ptr17h1f452fc2911b65dfE', symObjAddr: 0x1D0, symBinAddr: 0x6E720, symSize: 0x44 }
  - { offset: 0x156E73, size: 0x8, addend: 0x0, symName: '__ZN4pyo35impl_4wrap62IntoPyObjectConverter$LT$core..result..Result$LT$T$C$E$GT$$GT$12map_into_ptr17h2156b1f856aecc8eE', symObjAddr: 0x214, symBinAddr: 0x6E764, symSize: 0x44 }
  - { offset: 0x156EDC, size: 0x8, addend: 0x0, symName: '__ZN4pyo35impl_4wrap62IntoPyObjectConverter$LT$core..result..Result$LT$T$C$E$GT$$GT$12map_into_ptr17h343af0cf6d3bbd98E', symObjAddr: 0x258, symBinAddr: 0x6E7A8, symSize: 0x44 }
  - { offset: 0x156F45, size: 0x8, addend: 0x0, symName: '__ZN4pyo35impl_4wrap62IntoPyObjectConverter$LT$core..result..Result$LT$T$C$E$GT$$GT$12map_into_ptr17h3a33292752c4c9a1E', symObjAddr: 0x29C, symBinAddr: 0x6E7EC, symSize: 0x44 }
  - { offset: 0x156FAE, size: 0x8, addend: 0x0, symName: '__ZN4pyo35impl_4wrap62IntoPyObjectConverter$LT$core..result..Result$LT$T$C$E$GT$$GT$12map_into_ptr17h40e3f219ee48400eE', symObjAddr: 0x2E0, symBinAddr: 0x6E830, symSize: 0x44 }
  - { offset: 0x157017, size: 0x8, addend: 0x0, symName: '__ZN4pyo35impl_4wrap62IntoPyObjectConverter$LT$core..result..Result$LT$T$C$E$GT$$GT$12map_into_ptr17h44e15731c7cbdc5dE', symObjAddr: 0x324, symBinAddr: 0x6E874, symSize: 0x44 }
  - { offset: 0x157080, size: 0x8, addend: 0x0, symName: '__ZN4pyo35impl_4wrap62IntoPyObjectConverter$LT$core..result..Result$LT$T$C$E$GT$$GT$12map_into_ptr17h62472de74941a350E', symObjAddr: 0x368, symBinAddr: 0x6E8B8, symSize: 0x44 }
  - { offset: 0x1570E9, size: 0x8, addend: 0x0, symName: '__ZN4pyo35impl_4wrap62IntoPyObjectConverter$LT$core..result..Result$LT$T$C$E$GT$$GT$12map_into_ptr17h6f6b237a57be6814E', symObjAddr: 0x3AC, symBinAddr: 0x6E8FC, symSize: 0x44 }
  - { offset: 0x157152, size: 0x8, addend: 0x0, symName: '__ZN4pyo35impl_4wrap62IntoPyObjectConverter$LT$core..result..Result$LT$T$C$E$GT$$GT$12map_into_ptr17ha24113c3fcbeb547E', symObjAddr: 0x3F0, symBinAddr: 0x6E940, symSize: 0x44 }
  - { offset: 0x1571BB, size: 0x8, addend: 0x0, symName: '__ZN4pyo35impl_4wrap62IntoPyObjectConverter$LT$core..result..Result$LT$T$C$E$GT$$GT$12map_into_ptr17hb956ae3247b68c56E', symObjAddr: 0x434, symBinAddr: 0x6E984, symSize: 0x44 }
  - { offset: 0x157224, size: 0x8, addend: 0x0, symName: '__ZN4pyo35impl_4wrap62IntoPyObjectConverter$LT$core..result..Result$LT$T$C$E$GT$$GT$12map_into_ptr17hcb20ba618e700ed9E', symObjAddr: 0x478, symBinAddr: 0x6E9C8, symSize: 0x44 }
  - { offset: 0x15728D, size: 0x8, addend: 0x0, symName: '__ZN4pyo35impl_4wrap62IntoPyObjectConverter$LT$core..result..Result$LT$T$C$E$GT$$GT$12map_into_ptr17hfc0a86202316746eE', symObjAddr: 0x4BC, symBinAddr: 0x6EA0C, symSize: 0x44 }
  - { offset: 0x1572E9, size: 0x8, addend: 0x0, symName: '__ZN4pyo35impl_4wrap62IntoPyObjectConverter$LT$core..result..Result$LT$T$C$E$GT$$GT$4wrap17h1aaafeb241c74712E', symObjAddr: 0x738, symBinAddr: 0x6EC88, symSize: 0x34 }
  - { offset: 0x15732C, size: 0x8, addend: 0x0, symName: '__ZN4pyo35impl_4wrap62IntoPyObjectConverter$LT$core..result..Result$LT$T$C$E$GT$$GT$4wrap17h3bb03476ac0fbaa4E', symObjAddr: 0x76C, symBinAddr: 0x6ECBC, symSize: 0x34 }
  - { offset: 0x15737C, size: 0x8, addend: 0x0, symName: '__ZN4pyo35impl_4wrap62IntoPyObjectConverter$LT$core..result..Result$LT$T$C$E$GT$$GT$4wrap17h5d26e50da5e77e43E', symObjAddr: 0x7A0, symBinAddr: 0x6ECF0, symSize: 0x34 }
  - { offset: 0x1573BF, size: 0x8, addend: 0x0, symName: '__ZN4pyo35impl_4wrap62IntoPyObjectConverter$LT$core..result..Result$LT$T$C$E$GT$$GT$4wrap17heea5b81b7ac455e9E', symObjAddr: 0x7D4, symBinAddr: 0x6ED24, symSize: 0x34 }
  - { offset: 0x157823, size: 0x8, addend: 0x0, symName: __ZN4core4char7methods15encode_utf8_raw17h8a9ac4960038fab8E, symObjAddr: 0x0, symBinAddr: 0x6F330, symSize: 0x110 }
  - { offset: 0x157891, size: 0x8, addend: 0x0, symName: __ZN4core4char7methods15encode_utf8_raw17h8a9ac4960038fab8E, symObjAddr: 0x0, symBinAddr: 0x6F330, symSize: 0x110 }
  - { offset: 0x157978, size: 0x8, addend: 0x0, symName: '__ZN4core4char7methods22_$LT$impl$u20$char$GT$13is_whitespace17he6f8d9d7f40aa9c9E', symObjAddr: 0x110, symBinAddr: 0x6F440, symSize: 0x90 }
  - { offset: 0x1579DB, size: 0x8, addend: 0x0, symName: __ZN4core4char7methods25encode_utf8_raw_unchecked17h359e98b5054437e1E, symObjAddr: 0x1A0, symBinAddr: 0x6F4D0, symSize: 0x14C }
  - { offset: 0x157C4F, size: 0x8, addend: 0x0, symName: '__ZN117_$LT$rayon..iter..plumbing..bridge..Callback$LT$C$GT$$u20$as$u20$rayon..iter..plumbing..ProducerCallback$LT$I$GT$$GT$8callback17h1e1dbc5a6eb7f783E', symObjAddr: 0x0, symBinAddr: 0x6F61C, symSize: 0x48 }
  - { offset: 0x1583C7, size: 0x8, addend: 0x0, symName: '__ZN117_$LT$rayon..iter..plumbing..bridge..Callback$LT$C$GT$$u20$as$u20$rayon..iter..plumbing..ProducerCallback$LT$I$GT$$GT$8callback17h1e1dbc5a6eb7f783E', symObjAddr: 0x0, symBinAddr: 0x6F61C, symSize: 0x48 }
  - { offset: 0x15841F, size: 0x8, addend: 0x0, symName: '__ZN117_$LT$rayon..iter..plumbing..bridge..Callback$LT$C$GT$$u20$as$u20$rayon..iter..plumbing..ProducerCallback$LT$I$GT$$GT$8callback17h654a8fb813f5aa50E', symObjAddr: 0x48, symBinAddr: 0x6F664, symSize: 0x48 }
  - { offset: 0x158477, size: 0x8, addend: 0x0, symName: '__ZN117_$LT$rayon..iter..plumbing..bridge..Callback$LT$C$GT$$u20$as$u20$rayon..iter..plumbing..ProducerCallback$LT$I$GT$$GT$8callback17h8087a18b66274156E', symObjAddr: 0x90, symBinAddr: 0x6F6AC, symSize: 0x44 }
  - { offset: 0x1584D0, size: 0x8, addend: 0x0, symName: '__ZN117_$LT$rayon..iter..plumbing..bridge..Callback$LT$C$GT$$u20$as$u20$rayon..iter..plumbing..ProducerCallback$LT$I$GT$$GT$8callback17h923acb2f093481b6E', symObjAddr: 0xD4, symBinAddr: 0x6F6F0, symSize: 0x44 }
  - { offset: 0x1585D3, size: 0x8, addend: 0x0, symName: __ZN5rayon4iter8plumbing24bridge_producer_consumer17h4bf5058c9b4fd47dE, symObjAddr: 0x118, symBinAddr: 0x6F734, symSize: 0x10C }
  - { offset: 0x158651, size: 0x8, addend: 0x0, symName: __ZN5rayon4iter8plumbing24bridge_producer_consumer17h7f76a11dd12fac40E, symObjAddr: 0x224, symBinAddr: 0x6F840, symSize: 0x10C }
  - { offset: 0x1586CF, size: 0x8, addend: 0x0, symName: __ZN5rayon4iter8plumbing24bridge_producer_consumer17ha4b6df222a7a0a47E, symObjAddr: 0x330, symBinAddr: 0x6F94C, symSize: 0xFC }
  - { offset: 0x15874B, size: 0x8, addend: 0x0, symName: __ZN5rayon4iter8plumbing24bridge_producer_consumer17ha84bada2a0b3f32fE, symObjAddr: 0x42C, symBinAddr: 0x6FA48, symSize: 0xFC }
  - { offset: 0x1587CC, size: 0x8, addend: 0x0, symName: __ZN5rayon4iter8plumbing24bridge_producer_consumer6helper17h9a592ae1a9d8274cE, symObjAddr: 0x528, symBinAddr: 0x6FB44, symSize: 0x494 }
  - { offset: 0x1588F3, size: 0x8, addend: 0x0, symName: __ZN5rayon4iter8plumbing24bridge_producer_consumer6helper17haf6f3e0fc4736d13E, symObjAddr: 0x9BC, symBinAddr: 0x6FFD8, symSize: 0x424 }
  - { offset: 0x158A18, size: 0x8, addend: 0x0, symName: __ZN5rayon4iter8plumbing24bridge_producer_consumer6helper17hd7a2fa4186a21f7eE, symObjAddr: 0xDE0, symBinAddr: 0x703FC, symSize: 0x424 }
  - { offset: 0x158B3D, size: 0x8, addend: 0x0, symName: __ZN5rayon4iter8plumbing24bridge_producer_consumer6helper17hfce870167e5eea43E, symObjAddr: 0x1204, symBinAddr: 0x70820, symSize: 0x494 }
  - { offset: 0x158C69, size: 0x8, addend: 0x0, symName: '__ZN5rayon4iter8plumbing24bridge_producer_consumer6helper28_$u7b$$u7b$closure$u7d$$u7d$17h171254d9bee5a0d9E', symObjAddr: 0x1698, symBinAddr: 0x70CB4, symSize: 0xD8 }
  - { offset: 0x158CED, size: 0x8, addend: 0x0, symName: '__ZN5rayon4iter8plumbing24bridge_producer_consumer6helper28_$u7b$$u7b$closure$u7d$$u7d$17h2c532d0127f1baceE', symObjAddr: 0x1770, symBinAddr: 0x70D8C, symSize: 0xC8 }
  - { offset: 0x158D71, size: 0x8, addend: 0x0, symName: '__ZN5rayon4iter8plumbing24bridge_producer_consumer6helper28_$u7b$$u7b$closure$u7d$$u7d$17h472f073acf73097eE', symObjAddr: 0x1838, symBinAddr: 0x70E54, symSize: 0xC8 }
  - { offset: 0x158DF5, size: 0x8, addend: 0x0, symName: '__ZN5rayon4iter8plumbing24bridge_producer_consumer6helper28_$u7b$$u7b$closure$u7d$$u7d$17h5bc011165d4031dcE', symObjAddr: 0x1900, symBinAddr: 0x70F1C, symSize: 0xD8 }
  - { offset: 0x158E79, size: 0x8, addend: 0x0, symName: '__ZN5rayon4iter8plumbing24bridge_producer_consumer6helper28_$u7b$$u7b$closure$u7d$$u7d$17h85cea02a43d81996E', symObjAddr: 0x19D8, symBinAddr: 0x70FF4, symSize: 0xF0 }
  - { offset: 0x158F0E, size: 0x8, addend: 0x0, symName: '__ZN5rayon4iter8plumbing24bridge_producer_consumer6helper28_$u7b$$u7b$closure$u7d$$u7d$17hc4ca0e775522e5b9E', symObjAddr: 0x1AC8, symBinAddr: 0x710E4, symSize: 0x100 }
  - { offset: 0x158FA3, size: 0x8, addend: 0x0, symName: '__ZN5rayon4iter8plumbing24bridge_producer_consumer6helper28_$u7b$$u7b$closure$u7d$$u7d$17hf9b7b1fc3824157bE', symObjAddr: 0x1BC8, symBinAddr: 0x711E4, symSize: 0xF0 }
  - { offset: 0x159038, size: 0x8, addend: 0x0, symName: '__ZN5rayon4iter8plumbing24bridge_producer_consumer6helper28_$u7b$$u7b$closure$u7d$$u7d$17hfcc34a45d0317689E', symObjAddr: 0x1CB8, symBinAddr: 0x712D4, symSize: 0x100 }
  - { offset: 0x1590CF, size: 0x8, addend: 0x0, symName: __ZN5rayon4iter8plumbing6bridge17h64d36c25dd04f216E, symObjAddr: 0x1DB8, symBinAddr: 0x713D4, symSize: 0xD8 }
  - { offset: 0x15913D, size: 0x8, addend: 0x0, symName: __ZN5rayon4iter8plumbing6bridge17hb202ad17c1e5579aE, symObjAddr: 0x1E90, symBinAddr: 0x714AC, symSize: 0xB4 }
  - { offset: 0x1591AA, size: 0x8, addend: 0x0, symName: __ZN5rayon4iter8plumbing6bridge17hf08ede9654159003E, symObjAddr: 0x1F44, symBinAddr: 0x71560, symSize: 0xD8 }
  - { offset: 0x159218, size: 0x8, addend: 0x0, symName: __ZN5rayon4iter8plumbing6bridge17hfbdae2fcb332b88aE, symObjAddr: 0x201C, symBinAddr: 0x71638, symSize: 0xB4 }
  - { offset: 0x15A72C, size: 0x8, addend: 0x0, symName: '__ZN106_$LT$core..iter..adapters..chain..Chain$LT$A$C$B$GT$$u20$as$u20$core..iter..traits..iterator..Iterator$GT$4next17h76cfc2bb089d4ff8E', symObjAddr: 0x0, symBinAddr: 0x716EC, symSize: 0x44 }
  - { offset: 0x15A752, size: 0x8, addend: 0x0, symName: '__ZN106_$LT$core..iter..adapters..chain..Chain$LT$A$C$B$GT$$u20$as$u20$core..iter..traits..iterator..Iterator$GT$4next17h76cfc2bb089d4ff8E', symObjAddr: 0x0, symBinAddr: 0x716EC, symSize: 0x44 }
  - { offset: 0x15A795, size: 0x8, addend: 0x0, symName: '__ZN106_$LT$core..iter..adapters..chain..Chain$LT$A$C$B$GT$$u20$as$u20$core..iter..traits..iterator..Iterator$GT$4next28_$u7b$$u7b$closure$u7d$$u7d$17h6c5ab8368baa7fa1E', symObjAddr: 0x44, symBinAddr: 0x71730, symSize: 0x88 }
  - { offset: 0x15A89A, size: 0x8, addend: 0x0, symName: __ZN4core4iter8adapters5chain17and_then_or_clear17h189bc17dcc2cf7c8E, symObjAddr: 0x11C, symBinAddr: 0x71808, symSize: 0xE0 }
  - { offset: 0x15AA96, size: 0x8, addend: 0x0, symName: __ZN4core4iter6traits8iterator8Iterator4take17hf473199f7e3ffdc0E, symObjAddr: 0xCC, symBinAddr: 0x717B8, symSize: 0x50 }
  - { offset: 0x15B25D, size: 0x8, addend: 0x0, symName: __ZN3std2io5error5Error4kind17h209030e2dd76f39bE, symObjAddr: 0x0, symBinAddr: 0x718E8, symSize: 0xC0 }
  - { offset: 0x15B5BB, size: 0x8, addend: 0x0, symName: '__ZN66_$LT$std..io..error..ErrorKind$u20$as$u20$core..cmp..PartialEq$GT$2eq17h8a0019e38f2a9db2E', symObjAddr: 0xC0, symBinAddr: 0x719A8, symSize: 0x2C }
  - { offset: 0x15B5FB, size: 0x8, addend: 0x0, symName: '__ZN94_$LT$std..io..error..Error$u20$as$u20$core..convert..From$LT$std..io..error..ErrorKind$GT$$GT$4from17h42af959a0139fc2bE', symObjAddr: 0xEC, symBinAddr: 0x719D4, symSize: 0x20 }
  - { offset: 0x15B767, size: 0x8, addend: 0x0, symName: __ZN3std2io5error5Error4kind17h209030e2dd76f39bE, symObjAddr: 0x0, symBinAddr: 0x718E8, symSize: 0xC0 }
  - { offset: 0x15B852, size: 0x8, addend: 0x0, symName: __ZN4core4hint16assert_unchecked18precondition_check17hf41b9dc74a4b84bbE, symObjAddr: 0x0, symBinAddr: 0x719F4, symSize: 0xA4 }
  - { offset: 0x15BB74, size: 0x8, addend: 0x0, symName: __ZN4core4hint16assert_unchecked18precondition_check17hf41b9dc74a4b84bbE, symObjAddr: 0x0, symBinAddr: 0x719F4, symSize: 0xA4 }
  - { offset: 0x15BBD4, size: 0x8, addend: 0x0, symName: __ZN4core4hint21unreachable_unchecked18precondition_check17hafb962b6e8df67d1E, symObjAddr: 0xA4, symBinAddr: 0x71A98, symSize: 0x84 }
  - { offset: 0x15BDE7, size: 0x8, addend: 0x0, symName: '__ZN5alloc7raw_vec19RawVec$LT$T$C$A$GT$8grow_one17h2b81918530a94d3eE', symObjAddr: 0x0, symBinAddr: 0x71B1C, symSize: 0x90 }
  - { offset: 0x15D2A8, size: 0x8, addend: 0x0, symName: '__ZN5alloc7raw_vec19RawVec$LT$T$C$A$GT$8grow_one17h2b81918530a94d3eE', symObjAddr: 0x0, symBinAddr: 0x71B1C, symSize: 0x90 }
  - { offset: 0x15D356, size: 0x8, addend: 0x0, symName: '__ZN5alloc7raw_vec19RawVec$LT$T$C$A$GT$8grow_one17h3bf691b1954b3570E', symObjAddr: 0x90, symBinAddr: 0x71BAC, symSize: 0x90 }
  - { offset: 0x15D429, size: 0x8, addend: 0x0, symName: '__ZN5alloc7raw_vec19RawVec$LT$T$C$A$GT$8grow_one17h9258d187b312d832E', symObjAddr: 0x120, symBinAddr: 0x71C3C, symSize: 0x90 }
  - { offset: 0x15D4E4, size: 0x8, addend: 0x0, symName: '__ZN5alloc7raw_vec19RawVec$LT$T$C$A$GT$8grow_one17h991e2542cd0d834dE', symObjAddr: 0x1B0, symBinAddr: 0x71CCC, symSize: 0x8C }
  - { offset: 0x15D7C7, size: 0x8, addend: 0x0, symName: '__ZN5alloc7raw_vec19RawVec$LT$T$C$A$GT$8grow_one17hd2d4178033b1f2e9E', symObjAddr: 0x23C, symBinAddr: 0x71D58, symSize: 0x90 }
  - { offset: 0x15DAEE, size: 0x8, addend: 0x0, symName: '__ZN5alloc7raw_vec19RawVec$LT$T$C$A$GT$8grow_one17heac5efdfd43b2a27E', symObjAddr: 0x2CC, symBinAddr: 0x71DE8, symSize: 0x90 }
  - { offset: 0x15DBF6, size: 0x8, addend: 0x0, symName: '__ZN5alloc7raw_vec19RawVec$LT$T$C$A$GT$8grow_one17hf0e690b98adde2f2E', symObjAddr: 0x35C, symBinAddr: 0x71E78, symSize: 0x90 }
  - { offset: 0x15DC7D, size: 0x8, addend: 0x0, symName: __ZN4pyo35impl_10trampoline10trampoline17h38acd276c463715bE, symObjAddr: 0x0, symBinAddr: 0x71F08, symSize: 0x160 }
  - { offset: 0x15F17C, size: 0x8, addend: 0x0, symName: __ZN4pyo35impl_10trampoline10trampoline17h38acd276c463715bE, symObjAddr: 0x0, symBinAddr: 0x71F08, symSize: 0x160 }
  - { offset: 0x15F220, size: 0x8, addend: 0x0, symName: __ZN4pyo35impl_10trampoline10trampoline17h6923244155418de4E, symObjAddr: 0x160, symBinAddr: 0x72068, symSize: 0x158 }
  - { offset: 0x15F2C3, size: 0x8, addend: 0x0, symName: __ZN4pyo35impl_10trampoline10trampoline17h7ba6b9cc2551af07E, symObjAddr: 0x2B8, symBinAddr: 0x721C0, symSize: 0x158 }
  - { offset: 0x15F366, size: 0x8, addend: 0x0, symName: __ZN4pyo35impl_10trampoline10trampoline17h9357e31e3722eb09E, symObjAddr: 0x410, symBinAddr: 0x72318, symSize: 0x15C }
  - { offset: 0x15F409, size: 0x8, addend: 0x0, symName: __ZN4pyo35impl_10trampoline10trampoline17h9d29104ffbbd7d19E, symObjAddr: 0x56C, symBinAddr: 0x72474, symSize: 0x14C }
  - { offset: 0x15F4B0, size: 0x8, addend: 0x0, symName: '__ZN4pyo35impl_10trampoline10trampoline28_$u7b$$u7b$closure$u7d$$u7d$17h2aa809a4c89db8c6E', symObjAddr: 0x6B8, symBinAddr: 0x725C0, symSize: 0x40 }
  - { offset: 0x15F4FF, size: 0x8, addend: 0x0, symName: '__ZN4pyo35impl_10trampoline10trampoline28_$u7b$$u7b$closure$u7d$$u7d$17h4e811e65ff2d6958E', symObjAddr: 0x6F8, symBinAddr: 0x72600, symSize: 0x24 }
  - { offset: 0x15F54D, size: 0x8, addend: 0x0, symName: '__ZN4pyo35impl_10trampoline10trampoline28_$u7b$$u7b$closure$u7d$$u7d$17h88c97eb2625d4d7dE', symObjAddr: 0x71C, symBinAddr: 0x72624, symSize: 0x34 }
  - { offset: 0x15F59C, size: 0x8, addend: 0x0, symName: '__ZN4pyo35impl_10trampoline10trampoline28_$u7b$$u7b$closure$u7d$$u7d$17h91d6c6e8064938bdE', symObjAddr: 0x750, symBinAddr: 0x72658, symSize: 0x2C }
  - { offset: 0x15F5EA, size: 0x8, addend: 0x0, symName: '__ZN4pyo35impl_10trampoline10trampoline28_$u7b$$u7b$closure$u7d$$u7d$17haecd63421a4816f8E', symObjAddr: 0x77C, symBinAddr: 0x72684, symSize: 0x2C }
  - { offset: 0x15F63E, size: 0x8, addend: 0x0, symName: '__ZN4pyo35impl_10trampoline11module_init28_$u7b$$u7b$closure$u7d$$u7d$17hd2902b5f333656ddE', symObjAddr: 0x7A8, symBinAddr: 0x726B0, symSize: 0x40 }
  - { offset: 0x15F68A, size: 0x8, addend: 0x0, symName: '__ZN4pyo35impl_10trampoline11module_init28_$u7b$$u7b$closure$u7d$$u7d$28_$u7b$$u7b$closure$u7d$$u7d$17h676244f5c7fa856aE', symObjAddr: 0x7E8, symBinAddr: 0x726F0, symSize: 0x24 }
  - { offset: 0x15F6DC, size: 0x8, addend: 0x0, symName: __ZN4pyo35impl_10trampoline21trampoline_unraisable17h2034acba460565d2E, symObjAddr: 0x80C, symBinAddr: 0x72714, symSize: 0x254 }
  - { offset: 0x15F777, size: 0x8, addend: 0x0, symName: '__ZN4pyo35impl_10trampoline21trampoline_unraisable28_$u7b$$u7b$closure$u7d$$u7d$17h66996e8b4a5b377cE', symObjAddr: 0xA60, symBinAddr: 0x72968, symSize: 0x2C }
  - { offset: 0x15F7BC, size: 0x8, addend: 0x0, symName: '__ZN4pyo35impl_10trampoline21trampoline_unraisable28_$u7b$$u7b$closure$u7d$$u7d$17hfef58dcacfa7a410E', symObjAddr: 0xA8C, symBinAddr: 0x72994, symSize: 0x5C }
  - { offset: 0x15F808, size: 0x8, addend: 0x0, symName: '__ZN4pyo35impl_10trampoline22fastcall_with_keywords28_$u7b$$u7b$closure$u7d$$u7d$17hf60c5716eefa41acE', symObjAddr: 0xAE8, symBinAddr: 0x729F0, symSize: 0x48 }
  - { offset: 0x15F8D4, size: 0x8, addend: 0x0, symName: '__ZN4pyo35impl_10trampoline6noargs28_$u7b$$u7b$closure$u7d$$u7d$17hd5cb6e2d1a4b6bd2E', symObjAddr: 0xB30, symBinAddr: 0x72A38, symSize: 0x34 }
  - { offset: 0x15F951, size: 0x8, addend: 0x0, symName: '__ZN4pyo35impl_10trampoline7dealloc28_$u7b$$u7b$closure$u7d$$u7d$17hf54fe7145fa1295bE', symObjAddr: 0xB64, symBinAddr: 0x72A6C, symSize: 0x40 }
  - { offset: 0x15F9CE, size: 0x8, addend: 0x0, symName: '__ZN4pyo35impl_10trampoline7newfunc28_$u7b$$u7b$closure$u7d$$u7d$17hc6ce9378b9004956E', symObjAddr: 0xBA4, symBinAddr: 0x72AAC, symSize: 0x40 }
  - { offset: 0x15FA7F, size: 0x8, addend: 0x0, symName: '__ZN4pyo35impl_10trampoline8reprfunc28_$u7b$$u7b$closure$u7d$$u7d$17hf1ba8cb52627b94fE', symObjAddr: 0xBE4, symBinAddr: 0x72AEC, symSize: 0x34 }
  - { offset: 0x16051B, size: 0x8, addend: 0x0, symName: __ZN4pyo35impl_16extract_argument16extract_argument17h0bec9548e91516b6E, symObjAddr: 0x0, symBinAddr: 0x72B20, symSize: 0x138 }
  - { offset: 0x162ECC, size: 0x8, addend: 0x0, symName: __ZN4pyo35impl_16extract_argument16extract_argument17h0bec9548e91516b6E, symObjAddr: 0x0, symBinAddr: 0x72B20, symSize: 0x138 }
  - { offset: 0x162F51, size: 0x8, addend: 0x0, symName: __ZN4pyo35impl_16extract_argument16extract_argument17h0eaa58bb9ffcd4cbE, symObjAddr: 0x138, symBinAddr: 0x72C58, symSize: 0x138 }
  - { offset: 0x162FD6, size: 0x8, addend: 0x0, symName: __ZN4pyo35impl_16extract_argument16extract_argument17h1296bec151fc0117E, symObjAddr: 0x270, symBinAddr: 0x72D90, symSize: 0x144 }
  - { offset: 0x16305C, size: 0x8, addend: 0x0, symName: __ZN4pyo35impl_16extract_argument16extract_argument17h52a7312de2d338acE, symObjAddr: 0x3B4, symBinAddr: 0x72ED4, symSize: 0x150 }
  - { offset: 0x1630E1, size: 0x8, addend: 0x0, symName: __ZN4pyo35impl_16extract_argument16extract_argument17h52e146ecd909655dE, symObjAddr: 0x504, symBinAddr: 0x73024, symSize: 0x150 }
  - { offset: 0x163166, size: 0x8, addend: 0x0, symName: __ZN4pyo35impl_16extract_argument16extract_argument17h68a1308d4d47088aE, symObjAddr: 0x654, symBinAddr: 0x73174, symSize: 0x150 }
  - { offset: 0x1631EB, size: 0x8, addend: 0x0, symName: __ZN4pyo35impl_16extract_argument16extract_argument17h8d44021d1347c5b1E, symObjAddr: 0x7A4, symBinAddr: 0x732C4, symSize: 0x160 }
  - { offset: 0x163270, size: 0x8, addend: 0x0, symName: __ZN4pyo35impl_16extract_argument16extract_argument17hba58ca436c985b94E, symObjAddr: 0x904, symBinAddr: 0x73424, symSize: 0x150 }
  - { offset: 0x1632F5, size: 0x8, addend: 0x0, symName: __ZN4pyo35impl_16extract_argument16extract_argument17hbe58f88741f112e6E, symObjAddr: 0xA54, symBinAddr: 0x73574, symSize: 0x138 }
  - { offset: 0x16337A, size: 0x8, addend: 0x0, symName: __ZN4pyo35impl_16extract_argument16extract_argument17hc1da2f3dbbc5152dE, symObjAddr: 0xB8C, symBinAddr: 0x736AC, symSize: 0x138 }
  - { offset: 0x1633FF, size: 0x8, addend: 0x0, symName: __ZN4pyo35impl_16extract_argument16extract_argument17heaf8d036d0fa8cb7E, symObjAddr: 0xCC4, symBinAddr: 0x737E4, symSize: 0x150 }
  - { offset: 0x163484, size: 0x8, addend: 0x0, symName: __ZN4pyo35impl_16extract_argument16extract_argument17hf0ffd378a6bda61bE, symObjAddr: 0xE14, symBinAddr: 0x73934, symSize: 0x144 }
  - { offset: 0x163509, size: 0x8, addend: 0x0, symName: __ZN4pyo35impl_16extract_argument16extract_argument17hf680d4988a5cb29fE, symObjAddr: 0xF58, symBinAddr: 0x73A78, symSize: 0x144 }
  - { offset: 0x163710, size: 0x8, addend: 0x0, symName: '__ZN4pyo35impl_16extract_argument19FunctionDescription26extract_arguments_fastcall28_$u7b$$u7b$closure$u7d$$u7d$17hdb73a96e06861ec4E', symObjAddr: 0x2468, symBinAddr: 0x74F88, symSize: 0x24 }
  - { offset: 0x163768, size: 0x8, addend: 0x0, symName: '__ZN4pyo35impl_16extract_argument19FunctionDescription28extract_arguments_tuple_dict28_$u7b$$u7b$closure$u7d$$u7d$17hb329736fa66dffd6E', symObjAddr: 0x290C, symBinAddr: 0x7542C, symSize: 0x24 }
  - { offset: 0x1637C0, size: 0x8, addend: 0x0, symName: '__ZN4pyo35impl_16extract_argument19FunctionDescription36find_keyword_parameter_in_positional28_$u7b$$u7b$closure$u7d$$u7d$17hc4c2392219da7a54E', symObjAddr: 0x2930, symBinAddr: 0x75450, symSize: 0x48 }
  - { offset: 0x163820, size: 0x8, addend: 0x0, symName: '__ZN4pyo35impl_16extract_argument19FunctionDescription38find_keyword_parameter_in_keyword_only28_$u7b$$u7b$closure$u7d$$u7d$17hbe2d5b63964a0cbbE', symObjAddr: 0x2978, symBinAddr: 0x75498, symSize: 0x38 }
  - { offset: 0x163862, size: 0x8, addend: 0x0, symName: __ZN4pyo35impl_16extract_argument19extract_pyclass_ref17h4b4f31d3bd74e029E, symObjAddr: 0x29B0, symBinAddr: 0x754D0, symSize: 0xB0 }
  - { offset: 0x1638C3, size: 0x8, addend: 0x0, symName: __ZN4pyo35impl_16extract_argument19extract_pyclass_ref17hb3429208fc418dddE, symObjAddr: 0x2A60, symBinAddr: 0x75580, symSize: 0xB0 }
  - { offset: 0x163924, size: 0x8, addend: 0x0, symName: __ZN4pyo35impl_16extract_argument19extract_pyclass_ref17he2f794ff1c660e03E, symObjAddr: 0x2B10, symBinAddr: 0x75630, symSize: 0xB0 }
  - { offset: 0x163985, size: 0x8, addend: 0x0, symName: __ZN4pyo35impl_16extract_argument23extract_pyclass_ref_mut17h2b258072ede8d76cE, symObjAddr: 0x2BC0, symBinAddr: 0x756E0, symSize: 0xB0 }
  - { offset: 0x1639E6, size: 0x8, addend: 0x0, symName: __ZN4pyo35impl_16extract_argument25extract_optional_argument17h3b96fe54433035cbE, symObjAddr: 0x2C70, symBinAddr: 0x75790, symSize: 0xD4 }
  - { offset: 0x163A5B, size: 0x8, addend: 0x0, symName: __ZN4pyo35impl_16extract_argument25extract_optional_argument17h9c64f55e179c3a4dE, symObjAddr: 0x2D44, symBinAddr: 0x75864, symSize: 0xFC }
  - { offset: 0x163AD0, size: 0x8, addend: 0x0, symName: __ZN4pyo35impl_16extract_argument25extract_optional_argument17hf4d78d315a6cd97cE, symObjAddr: 0x2E40, symBinAddr: 0x75960, symSize: 0xD4 }
  - { offset: 0x163B45, size: 0x8, addend: 0x0, symName: __ZN4pyo35impl_16extract_argument29extract_argument_with_default17h59cfedd2c8746b9aE, symObjAddr: 0x2F14, symBinAddr: 0x75A34, symSize: 0x8C }
